
C:/Users/jjrh/Dropbox/Telecom/Tesis/Source/kernel_sifive/kernel_semaphore/src/debug/empty.elf:     file format elf32-littleriscv
C:/Users/jjrh/Dropbox/Telecom/Tesis/Source/kernel_sifive/kernel_semaphore/src/debug/empty.elf
architecture: riscv:rv32, flags 0x00000112:
EXEC_P, HAS_SYMS, D_PAGED
start address 0x20400000

Program Header:
    LOAD off    0x00001000 vaddr 0x20400000 paddr 0x20400000 align 2**12
         filesz 0x00001118 memsz 0x00001118 flags rwx
    LOAD off    0x00009000 vaddr 0x80000000 paddr 0x20407fc0 align 2**12
         filesz 0x000007c8 memsz 0x000007c8 flags rw-
     TLS off    0x00000000 vaddr 0x00000000 paddr 0x00000000 align 2**2
         filesz 0x00000000 memsz 0x00000000 flags ---
    LOAD off    0x000007c8 vaddr 0x800007c8 paddr 0x800007c8 align 2**12
         filesz 0x00000000 memsz 0x00001308 flags rw-
    LOAD off    0x00000114 vaddr 0x00000000 paddr 0x00000000 align 2**12
         filesz 0x00000000 memsz 0x00000000 flags ---
    LOAD off    0x00002180 vaddr 0x20401180 paddr 0x20401180 align 2**12
         filesz 0x00006e3a memsz 0x00006e3a flags r-x
    LOAD off    0x00000114 vaddr 0x00000000 paddr 0x00000000 align 2**12
         filesz 0x00000000 memsz 0x00000000 flags ---

Sections:
Idx Name              Size      VMA       LMA       File off  Algn  Flags
  0 .init             000002dc  20400000  20400000  00001000  2**4  CONTENTS, ALLOC, LOAD, READONLY, CODE
  1 .init_array       0000000c  204002e0  204002e0  000012e0  2**3  CONTENTS, ALLOC, LOAD, DATA
  2 .ctors            0000007a  204002ec  204002ec  000012ec  2**1  CONTENTS, ALLOC, LOAD, READONLY, CODE
  3 .rodata           00000db0  20400368  20400368  00001368  2**2  CONTENTS, ALLOC, LOAD, READONLY, DATA
  4 .text             00006e3a  20401180  20401180  00002180  2**7  CONTENTS, ALLOC, LOAD, READONLY, CODE
  5 .data             000007c8  80000000  20407fc0  00009000  2**3  CONTENTS, ALLOC, LOAD, DATA
  6 .bss              000006fc  800007c8  800007c8  000097c8  2**3  ALLOC
  7 .stack            00000400  80000ed0  80000ed0  000097c8  2**4  ALLOC
  8 .heap             00000800  800012d0  800012d0  000097c8  2**3  ALLOC
  9 .debug_info       00021eca  00000000  00000000  000097c8  2**0  CONTENTS, READONLY, DEBUGGING, OCTETS
 10 .debug_abbrev     0000340f  00000000  00000000  0002b692  2**0  CONTENTS, READONLY, DEBUGGING, OCTETS
 11 .debug_aranges    00000d58  00000000  00000000  0002eaa8  2**3  CONTENTS, READONLY, DEBUGGING, OCTETS
 12 .debug_ranges     00000c70  00000000  00000000  0002f800  2**3  CONTENTS, READONLY, DEBUGGING, OCTETS
 13 .debug_line       0000badb  00000000  00000000  00030470  2**0  CONTENTS, READONLY, DEBUGGING, OCTETS
 14 .debug_str        00004dc7  00000000  00000000  0003bf4b  2**0  CONTENTS, READONLY, DEBUGGING, OCTETS
 15 .comment          00000030  00000000  00000000  00040d12  2**0  CONTENTS, READONLY
 16 .riscv.attributes 0000002f  00000000  00000000  00040d42  2**0  CONTENTS, READONLY
 17 .debug_frame      000032b0  00000000  00000000  00040d74  2**2  CONTENTS, READONLY, DEBUGGING, OCTETS
 18 .debug_loc        00001565  00000000  00000000  00044024  2**0  CONTENTS, READONLY, DEBUGGING, OCTETS
SYMBOL TABLE:
20400000 l    d  .init	00000000 .init
204002e0 l    d  .init_array	00000000 .init_array
204002ec l    d  .ctors	00000000 .ctors
20400368 l    d  .rodata	00000000 .rodata
20401180 l    d  .text	00000000 .text
80000000 l    d  .data	00000000 .data
800007c8 l    d  .bss	00000000 .bss
80000ed0 l    d  .stack	00000000 .stack
800012d0 l    d  .heap	00000000 .heap
00000000 l    d  .debug_info	00000000 .debug_info
00000000 l    d  .debug_abbrev	00000000 .debug_abbrev
00000000 l    d  .debug_aranges	00000000 .debug_aranges
00000000 l    d  .debug_ranges	00000000 .debug_ranges
00000000 l    d  .debug_line	00000000 .debug_line
00000000 l    d  .debug_str	00000000 .debug_str
00000000 l    d  .comment	00000000 .comment
00000000 l    d  .riscv.attributes	00000000 .riscv.attributes
00000000 l    d  .debug_frame	00000000 .debug_frame
00000000 l    d  .debug_loc	00000000 .debug_loc
00000000 l    df *ABS*	00000000 scrub.o
204000c0 l     F .init	00000000 __metal_memory_scrub
2040012e l       .init	00000000 skip_scrub
00000000 l    df *ABS*	00000000 synchronize_harts.c
00000000 l    df *ABS*	00000000 crt0.o
20400240 l       .init	00000000 _skip_init
204004a0 l       .rodata	00000000 argv
204004a4 l       .rodata	00000000 envp
204004a8 l       .rodata	00000000 name
00000000 l    df *ABS*	00000000 tty.c
00000000 l    df *ABS*	00000000 sifive_fe310-g000_pll.c
2040652e l     F .text	0000001a __metal_driver_sifive_fe310_g000_pll_pllsel0
20406548 l     F .text	0000001a __metal_driver_sifive_fe310_g000_pll_pllref
20406562 l     F .text	00000016 __metal_driver_sifive_fe310_g000_pll_divider_base
20406578 l     F .text	00000014 __metal_driver_sifive_fe310_g000_pll_divider_offset
2040658c l     F .text	00000012 __metal_driver_sifive_fe310_g000_pll_config_base
2040659e l     F .text	00000010 __metal_driver_sifive_fe310_g000_pll_config_offset
204065ae l     F .text	00000016 __metal_driver_sifive_fe310_g000_pll_init_rate
204065c4 l     F .text	00000012 __metal_driver_sifive_fe310_g000_prci_base
204065d6 l     F .text	00000016 __metal_driver_sifive_fe310_g000_prci_vtable
204007a4 l     O .rodata	00000880 pll_configs
204065ec l     F .text	0000004e get_pll_config_freq
2040685a l     F .text	000000ac find_closest_config
20406906 l     F .text	000001b0 configure_pll
00000000 l    df *ABS*	00000000 main.c
00000000 l    df *ABS*	00000000 trap.c
00000000 l    df *ABS*	00000000 findfp.c
20401dee l     F .text	00000068 std
00000000 l    df *ABS*	00000000 nano-vfprintf.c
204021ba l     F .text	0000002a __sfputc_r
00000000 l    df *ABS*	00000000 nano-vfprintf_i.c
00000000 l    df *ABS*	00000000 libgcc2.c
00000000 l    df *ABS*	00000000 riscv_clint0.c
20403918 l     F .text	0000002a __metal_driver_sifive_clint0_control_base
20403942 l     F .text	00000028 __metal_driver_sifive_clint0_num_interrupts
2040396a l     F .text	0000003c __metal_driver_sifive_clint0_interrupt_parents
204039a6 l     F .text	00000030 __metal_driver_sifive_clint0_interrupt_lines
20403b06 l     F .text	00000036 _get_cpu_intc
00000000 l    df *ABS*	00000000 riscv_cpu.c
20404050 l     F .text	00000024 __metal_driver_cpu_hartid
20404074 l     F .text	0000002a __metal_driver_cpu_timebase
2040409e l     F .text	0000002a __metal_driver_cpu_interrupt_controller
204040c8 l     F .text	00000024 __metal_driver_cpu_buserror
00000000 l    df *ABS*	00000000 riscv_plic0.c
20405a74 l     F .text	0000002a __metal_driver_sifive_plic0_control_base
20405a9e l     F .text	00000028 __metal_driver_sifive_plic0_num_interrupts
20405ac6 l     F .text	00000028 __metal_driver_sifive_plic0_max_priority
20405aee l     F .text	00000028 __metal_driver_sifive_plic0_interrupt_parents
20405b16 l     F .text	00000022 __metal_driver_sifive_plic0_interrupt_lines
20405b38 l     F .text	0000001e __metal_driver_sifive_plic0_context_ids
00000000 l    df *ABS*	00000000 sifive_gpio0.c
20406c94 l     F .text	00000026 __metal_driver_sifive_gpio0_base
20406cba l     F .text	0000002a __metal_driver_sifive_gpio0_interrupt_parent
20406ce4 l     F .text	000001b4 __metal_driver_sifive_gpio0_interrupt_lines
00000000 l    df *ABS*	00000000 sifive_uart0.c
204075b8 l     F .text	0000002a __metal_driver_sifive_uart0_control_base
204075e2 l     F .text	0000002e __metal_driver_sifive_uart0_interrupt_parent
20407610 l     F .text	00000028 __metal_driver_sifive_uart0_interrupt_line
20407638 l     F .text	0000002e __metal_driver_sifive_uart0_clock
20407666 l     F .text	0000002a __metal_driver_sifive_uart0_pinmux
20407690 l     F .text	00000028 __metal_driver_sifive_uart0_pinmux_output_selector
204076b8 l     F .text	0000002a __metal_driver_sifive_uart0_pinmux_source_selector
20407a82 l     F .text	000000da pre_rate_change_callback_func
20407b5c l     F .text	00000030 post_rate_change_callback_func
00000000 l    df *ABS*	00000000 impure.c
80000000 l     O .data	00000060 impure_data
00000000 l    df *ABS*	00000000 sifive_fe310-g000_hfrosc.c
2040633e l     F .text	0000001a __metal_driver_sifive_fe310_g000_hfrosc_ref
20406358 l     F .text	00000016 __metal_driver_sifive_fe310_g000_hfrosc_config_base
2040636e l     F .text	00000014 __metal_driver_sifive_fe310_g000_hfrosc_config_offset
20406382 l     F .text	00000016 __metal_driver_sifive_fe310_g000_prci_vtable
00000000 l    df *ABS*	00000000 sifive_fe310-g000_hfxosc.c
2040643e l     F .text	0000001a __metal_driver_sifive_fe310_g000_hfxosc_ref
20406458 l     F .text	00000016 __metal_driver_sifive_fe310_g000_hfxosc_config_base
2040646e l     F .text	00000014 __metal_driver_sifive_fe310_g000_hfxosc_config_offset
20406482 l     F .text	00000016 __metal_driver_sifive_fe310_g000_prci_vtable
00000000 l    df *ABS*	00000000 sifive_fe310-g000_prci.c
20406c1c l     F .text	00000012 __metal_driver_sifive_fe310_g000_prci_base
00000000 l    df *ABS*	00000000 sifive_test0.c
20407548 l     F .text	00000026 __metal_driver_sifive_test0_base
00000000 l    df *ABS*	00000000 fixed-clock.c
20407f00 l     F .text	00000062 __metal_driver_fixed_clock_rate
00000000 l    df *ABS*	00000000 kernel.c
20401180 l     F .text	0000001a r_mie
2040119a l     F .text	0000001a w_mie
204011b4 l     F .text	0000001a w_mtvec
204011ce l     F .text	0000002e intr_on
204011fc l     F .text	00000026 intr_off
00000000 l    df *ABS*	00000000 semaphore.c
204015ae l     F .text	0000001a r_mie
204015c8 l     F .text	0000001a w_mie
204015e2 l     F .text	0000002e intr_on
20401610 l     F .text	00000026 intr_off
00000000 l    df *ABS*	00000000 clock.c
00000000 l    df *ABS*	00000000 nano-mallocr.c
00000000 l    df *ABS*	00000000 nano-mallocr.c
00000000 l    df *ABS*	00000000 printf.c
00000000 l    df *ABS*	00000000 puts.c
00000000 l    df *ABS*	00000000 sbrkr.c
00000000 l    df *ABS*	00000000 timesr.c
00000000 l    df *ABS*	00000000 wbuf.c
00000000 l    df *ABS*	00000000 wsetup.c
00000000 l    df *ABS*	00000000 fflush.c
00000000 l    df *ABS*	00000000 fwalk.c
00000000 l    df *ABS*	00000000 makebuf.c
00000000 l    df *ABS*	00000000 mlock.c
00000000 l    df *ABS*	00000000 stdio.c
00000000 l    df *ABS*	00000000 writer.c
00000000 l    df *ABS*	00000000 closer.c
00000000 l    df *ABS*	00000000 fstatr.c
00000000 l    df *ABS*	00000000 isattyr.c
00000000 l    df *ABS*	00000000 lseekr.c
00000000 l    df *ABS*	00000000 memchr.c
00000000 l    df *ABS*	00000000 readr.c
00000000 l    df *ABS*	00000000 sys_close.c
00000000 l    df *ABS*	00000000 sys_fstat.c
00000000 l    df *ABS*	00000000 sys_isatty.c
00000000 l    df *ABS*	00000000 sys_lseek.c
00000000 l    df *ABS*	00000000 sys_read.c
00000000 l    df *ABS*	00000000 sys_sbrk.c
800007a4 l     O .data	00000004 __brk
00000000 l    df *ABS*	00000000 sys_times.c
20402b74 l     F .text	000000e0 muldiv
00000000 l    df *ABS*	00000000 sys_write.c
00000000 l    df *ABS*	00000000 atexit.c
00000000 l    df *ABS*	00000000 errno.c
00000000 l    df *ABS*	00000000 exit.c
00000000 l    df *ABS*	00000000 fini.c
00000000 l    df *ABS*	00000000 init.c
00000000 l    df *ABS*	00000000 __atexit.c
800007e0 l     O .bss	0000008c _global_atexit0
00000000 l    df *ABS*	00000000 __call_atexit.c
00000000 l    df *ABS*	00000000 libgcc2.c
00000000 l    df *ABS*	00000000 libgcc2.c
00000000 l    df *ABS*	00000000 cpu.c
00000000 l    df *ABS*	00000000 init.c
800007d8 l     O .bss	00000004 init_done.1
800007dc l     O .bss	00000004 fini_done.0
00000000 l    df *ABS*	00000000 timer.c
00000000 l    df *ABS*	00000000 uart.c
00000000 l    df *ABS*	00000000 clock.c
00000000 l    df *ABS*	00000000 shutdown.c
00000000 l    df *ABS*	00000000 vector.o
20407e80 l       .text	00000000 IRQ_0
20407e84 l       .text	00000000 IRQ_1
20407e88 l       .text	00000000 IRQ_2
20407e8c l       .text	00000000 IRQ_3
20407e90 l       .text	00000000 IRQ_4
20407e94 l       .text	00000000 IRQ_5
20407e98 l       .text	00000000 IRQ_6
20407e9c l       .text	00000000 IRQ_7
20407ea0 l       .text	00000000 IRQ_8
20407ea4 l       .text	00000000 IRQ_9
20407ea8 l       .text	00000000 IRQ_10
20407eac l       .text	00000000 IRQ_11
20407eb0 l       .text	00000000 IRQ_12
20407eb4 l       .text	00000000 IRQ_13
20407eb8 l       .text	00000000 IRQ_14
20407ebc l       .text	00000000 IRQ_15
20407ec0 l       .text	00000000 IRQ_LC0
20407ec4 l       .text	00000000 IRQ_LC1
20407ec8 l       .text	00000000 IRQ_LC2
20407ecc l       .text	00000000 IRQ_LC3
20407ed0 l       .text	00000000 IRQ_LC4
20407ed4 l       .text	00000000 IRQ_LC5
20407ed8 l       .text	00000000 IRQ_LC6
20407edc l       .text	00000000 IRQ_LC7
20407ee0 l       .text	00000000 IRQ_LC8
20407ee4 l       .text	00000000 IRQ_LC9
20407ee8 l       .text	00000000 IRQ_LC10
20407eec l       .text	00000000 IRQ_LC11
20407ef0 l       .text	00000000 IRQ_LC12
20407ef4 l       .text	00000000 IRQ_LC13
20407ef8 l       .text	00000000 IRQ_LC14
20407efc l       .text	00000000 IRQ_LC15
00000000 l    df *ABS*	00000000 sys_exit.c
00000000 l    df *ABS*	00000000 inline.c
00000000 l    df *ABS*	00000000 
204002ec l       .init_array	00000000 metal_constructors_end
204002f0 l       .init_array	00000000 __fini_array_end
204002f0 l       .init_array	00000000 metal_destructors_end
204002f0 l       .init_array	00000000 metal_destructors_start
204002f0 l       .init_array	00000000 __fini_array_start
204002e0 l       .init_array	00000000 __init_array_end
204002e0 l       .init_array	00000000 __preinit_array_end
204002e0 l       .init_array	00000000 __init_array_start
204002e0 l       .init_array	00000000 metal_constructors_start
204002e0 l       .init_array	00000000 __preinit_array_start
204010ac g     O .rodata	00000040 __metal_driver_vtable_sifive_uart0
20402606 g     F .text	0000002e _isatty_r
20404952  w    F .text	00000096 metal_lc4_interrupt_vector_handler
2040195e g     F .text	000000da _puts_r
20402634 g     F .text	00000032 _lseek_r
20407cf4 g     F .text	00000026 metal_clock_get_rate_hz
204079e2 g     F .text	000000a0 __metal_driver_sifive_uart0_set_baud_rate
20403ce2 g     F .text	00000058 __metal_driver_riscv_clint0_set_vector_mode
20407836 g     F .text	0000004a __metal_driver_sifive_uart0_set_tx_watermark
204048bc  w    F .text	00000096 metal_lc3_interrupt_vector_handler
20405164 g     F .text	00000058 __metal_valid_interrupt_id
20401920 g     F .text	0000003e printf
204002e8 g     O .init_array	00000004 _use_hfxosc_ptr
204055e4 g     F .text	0000001c __metal_driver_riscv_cpu_controller_get_vector_mode
80000fa0 g       .data	00000000 __global_pointer$
204002ec g     F .ctors	00000024 metal_tty_init
20407ca0 g     F .text	00000054 _metal_clock_append_to_callbacks
20405b92 g     F .text	00000046 __metal_plic0_complete_interrupt
20401656 g     F .text	0000002a semaphore_signal
204053aa g     F .text	000001e2 __metal_driver_riscv_cpu_controller_interrupt_register
204002e4 g     O .init_array	00000004 _metal_sifive_fe310_g000_pll_init_ptr
20402538 g     F .text	00000036 __sseek
20401ea6 g     F .text	0000006a __sinit
20401a7a g     F .text	000000c0 __swbuf_r
800007c8 g       .data	00000000 __tls_base
20401e60 g     F .text	00000046 __sfmoreglue
204021b8 g     F .text	00000002 __malloc_unlock
20403682 g     F .text	0000002e metal_cpu_get
80000758 g     O .data	00000020 __metal_dt_serial_10013000
20407122 g     F .text	0000004a __metal_driver_sifive_gpio0_disable_io
204005b4 g     O .rodata	00000064 __metal_driver_vtable_riscv_clint0
80000ec4 g       .bss	00000000 metal_segment_bss_target_end
204039d6 g     F .text	0000009a __metal_clint0_mtime_get
204059e8 g     F .text	0000002e __metal_driver_cpu_get_instruction_length
00000001 g       *ABS*	00000000 __metal_chicken_bit
204012e6 g     F .text	00000020 system_init
204078fa g     F .text	00000030 __metal_driver_sifive_uart0_get_rx_watermark
20406ed8 g     F .text	00000046 __metal_driver_sifive_gpio0_disable_input
2040756e g     F .text	0000004a __metal_driver_sifive_test0_exit
20402d5c g     F .text	0000000a __errno
80000000 g       .rodata	00000000 metal_segment_itim_target_start
20402c54  w    F .text	0000008e times
20403632 g     F .text	0000002a metal_cpu_get_timebase
20407806 g     F .text	00000030 __metal_driver_sifive_uart0_txready
20407794 g     F .text	0000003a __metal_driver_sifive_uart0_rx_interrupt_enable
20400142 g     F .init	0000000e __metal_synchronize_harts
800007c8 g       .data	00000000 metal_segment_bss_target_start
20403a70 g     F .text	00000096 __metal_driver_riscv_clint0_mtimecmp_set
204025d6 g     F .text	00000030 _fstat_r
20407372 g     F .text	00000188 __metal_driver_sifive_gpio0_clear_int
80000ec0 g     O .bss	00000004 semaphore
800007d0 g     O .bss	00000004 errno
204066de g     F .text	0000017c __metal_driver_sifive_fe310_g000_pll_get_rate_hz
00000400 g       *ABS*	00000000 __stack_size
20407d66 g     F .text	00000032 metal_clock_register_pre_rate_change_callback
20404c40  w    F .text	00000096 metal_lc9_interrupt_vector_handler
204000cc  w    F .init	00000000 __metal_before_start
204037ba  w    F .text	00000014 metal_init_run
20400740 g     O .rodata	00000064 __metal_driver_vtable_riscv_plic0
204006fc g     O .rodata	00000044 __metal_driver_vtable_cpu
204038ea g     F .text	0000002e metal_uart_set_baud_rate
20407b8c g     F .text	000000d2 __metal_driver_sifive_uart0_init
00000000 g       *ABS*	00000000 __metal_eccscrub_bit
20401a74 g     F .text	00000006 _times_r
20405670 g     F .text	00000070 __metal_driver_cpu_mcycle_get
20401024 g     O .rodata	0000000c __metal_driver_vtable_sifive_fe310_g000_pll
800012d0 g       .heap	00000000 metal_segment_heap_target_start
20401e56 g     F .text	0000000a _cleanup_r
800007b4 g     O .data	00000008 __metal_dt_cpu_0
20404baa  w    F .text	00000096 metal_lc8_interrupt_vector_handler
20406ab6 g     F .text	00000166 __metal_driver_sifive_fe310_g000_pll_set_rate_hz
20403826 g     F .text	00000044 metal_timer_get_timebase_frequency
204062a2 g     F .text	00000074 __metal_driver_riscv_plic0_affinity_set_threshold
20401a38 g     F .text	0000000c puts
20401636 g     F .text	00000020 osSemaphoreInit
20404e98  w    F .text	00000096 metal_lc13_interrupt_vector_handler
2040425a g     F .text	00000018 __metal_default_exception_handler
20402a50 g     F .text	00000026 _fstat
2040401c g     F .text	00000034 __metal_driver_riscv_clint0_set_interrupt
20405600 g     F .text	00000054 __metal_driver_riscv_cpu_controller_set_vector_mode
2040156c g     F .text	00000042 handle_trap
204040ec g     F .text	00000030 __metal_driver_cpu_get
20400698 g     O .rodata	00000064 __metal_driver_vtable_riscv_cpu_intc
2040414e g     F .text	00000018 __metal_interrupt_global_disable
20406316 g     F .text	00000028 __metal_driver_riscv_plic0_affinity_get_threshold
20404b14  w    F .text	00000096 metal_lc7_interrupt_vector_handler
20401680 g     F .text	0000003a semaphore_wait
20404cd6  w    F .text	00000096 metal_lc10_interrupt_vector_handler
20401a44 g     F .text	00000030 _sbrk_r
204060c2 g     F .text	00000050 __metal_driver_riscv_plic0_disable
20405278 g     F .text	0000004e __metal_exception_register
204012d0 g     F .text	00000016 osKernelLaunch
204036ca g     F .text	00000078 metal_init
204029fc g     F .text	00000032 _read_r
20405802 g     F .text	0000001a __metal_driver_cpu_timer_controller_interrupt
20406fba g     F .text	00000040 __metal_driver_sifive_gpio0_enable_output
2040144e g     F .text	0000007c handle_interrupt
80000000 g       .rodata	00000000 metal_segment_lim_target_end
2040434a g     F .text	00000068 __metal_default_sw_handler
20407d98 g     F .text	00000032 metal_clock_register_post_rate_change_callback
8000006c g     O .data	0000000c __metal_dt_clock_2
204076e2 g     F .text	00000020 __metal_driver_sifive_uart0_interrupt_controller
204032c8 g     F .text	00000340 .hidden __umoddi3
20402a76 g     F .text	00000020 _isatty
20407080 g     F .text	00000040 __metal_driver_sifive_gpio0_output_toggle
20407722 g     F .text	0000003a __metal_driver_sifive_uart0_tx_interrupt_enable
20401110 g     O .rodata	00000008 __metal_driver_vtable_fixed_clock
204010f0 g     O .rodata	00000004 _global_impure_ptr
20401350 g     F .text	00000018 osSchedulerRoundRobin
204043b2  w    F .text	00000092 metal_timer_interrupt_vector_handler
20402dc6 g     F .text	0000005e __libc_init_array
20406ffa g     F .text	00000040 __metal_driver_sifive_gpio0_output_set
20404d6c  w    F .text	00000096 metal_lc11_interrupt_vector_handler
20402f68 g     F .text	00000360 .hidden __udivdi3
2040650c g     F .text	00000022 __metal_driver_sifive_fe310_g000_hfxosc_set_rate_hz
2040558c g     F .text	0000002c __metal_driver_riscv_cpu_controller_interrupt_enable
20402aea g     F .text	0000008a _sbrk
20406f74 g     F .text	00000046 __metal_driver_sifive_gpio0_disable_output
20407c5e g     F .text	00000042 _metal_clock_call_all_callbacks
204016d0 g     F .text	00000000 switch_to
204002ba g     F .init	00000002 _init
204041b0 g     F .text	0000001a __metal_interrupt_timer_disable
2040716c g     F .text	00000206 __metal_driver_sifive_gpio0_config_int
204058c0 g     F .text	00000062 __metal_driver_cpu_clear_sw_ipi
20401070 g     O .rodata	0000003c __metal_driver_vtable_sifive_gpio0
2040775c g     F .text	00000038 __metal_driver_sifive_uart0_tx_interrupt_disable
204070c0 g     F .text	00000062 __metal_driver_sifive_gpio0_enable_io
20402d90 g     F .text	00000036 __libc_fini_array
20402c54 g     F .text	0000008e _times
80000790 g     O .data	0000000c __metal_dt_clock_4
204074fa g     F .text	00000020 __metal_driver_gpio_interrupt_controller
20403742 g     F .text	00000078 metal_fini
2040584a g     F .text	00000014 __metal_driver_cpu_get_sw_interrupt_id
20405a54 g     F .text	00000020 __metal_driver_cpu_get_buserror
80000000 g       .data	00000000 metal_segment_data_target_start
20404202 g     F .text	0000002c __metal_interrupt_local_enable
20403fe8 g     F .text	00000034 __metal_driver_riscv_clint0_clear_interrupt
8000086c g     O .bss	00000004 currentPt
2040386a g     F .text	00000026 metal_tty_putc
20401306 g     F .text	0000004a timer_init
20405d92 g     F .text	00000018 __metal_plic0_default_handler
20402ce2  w    F .text	00000070 write
00000000 g       *ABS*	00000000 __tbss_size
80000060 g     O .data	0000000c __metal_dt_clock_0
00000800 g       *ABS*	00000000 __heap_size
20406112 g     F .text	00000030 __metal_driver_riscv_plic0_set_threshold
20404444 g     F .text	00000016 __metal_default_beu_handler
204003ac g     O .rodata	00000020 __sf_fake_stderr
204041e6 g     F .text	0000001c __metal_interrupt_external_disable
20407702 g     F .text	00000020 __metal_driver_sifive_uart0_get_interrupt_id
20405654 g     F .text	0000001c __metal_driver_riscv_cpu_controller_command_request
204052c6 g     F .text	000000e4 __metal_driver_riscv_cpu_controller_interrupt_init
204021e4 g     F .text	00000042 __sfputs_r
204059a2 g     F .text	00000046 __metal_driver_cpu_exception_register
20404166 g     F .text	00000018 __metal_interrupt_software_enable
20404790  w    F .text	00000096 metal_lc1_interrupt_vector_handler
20402666 g     F .text	0000001a memchr
204013e2 g     F .text	00000032 task1
2040179c g     F .text	000000a6 _free_r
800007d4 g     O .bss	00000004 _global_atexit
20405c58 g     F .text	00000062 __metal_driver_riscv_plic0_set_priority
2040505a g     F .text	00000058 __metal_controller_interrupt_vector_mode
20402ea0 g     F .text	000000c8 __call_exitprocs
800012d0 g       .stack	00000000 _sp
204002e0 g     O .init_array	00000004 _metal_tty_init_ptr
20400150 g     F .init	00000000 _start
20406398 g     F .text	00000084 __metal_driver_sifive_fe310_g000_hfrosc_get_rate_hz
204037e2 g     F .text	00000044 metal_timer_get_cyclecount
20402a96 g     F .text	0000002a _lseek
20405982 g     F .text	00000020 __metal_driver_cpu_controller_interrupt
20405a16 g     F .text	0000001e __metal_driver_cpu_get_exception_pc
204041ca g     F .text	0000001c __metal_interrupt_external_enable
20402e24 g     F .text	0000007c __register_exitproc
2040792a g     F .text	00000042 __metal_driver_sifive_uart0_putc
20405e56 g     F .text	0000015a __metal_driver_riscv_plic0_init
20406072 g     F .text	00000050 __metal_driver_riscv_plic0_enable
20406f48 g     F .text	0000002c __metal_driver_sifive_gpio0_output
20404a7e  w    F .text	00000096 metal_lc6_interrupt_vector_handler
2040411c g     F .text	0000001a __metal_myhart_id
2040751a g     F .text	0000002e __metal_driver_gpio_get_interrupt_id
80000870 g     O .bss	00000010 tcbs
204042b8  w    F .text	00000092 metal_software_interrupt_vector_handler
204055b8 g     F .text	0000002c __metal_driver_riscv_cpu_controller_interrupt_disable
204025a8 g     F .text	0000002e _close_r
20403608 g     F .text	0000002a metal_cpu_get_timer
204079c2 g     F .text	00000020 __metal_driver_sifive_uart0_get_baud_rate
204013aa g     F .text	00000038 task
20403bc4 g     F .text	000000da __metal_driver_riscv_clint0_register
800007ac g     O .data	00000008 __metal_dt_clint_2000000
20401b3a g     F .text	0000010a __swsetup_r
20401f10 g     F .text	0000009c __sfp
20407d1a g     F .text	0000004c metal_clock_set_rate_hz
204024ba g     F .text	00000030 __sread
20406e98 g     F .text	00000040 __metal_driver_sifive_gpio0_enable_input
204002bc  w    F .init	00000000 secondary_main
2040428a  w    F .text	0000002e metal_interrupt_vector_handler
204021b6 g     F .text	00000002 __malloc_lock
204077ce g     F .text	00000038 __metal_driver_sifive_uart0_rx_interrupt_disable
20401d8a g     F .text	00000064 _fflush_r
20405c1e g     F .text	0000003a __metal_plic0_get_threshold
20406c2e g     F .text	0000002e __metal_driver_sifive_fe310_g000_prci_get_reg
204003cc g     O .rodata	00000020 __sf_fake_stdin
204051bc g     F .text	000000bc __metal_local_interrupt_enable
20403ea8 g     F .text	00000140 __metal_driver_riscv_clint0_command_request
2040210e g     F .text	000000a8 memset
204049e8  w    F .text	00000096 metal_lc5_interrupt_vector_handler
20401414 g     F .text	0000003a main
800007c8 g       .data	00000000 metal_segment_data_target_end
204078b0 g     F .text	0000004a __metal_driver_sifive_uart0_set_rx_watermark
204010f4 g     O .rodata	00000008 __metal_driver_vtable_sifive_fe310_g000_hfrosc
2040585e g     F .text	00000062 __metal_driver_cpu_set_sw_ipi
20405922 g     F .text	00000060 __metal_driver_cpu_get_msip
20407dec g     F .text	00000018 metal_shutdown
80000000 g       .rodata	00000000 metal_segment_itim_target_end
20405a34 g     F .text	00000020 __metal_driver_cpu_set_exception_pc
20405b56 g     F .text	0000003c __metal_plic0_claim_interrupt
20407880 g     F .text	00000030 __metal_driver_sifive_uart0_get_tx_watermark
2040256e g     F .text	00000006 __sclose
20404e02  w    F .text	00000096 metal_lc12_interrupt_vector_handler
2040008a g     F .init	00000000 metal_mem_scrub
204016bc g     F .text	00000000 osSchedulerLaunch
20401842 g     F .text	000000de _malloc_r
20403cc6 g     F .text	0000001c __metal_driver_riscv_clint0_get_vector_mode
800007c4 g     O .data	00000004 __metal_dt_prci_10008000
204056e0 g     F .text	00000046 __metal_driver_cpu_timebase_get
20406206 g     F .text	0000009c __metal_driver_riscv_plic0_affinity_disable
20400000 g       .init	00000000 _enter
204036b0 g     F .text	0000001a metal_cpu_get_current_hartid
20406498 g     F .text	00000074 __metal_driver_sifive_fe310_g000_hfxosc_get_rate_hz
20407e80 g       .text	00000000 __metal_vector_table
20401118 g       *ABS*	00000000 metal_segment_itim_source_start
800007a8  w    O .data	00000004 __metal_cpu_table
20401368 g     F .text	00000042 delay
80000088 g     O .data	000003d0 __metal_dt_cpu_0_interrupt_controller
2040125c g     F .text	00000074 osKernelAddThreads
204002ba g     F .init	00000002 _fini
20401920 g     F .text	0000003e iprintf
80000000 g       .rodata	00000000 metal_segment_lim_target_start
204004b4 g     O .rodata	00000100 .hidden __clz_tab
20405cba g     F .text	00000034 __metal_driver_riscv_plic0_get_priority
2040033c g     F .ctors	0000002a use_hfxosc
20404136 g     F .text	00000018 __metal_interrupt_global_enable
20402d52 g     F .text	0000000a atexit
20402574 g     F .text	00000034 _write_r
20404196 g     F .text	0000001a __metal_interrupt_timer_enable
2040796c g     F .text	00000056 __metal_driver_sifive_uart0_getc
20403df0 g     F .text	000000b8 __metal_driver_riscv_clint0_disable
20402680 g     F .text	0000010c _printf_common
800007a0 g     O .data	00000004 _impure_ptr
2040578c g     F .text	00000076 __metal_driver_cpu_mtimecmp_set
20401c44 g     F .text	00000146 __sflush_r
20407dca g     F .text	00000022 __metal_shutdown_exit
20406142 g     F .text	00000028 __metal_driver_riscv_plic0_get_threshold
2040663a g     F .text	000000a4 __metal_driver_sifive_fe310_g000_pll_init
80000078 g     O .data	0000000c __metal_dt_clock_5
20406c5c g     F .text	00000038 __metal_driver_sifive_fe310_g000_prci_set_reg
20407f62 g     F .text	00000020 __metal_driver_fixed_clock_get_rate_hz
20403d3a g     F .text	000000b6 __metal_driver_riscv_clint0_enable
2040110c g     O .rodata	00000004 __metal_driver_vtable_sifive_test0
204014ca g     F .text	000000a2 handle_exception
20407fc0 g       *ABS*	00000000 metal_segment_data_source_start
20400134 g       .init	00000000 early_trap_vector
80001ad0 g       .heap	00000000 metal_segment_heap_target_end
204050b2 g     F .text	000000b2 __metal_controller_interrupt_vector
80000784 g     O .data	0000000c __metal_dt_clock_1
80000458 g     O .data	00000300 __metal_dt_interrupt_controller_c000000
20402016 g     F .text	0000005a __swhatbuf_r
2040703a g     F .text	00000046 __metal_driver_sifive_gpio0_output_clear
2040445a g     F .text	00000068 __metal_default_timer_handler
20402ce2 g     F .text	00000070 _write
20405daa g     F .text	000000ac __metal_plic0_handler
20404826  w    F .text	00000096 metal_lc2_interrupt_vector_handler
20404fc4  w    F .text	00000096 metal_lc15_interrupt_vector_handler
2040365c g     F .text	00000026 metal_cpu_interrupt_controller
20401222 g     F .text	0000003a osKernelStackInit
800007c0 g     O .data	00000004 __metal_dt_test_100000
80000880 g     O .bss	00000640 TCB_STACK
204024ea g     F .text	0000004e __swrite
20402d66 g     F .text	0000002a exit
20402226 g     F .text	00000294 _vfiprintf_r
20401fac g     F .text	0000006a _fwalk_reent
20407f82 g     F .text	00000024 __metal_driver_fixed_clock_set_rate_hz
20401118 g       *ABS*	00000000 metal_segment_lim_source_start
204003ec g     O .rodata	00000020 __sf_fake_stdout
800007bc g     O .data	00000004 __metal_dt_gpio_10012000
20404272 g     F .text	00000018 __metal_default_interrupt_handler
204038bc g     F .text	0000002e metal_uart_putc
20402ac0 g     F .text	0000002a _read
204037ce  w    F .text	00000014 metal_fini_run
20406f1e g     F .text	0000002a __metal_driver_sifive_gpio0_input
20404500 g     F .text	00000180 __metal_exception_handler
204046fa  w    F .text	00000096 metal_lc0_interrupt_vector_handler
20407fa6 g     F .text	00000014 _exit
20405726 g     F .text	00000066 __metal_driver_cpu_mtime_get
20402070 g     F .text	0000009e __smakebuf_r
20403c9e g     F .text	00000028 __metal_driver_riscv_clint0_vector_register
2040278c g     F .text	00000270 _printf_i
800007cc g     O .bss	00000004 __malloc_sbrk_start
20401772 g     F .text	0000002a clock
20404f2e  w    F .text	00000096 metal_lc14_interrupt_vector_handler
204010fc g     O .rodata	00000008 __metal_driver_vtable_sifive_fe310_g000_hfxosc
20403b3c g     F .text	00000088 __metal_driver_riscv_clint0_init
800007c8 g     O .bss	00000004 __malloc_free_list
20400310 g     F .ctors	0000002c metal_sifive_fe310_g000_pll_init
20402226 g     F .text	00000294 _vfprintf_r
2040581c g     F .text	00000014 __metal_driver_cpu_get_timer_interrupt_id
20405cee g     F .text	000000a4 __metal_plic0_enable
20400088  w      .init	00000000 __register_frame_info
2040641c g     F .text	00000022 __metal_driver_sifive_fe310_g000_hfrosc_set_rate_hz
20405830 g     F .text	0000001a __metal_driver_cpu_sw_controller_interrupt
2040422e g     F .text	0000002c __metal_interrupt_local_disable
2040417e g     F .text	00000018 __metal_interrupt_software_disable
20403890 g     F .text	0000002c metal_uart_init
80000778 g     O .data	0000000c __metal_dt_clock_3
20405bd8 g     F .text	00000046 __metal_plic0_set_threshold
2040616a g     F .text	0000009c __metal_driver_riscv_plic0_affinity_enable
20402a2e g     F .text	00000022 _close
20401104 g     O .rodata	00000008 __metal_driver_vtable_sifive_fe310_g000_prci
00000000 g       *ABS*	00000000 __metal_boot_hart
20405fb0 g     F .text	000000c2 __metal_driver_riscv_plic0_register



Disassembly of section .init:

20400000 <_enter>:
_enter():
C:/wsFreedomStudio/kernel/freedom-metal/src/entry.S:24
20400000:	5fc01197          	auipc	gp,0x5fc01
20400004:	fa018193          	addi	gp,gp,-96 # 80000fa0 <__global_pointer$>
C:/wsFreedomStudio/kernel/freedom-metal/src/entry.S:28
20400008:	00000297          	auipc	t0,0x0
2040000c:	01828293          	addi	t0,t0,24 # 20400020 <_enter+0x20>
C:/wsFreedomStudio/kernel/freedom-metal/src/entry.S:29
20400010:	30529073          	csrw	mtvec,t0
C:/wsFreedomStudio/kernel/freedom-metal/src/entry.S:31
20400014:	00100293          	li	t0,1
C:/wsFreedomStudio/kernel/freedom-metal/src/entry.S:32
20400018:	00028463          	beqz	t0,20400020 <_enter+0x20>
C:/wsFreedomStudio/kernel/freedom-metal/src/entry.S:34
2040001c:	7c105073          	csrwi	0x7c1,0
C:/wsFreedomStudio/kernel/freedom-metal/src/entry.S:39
20400020:	00000297          	auipc	t0,0x0
20400024:	11428293          	addi	t0,t0,276 # 20400134 <early_trap_vector>
C:/wsFreedomStudio/kernel/freedom-metal/src/entry.S:40
20400028:	30529073          	csrw	mtvec,t0
C:/wsFreedomStudio/kernel/freedom-metal/src/entry.S:48
2040002c:	00000113          	li	sp,0
C:/wsFreedomStudio/kernel/freedom-metal/src/entry.S:55
20400030:	00011463          	bnez	sp,20400038 <_enter+0x38>
C:/wsFreedomStudio/kernel/freedom-metal/src/entry.S:56
20400034:	33018113          	addi	sp,gp,816 # 800012d0 <_sp>
C:/wsFreedomStudio/kernel/freedom-metal/src/entry.S:59
20400038:	f1402573          	csrr	a0,mhartid
C:/wsFreedomStudio/kernel/freedom-metal/src/entry.S:60
2040003c:	4281                	li	t0,0
C:/wsFreedomStudio/kernel/freedom-metal/src/entry.S:61
2040003e:	40000313          	li	t1,1024
C:/wsFreedomStudio/kernel/freedom-metal/src/entry.S:63
20400042:	ff017113          	andi	sp,sp,-16
C:/wsFreedomStudio/kernel/freedom-metal/src/entry.S:64
20400046:	00a28563          	beq	t0,a0,20400050 <_enter+0x50>
C:/wsFreedomStudio/kernel/freedom-metal/src/entry.S:65
2040004a:	911a                	add	sp,sp,t1
C:/wsFreedomStudio/kernel/freedom-metal/src/entry.S:66
2040004c:	0285                	addi	t0,t0,1
C:/wsFreedomStudio/kernel/freedom-metal/src/entry.S:67
2040004e:	bfd5                	j	20400042 <_enter+0x42>
C:/wsFreedomStudio/kernel/freedom-metal/src/entry.S:76
20400050:	00000097          	auipc	ra,0x0
20400054:	07c08093          	addi	ra,ra,124 # 204000cc <__metal_before_start>
C:/wsFreedomStudio/kernel/freedom-metal/src/entry.S:77
20400058:	00008363          	beqz	ra,2040005e <_enter+0x5e>
C:/wsFreedomStudio/kernel/freedom-metal/src/entry.S:78
2040005c:	9082                	jalr	ra
C:/wsFreedomStudio/kernel/freedom-metal/src/entry.S:84
2040005e:	f1402573          	csrr	a0,mhartid
C:/wsFreedomStudio/kernel/freedom-metal/src/entry.S:85
20400062:	4581                	li	a1,0
C:/wsFreedomStudio/kernel/freedom-metal/src/entry.S:86
20400064:	4601                	li	a2,0
C:/wsFreedomStudio/kernel/freedom-metal/src/entry.S:87
20400066:	20ed                	jal	20400150 <_start>
C:/wsFreedomStudio/kernel/freedom-metal/src/entry.S:92
20400068:	00000093          	li	ra,0
C:/wsFreedomStudio/kernel/freedom-metal/src/entry.S:93
2040006c:	00008363          	beqz	ra,20400072 <_enter+0x72>
C:/wsFreedomStudio/kernel/freedom-metal/src/entry.S:94
20400070:	9082                	jalr	ra
C:/wsFreedomStudio/kernel/freedom-metal/src/entry.S:99
20400072:	00000297          	auipc	t0,0x0
20400076:	00c28293          	addi	t0,t0,12 # 2040007e <_enter+0x7e>
C:/wsFreedomStudio/kernel/freedom-metal/src/entry.S:100
2040007a:	30529073          	csrw	mtvec,t0
C:/wsFreedomStudio/kernel/freedom-metal/src/entry.S:102
2040007e:	00002303          	lw	t1,0(zero) # 0 <__metal_boot_hart>
C:/wsFreedomStudio/kernel/freedom-metal/src/entry.S:103
20400082:	bff5                	j	2040007e <_enter+0x7e>
20400084:	0000                	unimp
	...

20400088 <__register_frame_info>:
__register_frame_info():
C:/wsFreedomStudio/kernel/freedom-metal/src/entry.S:117
20400088:	8082                	ret

2040008a <metal_mem_scrub>:
metal_mem_scrub():
C:/wsFreedomStudio/kernel/freedom-metal/src/scrub.S:24
2040008a:	46a1                	li	a3,8
C:/wsFreedomStudio/kernel/freedom-metal/src/scrub.S:25
2040008c:	3006b373          	csrrc	t1,mstatus,a3
C:/wsFreedomStudio/kernel/freedom-metal/src/scrub.S:28
20400090:	4291                	li	t0,4
C:/wsFreedomStudio/kernel/freedom-metal/src/scrub.S:30
20400092:	0055c563          	blt	a1,t0,2040009c <metal_mem_scrub+0x12>
C:/wsFreedomStudio/kernel/freedom-metal/src/scrub.S:31
20400096:	00357613          	andi	a2,a0,3
C:/wsFreedomStudio/kernel/freedom-metal/src/scrub.S:32
2040009a:	ca11                	beqz	a2,204000ae <metal_mem_scrub+0x24>
C:/wsFreedomStudio/kernel/freedom-metal/src/scrub.S:34
2040009c:	00050023          	sb	zero,0(a0)
C:/wsFreedomStudio/kernel/freedom-metal/src/scrub.S:35
204000a0:	0505                	addi	a0,a0,1
C:/wsFreedomStudio/kernel/freedom-metal/src/scrub.S:36
204000a2:	15fd                	addi	a1,a1,-1
C:/wsFreedomStudio/kernel/freedom-metal/src/scrub.S:37
204000a4:	feb047e3          	bgtz	a1,20400092 <metal_mem_scrub+0x8>
C:/wsFreedomStudio/kernel/freedom-metal/src/scrub.S:38
204000a8:	30031073          	csrw	mstatus,t1
C:/wsFreedomStudio/kernel/freedom-metal/src/scrub.S:39
204000ac:	8082                	ret
C:/wsFreedomStudio/kernel/freedom-metal/src/scrub.S:41
204000ae:	00052023          	sw	zero,0(a0)
C:/wsFreedomStudio/kernel/freedom-metal/src/scrub.S:42
204000b2:	0511                	addi	a0,a0,4
C:/wsFreedomStudio/kernel/freedom-metal/src/scrub.S:43
204000b4:	15f1                	addi	a1,a1,-4
C:/wsFreedomStudio/kernel/freedom-metal/src/scrub.S:44
204000b6:	fcb04ee3          	bgtz	a1,20400092 <metal_mem_scrub+0x8>
C:/wsFreedomStudio/kernel/freedom-metal/src/scrub.S:45
204000ba:	30031073          	csrw	mstatus,t1
C:/wsFreedomStudio/kernel/freedom-metal/src/scrub.S:46
204000be:	8082                	ret

204000c0 <__metal_memory_scrub>:
__metal_memory_scrub():
C:/wsFreedomStudio/kernel/freedom-metal/src/scrub.S:74
204000c0:	00032023          	sw	zero,0(t1)
C:/wsFreedomStudio/kernel/freedom-metal/src/scrub.S:75
204000c4:	0311                	addi	t1,t1,4
C:/wsFreedomStudio/kernel/freedom-metal/src/scrub.S:76
204000c6:	fe734de3          	blt	t1,t2,204000c0 <__metal_memory_scrub>
C:/wsFreedomStudio/kernel/freedom-metal/src/scrub.S:82
204000ca:	8082                	ret

204000cc <__metal_before_start>:
__metal_before_start():
C:/wsFreedomStudio/kernel/freedom-metal/src/scrub.S:94
204000cc:	8406                	mv	s0,ra
C:/wsFreedomStudio/kernel/freedom-metal/src/scrub.S:96
204000ce:	dfc00297          	auipc	t0,0xdfc00
204000d2:	f3228293          	addi	t0,t0,-206 # 0 <__metal_boot_hart>
C:/wsFreedomStudio/kernel/freedom-metal/src/scrub.S:97
204000d6:	04028c63          	beqz	t0,2040012e <skip_scrub>
C:/wsFreedomStudio/kernel/freedom-metal/src/scrub.S:99
204000da:	dfc00297          	auipc	t0,0xdfc00
204000de:	f2628293          	addi	t0,t0,-218 # 0 <__metal_boot_hart>
C:/wsFreedomStudio/kernel/freedom-metal/src/scrub.S:100
204000e2:	f14027f3          	csrr	a5,mhartid
C:/wsFreedomStudio/kernel/freedom-metal/src/scrub.S:103
204000e6:	46a1                	li	a3,8
C:/wsFreedomStudio/kernel/freedom-metal/src/scrub.S:104
204000e8:	3006b073          	csrc	mstatus,a3
C:/wsFreedomStudio/kernel/freedom-metal/src/scrub.S:107
204000ec:	830a                	mv	t1,sp
C:/wsFreedomStudio/kernel/freedom-metal/src/scrub.S:108
204000ee:	dfc00397          	auipc	t2,0xdfc00
204000f2:	31238393          	addi	t2,t2,786 # 400 <__stack_size>
C:/wsFreedomStudio/kernel/freedom-metal/src/scrub.S:109
204000f6:	938a                	add	t2,t2,sp
C:/wsFreedomStudio/kernel/freedom-metal/src/scrub.S:110
204000f8:	00730363          	beq	t1,t2,204000fe <__metal_before_start+0x32>
C:/wsFreedomStudio/kernel/freedom-metal/src/scrub.S:111
204000fc:	37d1                	jal	204000c0 <__metal_memory_scrub>
C:/wsFreedomStudio/kernel/freedom-metal/src/scrub.S:113
204000fe:	02579863          	bne	a5,t0,2040012e <skip_scrub>
C:/wsFreedomStudio/kernel/freedom-metal/src/scrub.S:116
20400102:	5fc00317          	auipc	t1,0x5fc00
20400106:	efe30313          	addi	t1,t1,-258 # 80000000 <impure_data>
C:/wsFreedomStudio/kernel/freedom-metal/src/scrub.S:117
2040010a:	5fc00397          	auipc	t2,0x5fc00
2040010e:	6be38393          	addi	t2,t2,1726 # 800007c8 <__malloc_free_list>
C:/wsFreedomStudio/kernel/freedom-metal/src/scrub.S:118
20400112:	00730363          	beq	t1,t2,20400118 <__metal_before_start+0x4c>
C:/wsFreedomStudio/kernel/freedom-metal/src/scrub.S:119
20400116:	376d                	jal	204000c0 <__metal_memory_scrub>
C:/wsFreedomStudio/kernel/freedom-metal/src/scrub.S:122
20400118:	5fc00317          	auipc	t1,0x5fc00
2040011c:	ee830313          	addi	t1,t1,-280 # 80000000 <impure_data>
C:/wsFreedomStudio/kernel/freedom-metal/src/scrub.S:123
20400120:	5fc00397          	auipc	t2,0x5fc00
20400124:	ee038393          	addi	t2,t2,-288 # 80000000 <impure_data>
C:/wsFreedomStudio/kernel/freedom-metal/src/scrub.S:124
20400128:	00730363          	beq	t1,t2,2040012e <skip_scrub>
C:/wsFreedomStudio/kernel/freedom-metal/src/scrub.S:125
2040012c:	3f51                	jal	204000c0 <__metal_memory_scrub>

2040012e <skip_scrub>:
skip_scrub():
C:/wsFreedomStudio/kernel/freedom-metal/src/scrub.S:129
2040012e:	80a2                	mv	ra,s0
C:/wsFreedomStudio/kernel/freedom-metal/src/scrub.S:130
20400130:	8082                	ret
	...

20400134 <early_trap_vector>:
early_trap_vector():
C:/wsFreedomStudio/kernel/freedom-metal/src/trap.S:64
20400134:	342022f3          	csrr	t0,mcause
C:/wsFreedomStudio/kernel/freedom-metal/src/trap.S:65
20400138:	34102373          	csrr	t1,mepc
C:/wsFreedomStudio/kernel/freedom-metal/src/trap.S:66
2040013c:	343023f3          	csrr	t2,mtval
C:/wsFreedomStudio/kernel/freedom-metal/src/trap.S:67
20400140:	bfd5                	j	20400134 <early_trap_vector>

20400142 <__metal_synchronize_harts>:
__metal_synchronize_harts():
C:/wsFreedomStudio/kernel/freedom-metal/src/synchronize_harts.c:19
20400142:	1141                	addi	sp,sp,-16
20400144:	c622                	sw	s0,12(sp)
20400146:	0800                	addi	s0,sp,16
C:/wsFreedomStudio/kernel/freedom-metal/src/synchronize_harts.c:66
20400148:	0001                	nop
2040014a:	4432                	lw	s0,12(sp)
2040014c:	0141                	addi	sp,sp,16
2040014e:	8082                	ret

20400150 <_start>:
_start():
C:/wsFreedomStudio/kernel/freedom-metal/gloss/crt0.S:36
20400150:	8406                	mv	s0,ra
C:/wsFreedomStudio/kernel/freedom-metal/gloss/crt0.S:44
20400152:	5fc01197          	auipc	gp,0x5fc01
20400156:	e4e18193          	addi	gp,gp,-434 # 80000fa0 <__global_pointer$>
C:/wsFreedomStudio/kernel/freedom-metal/gloss/crt0.S:50
2040015a:	00000293          	li	t0,0
C:/wsFreedomStudio/kernel/freedom-metal/gloss/crt0.S:51
2040015e:	0e551163          	bne	a0,t0,20400240 <_skip_init>
C:/wsFreedomStudio/kernel/freedom-metal/gloss/crt0.S:60
20400162:	00008297          	auipc	t0,0x8
20400166:	e5e28293          	addi	t0,t0,-418 # 20407fc0 <metal_segment_data_source_start>
C:/wsFreedomStudio/kernel/freedom-metal/gloss/crt0.S:61
2040016a:	5fc00317          	auipc	t1,0x5fc00
2040016e:	e9630313          	addi	t1,t1,-362 # 80000000 <impure_data>
C:/wsFreedomStudio/kernel/freedom-metal/gloss/crt0.S:62
20400172:	5fc00397          	auipc	t2,0x5fc00
20400176:	65638393          	addi	t2,t2,1622 # 800007c8 <__malloc_free_list>
C:/wsFreedomStudio/kernel/freedom-metal/gloss/crt0.S:64
2040017a:	00628c63          	beq	t0,t1,20400192 <_start+0x42>
C:/wsFreedomStudio/kernel/freedom-metal/gloss/crt0.S:65
2040017e:	00735a63          	bge	t1,t2,20400192 <_start+0x42>
C:/wsFreedomStudio/kernel/freedom-metal/gloss/crt0.S:69
20400182:	0002a503          	lw	a0,0(t0)
C:/wsFreedomStudio/kernel/freedom-metal/gloss/crt0.S:70
20400186:	0291                	addi	t0,t0,4
C:/wsFreedomStudio/kernel/freedom-metal/gloss/crt0.S:71
20400188:	00a32023          	sw	a0,0(t1)
C:/wsFreedomStudio/kernel/freedom-metal/gloss/crt0.S:72
2040018c:	0311                	addi	t1,t1,4
C:/wsFreedomStudio/kernel/freedom-metal/gloss/crt0.S:73
2040018e:	fe734ae3          	blt	t1,t2,20400182 <_start+0x32>
C:/wsFreedomStudio/kernel/freedom-metal/gloss/crt0.S:84
20400192:	00001297          	auipc	t0,0x1
20400196:	f8628293          	addi	t0,t0,-122 # 20401118 <metal_segment_itim_source_start>
C:/wsFreedomStudio/kernel/freedom-metal/gloss/crt0.S:85
2040019a:	5fc00317          	auipc	t1,0x5fc00
2040019e:	e6630313          	addi	t1,t1,-410 # 80000000 <impure_data>
C:/wsFreedomStudio/kernel/freedom-metal/gloss/crt0.S:86
204001a2:	5fc00397          	auipc	t2,0x5fc00
204001a6:	e5e38393          	addi	t2,t2,-418 # 80000000 <impure_data>
C:/wsFreedomStudio/kernel/freedom-metal/gloss/crt0.S:88
204001aa:	00628c63          	beq	t0,t1,204001c2 <_start+0x72>
C:/wsFreedomStudio/kernel/freedom-metal/gloss/crt0.S:89
204001ae:	00735a63          	bge	t1,t2,204001c2 <_start+0x72>
C:/wsFreedomStudio/kernel/freedom-metal/gloss/crt0.S:93
204001b2:	0002a503          	lw	a0,0(t0)
C:/wsFreedomStudio/kernel/freedom-metal/gloss/crt0.S:94
204001b6:	0291                	addi	t0,t0,4
C:/wsFreedomStudio/kernel/freedom-metal/gloss/crt0.S:95
204001b8:	00a32023          	sw	a0,0(t1)
C:/wsFreedomStudio/kernel/freedom-metal/gloss/crt0.S:96
204001bc:	0311                	addi	t1,t1,4
C:/wsFreedomStudio/kernel/freedom-metal/gloss/crt0.S:97
204001be:	fe734ae3          	blt	t1,t2,204001b2 <_start+0x62>
C:/wsFreedomStudio/kernel/freedom-metal/gloss/crt0.S:109
204001c2:	0000100f          	fence.i
C:/wsFreedomStudio/kernel/freedom-metal/gloss/crt0.S:114
204001c6:	00001297          	auipc	t0,0x1
204001ca:	f5228293          	addi	t0,t0,-174 # 20401118 <metal_segment_itim_source_start>
C:/wsFreedomStudio/kernel/freedom-metal/gloss/crt0.S:115
204001ce:	5fc00317          	auipc	t1,0x5fc00
204001d2:	e3230313          	addi	t1,t1,-462 # 80000000 <impure_data>
C:/wsFreedomStudio/kernel/freedom-metal/gloss/crt0.S:116
204001d6:	5fc00397          	auipc	t2,0x5fc00
204001da:	e2a38393          	addi	t2,t2,-470 # 80000000 <impure_data>
C:/wsFreedomStudio/kernel/freedom-metal/gloss/crt0.S:118
204001de:	00628c63          	beq	t0,t1,204001f6 <_start+0xa6>
C:/wsFreedomStudio/kernel/freedom-metal/gloss/crt0.S:119
204001e2:	00735a63          	bge	t1,t2,204001f6 <_start+0xa6>
C:/wsFreedomStudio/kernel/freedom-metal/gloss/crt0.S:123
204001e6:	0002a503          	lw	a0,0(t0)
C:/wsFreedomStudio/kernel/freedom-metal/gloss/crt0.S:124
204001ea:	0291                	addi	t0,t0,4
C:/wsFreedomStudio/kernel/freedom-metal/gloss/crt0.S:125
204001ec:	00a32023          	sw	a0,0(t1)
C:/wsFreedomStudio/kernel/freedom-metal/gloss/crt0.S:126
204001f0:	0311                	addi	t1,t1,4
C:/wsFreedomStudio/kernel/freedom-metal/gloss/crt0.S:127
204001f2:	fe734ae3          	blt	t1,t2,204001e6 <_start+0x96>
C:/wsFreedomStudio/kernel/freedom-metal/gloss/crt0.S:139
204001f6:	0000100f          	fence.i
C:/wsFreedomStudio/kernel/freedom-metal/gloss/crt0.S:142
204001fa:	5fc00317          	auipc	t1,0x5fc00
204001fe:	5ce30313          	addi	t1,t1,1486 # 800007c8 <__malloc_free_list>
C:/wsFreedomStudio/kernel/freedom-metal/gloss/crt0.S:143
20400202:	f2418393          	addi	t2,gp,-220 # 80000ec4 <metal_segment_bss_target_end>
C:/wsFreedomStudio/kernel/freedom-metal/gloss/crt0.S:145
20400206:	00735763          	bge	t1,t2,20400214 <_start+0xc4>
C:/wsFreedomStudio/kernel/freedom-metal/gloss/crt0.S:149
2040020a:	00032023          	sw	zero,0(t1)
C:/wsFreedomStudio/kernel/freedom-metal/gloss/crt0.S:150
2040020e:	0311                	addi	t1,t1,4
C:/wsFreedomStudio/kernel/freedom-metal/gloss/crt0.S:151
20400210:	fe734de3          	blt	t1,t2,2040020a <_start+0xba>
C:/wsFreedomStudio/kernel/freedom-metal/gloss/crt0.S:161
20400214:	5fc00217          	auipc	tp,0x5fc00
20400218:	5b420213          	addi	tp,tp,1460 # 800007c8 <__malloc_free_list>
C:/wsFreedomStudio/kernel/freedom-metal/gloss/crt0.S:166
2040021c:	c211                	beqz	a2,20400220 <_start+0xd0>
C:/wsFreedomStudio/kernel/freedom-metal/gloss/crt0.S:167
2040021e:	9602                	jalr	a2
C:/wsFreedomStudio/kernel/freedom-metal/gloss/crt0.S:171
20400220:	00003517          	auipc	a0,0x3
20400224:	b7050513          	addi	a0,a0,-1168 # 20402d90 <__libc_fini_array>
C:/wsFreedomStudio/kernel/freedom-metal/gloss/crt0.S:172
20400228:	32b020ef          	jal	ra,20402d52 <atexit>
C:/wsFreedomStudio/kernel/freedom-metal/gloss/crt0.S:173
2040022c:	39b020ef          	jal	ra,20402dc6 <__libc_init_array>
C:/wsFreedomStudio/kernel/freedom-metal/gloss/crt0.S:177
20400230:	00003517          	auipc	a0,0x3
20400234:	59e50513          	addi	a0,a0,1438 # 204037ce <metal_fini_run>
C:/wsFreedomStudio/kernel/freedom-metal/gloss/crt0.S:178
20400238:	31b020ef          	jal	ra,20402d52 <atexit>
C:/wsFreedomStudio/kernel/freedom-metal/gloss/crt0.S:179
2040023c:	57e030ef          	jal	ra,204037ba <metal_init_run>

20400240 <_skip_init>:
_skip_init():
C:/wsFreedomStudio/kernel/freedom-metal/gloss/crt0.S:185
20400240:	3709                	jal	20400142 <__metal_synchronize_harts>
C:/wsFreedomStudio/kernel/freedom-metal/gloss/crt0.S:188
20400242:	56fd                	li	a3,-1
C:/wsFreedomStudio/kernel/freedom-metal/gloss/crt0.S:189
20400244:	3046b073          	csrc	mie,a3
C:/wsFreedomStudio/kernel/freedom-metal/gloss/crt0.S:190
20400248:	3446b073          	csrc	mip,a3
C:/wsFreedomStudio/kernel/freedom-metal/gloss/crt0.S:194
2040024c:	301027f3          	csrr	a5,misa
C:/wsFreedomStudio/kernel/freedom-metal/gloss/crt0.S:195
20400250:	00042737          	lui	a4,0x42
C:/wsFreedomStudio/kernel/freedom-metal/gloss/crt0.S:196
20400254:	8f7d                	and	a4,a4,a5
C:/wsFreedomStudio/kernel/freedom-metal/gloss/crt0.S:197
20400256:	c709                	beqz	a4,20400260 <_skip_init+0x20>
C:/wsFreedomStudio/kernel/freedom-metal/gloss/crt0.S:198
20400258:	3036b073          	csrc	mideleg,a3
C:/wsFreedomStudio/kernel/freedom-metal/gloss/crt0.S:199
2040025c:	3026b073          	csrc	medeleg,a3
C:/wsFreedomStudio/kernel/freedom-metal/gloss/crt0.S:203
20400260:	00040737          	lui	a4,0x40
C:/wsFreedomStudio/kernel/freedom-metal/gloss/crt0.S:204
20400264:	8f7d                	and	a4,a4,a5
C:/wsFreedomStudio/kernel/freedom-metal/gloss/crt0.S:205
20400266:	c319                	beqz	a4,2040026c <_skip_init+0x2c>
C:/wsFreedomStudio/kernel/freedom-metal/gloss/crt0.S:206
20400268:	1806b073          	csrc	satp,a3
C:/wsFreedomStudio/kernel/freedom-metal/gloss/crt0.S:210
2040026c:	6741                	lui	a4,0x10
2040026e:	02870713          	addi	a4,a4,40 # 10028 <__heap_size+0xf828>
C:/wsFreedomStudio/kernel/freedom-metal/gloss/crt0.S:211
20400272:	8ff9                	and	a5,a5,a4
C:/wsFreedomStudio/kernel/freedom-metal/gloss/crt0.S:212
20400274:	cb89                	beqz	a5,20400286 <_skip_init+0x46>
C:/wsFreedomStudio/kernel/freedom-metal/gloss/crt0.S:213
20400276:	300027f3          	csrr	a5,mstatus
C:/wsFreedomStudio/kernel/freedom-metal/gloss/crt0.S:214
2040027a:	6709                	lui	a4,0x2
C:/wsFreedomStudio/kernel/freedom-metal/gloss/crt0.S:215
2040027c:	8fd9                	or	a5,a5,a4
C:/wsFreedomStudio/kernel/freedom-metal/gloss/crt0.S:216
2040027e:	30079073          	csrw	mstatus,a5
C:/wsFreedomStudio/kernel/freedom-metal/gloss/crt0.S:217
20400282:	00305073          	csrwi	fcsr,0
C:/wsFreedomStudio/kernel/freedom-metal/gloss/crt0.S:221
20400286:	301027f3          	csrr	a5,misa
C:/wsFreedomStudio/kernel/freedom-metal/gloss/crt0.S:222
2040028a:	00200737          	lui	a4,0x200
C:/wsFreedomStudio/kernel/freedom-metal/gloss/crt0.S:223
2040028e:	8ff9                	and	a5,a5,a4
C:/wsFreedomStudio/kernel/freedom-metal/gloss/crt0.S:224
20400290:	c799                	beqz	a5,2040029e <_skip_init+0x5e>
C:/wsFreedomStudio/kernel/freedom-metal/gloss/crt0.S:225
20400292:	300027f3          	csrr	a5,mstatus
C:/wsFreedomStudio/kernel/freedom-metal/gloss/crt0.S:226
20400296:	2007e793          	ori	a5,a5,512
C:/wsFreedomStudio/kernel/freedom-metal/gloss/crt0.S:227
2040029a:	30079073          	csrw	mstatus,a5
C:/wsFreedomStudio/kernel/freedom-metal/gloss/crt0.S:233
2040029e:	4505                	li	a0,1
C:/wsFreedomStudio/kernel/freedom-metal/gloss/crt0.S:234
204002a0:	00000597          	auipc	a1,0x0
204002a4:	20058593          	addi	a1,a1,512 # 204004a0 <argv>
C:/wsFreedomStudio/kernel/freedom-metal/gloss/crt0.S:235
204002a8:	00000617          	auipc	a2,0x0
204002ac:	1fc60613          	addi	a2,a2,508 # 204004a4 <envp>
C:/wsFreedomStudio/kernel/freedom-metal/gloss/crt0.S:236
204002b0:	2031                	jal	204002bc <secondary_main>
C:/wsFreedomStudio/kernel/freedom-metal/gloss/crt0.S:242
204002b2:	2b5020ef          	jal	ra,20402d66 <exit>
C:/wsFreedomStudio/kernel/freedom-metal/gloss/crt0.S:247
204002b6:	80a2                	mv	ra,s0
C:/wsFreedomStudio/kernel/freedom-metal/gloss/crt0.S:248
204002b8:	8082                	ret

204002ba <_fini>:
_init():
C:/wsFreedomStudio/kernel/freedom-metal/gloss/crt0.S:260
204002ba:	8082                	ret

204002bc <secondary_main>:
secondary_main():
C:/wsFreedomStudio/kernel/freedom-metal/gloss/crt0.S:271
204002bc:	1141                	addi	sp,sp,-16
C:/wsFreedomStudio/kernel/freedom-metal/gloss/crt0.S:273
204002be:	c206                	sw	ra,4(sp)
C:/wsFreedomStudio/kernel/freedom-metal/gloss/crt0.S:277
204002c0:	f14022f3          	csrr	t0,mhartid
C:/wsFreedomStudio/kernel/freedom-metal/gloss/crt0.S:278
204002c4:	00000313          	li	t1,0
C:/wsFreedomStudio/kernel/freedom-metal/gloss/crt0.S:279
204002c8:	00628563          	beq	t0,t1,204002d2 <secondary_main+0x16>
C:/wsFreedomStudio/kernel/freedom-metal/gloss/crt0.S:281
204002cc:	10500073          	wfi
C:/wsFreedomStudio/kernel/freedom-metal/gloss/crt0.S:282
204002d0:	bff5                	j	204002cc <secondary_main+0x10>
C:/wsFreedomStudio/kernel/freedom-metal/gloss/crt0.S:284
204002d2:	142010ef          	jal	ra,20401414 <main>
C:/wsFreedomStudio/kernel/freedom-metal/gloss/crt0.S:286
204002d6:	4092                	lw	ra,4(sp)
C:/wsFreedomStudio/kernel/freedom-metal/gloss/crt0.S:290
204002d8:	0141                	addi	sp,sp,16
C:/wsFreedomStudio/kernel/freedom-metal/gloss/crt0.S:291
204002da:	8082                	ret

Disassembly of section .ctors:

204002ec <metal_tty_init>:
metal_tty_init():
C:/wsFreedomStudio/kernel/freedom-metal/src/tty.c:28
204002ec:	1141                	addi	sp,sp,-16
204002ee:	c606                	sw	ra,12(sp)
204002f0:	c422                	sw	s0,8(sp)
204002f2:	0800                	addi	s0,sp,16
C:/wsFreedomStudio/kernel/freedom-metal/src/tty.c:29
204002f4:	67f1                	lui	a5,0x1c
204002f6:	20078593          	addi	a1,a5,512 # 1c200 <__heap_size+0x1ba00>
204002fa:	800007b7          	lui	a5,0x80000
204002fe:	75878513          	addi	a0,a5,1880 # 80000758 <metal_segment_heap_target_end+0xffffec88>
20400302:	58e030ef          	jal	ra,20403890 <metal_uart_init>
C:/wsFreedomStudio/kernel/freedom-metal/src/tty.c:30
20400306:	0001                	nop
20400308:	40b2                	lw	ra,12(sp)
2040030a:	4422                	lw	s0,8(sp)
2040030c:	0141                	addi	sp,sp,16
2040030e:	8082                	ret

20400310 <metal_sifive_fe310_g000_pll_init>:
metal_sifive_fe310_g000_pll_init():
C:/wsFreedomStudio/kernel/freedom-metal/src/drivers/sifive_fe310-g000_pll.c:151
20400310:	1101                	addi	sp,sp,-32
20400312:	ce06                	sw	ra,28(sp)
20400314:	cc22                	sw	s0,24(sp)
20400316:	1000                	addi	s0,sp,32
C:/wsFreedomStudio/kernel/freedom-metal/src/drivers/sifive_fe310-g000_pll.c:152
20400318:	296060ef          	jal	ra,204065ae <__metal_driver_sifive_fe310_g000_pll_init_rate>
2040031c:	fea42623          	sw	a0,-20(s0)
C:/wsFreedomStudio/kernel/freedom-metal/src/drivers/sifive_fe310-g000_pll.c:154
20400320:	fec42783          	lw	a5,-20(s0)
20400324:	c799                	beqz	a5,20400332 <metal_sifive_fe310_g000_pll_init+0x22>
C:/wsFreedomStudio/kernel/freedom-metal/src/drivers/sifive_fe310-g000_pll.c:155
20400326:	800007b7          	lui	a5,0x80000
2040032a:	79078513          	addi	a0,a5,1936 # 80000790 <metal_segment_heap_target_end+0xffffecc0>
2040032e:	30c060ef          	jal	ra,2040663a <__metal_driver_sifive_fe310_g000_pll_init>
C:/wsFreedomStudio/kernel/freedom-metal/src/drivers/sifive_fe310-g000_pll.c:157
20400332:	0001                	nop
20400334:	40f2                	lw	ra,28(sp)
20400336:	4462                	lw	s0,24(sp)
20400338:	6105                	addi	sp,sp,32
2040033a:	8082                	ret

2040033c <use_hfxosc>:
use_hfxosc():
C:/wsFreedomStudio/kernel/freedom-metal/src/drivers/sifive_fe310-g000_pll.c:389
2040033c:	1101                	addi	sp,sp,-32
2040033e:	ce06                	sw	ra,28(sp)
20400340:	cc22                	sw	s0,24(sp)
20400342:	1000                	addi	s0,sp,32
C:/wsFreedomStudio/kernel/freedom-metal/src/drivers/sifive_fe310-g000_pll.c:390
20400344:	26a060ef          	jal	ra,204065ae <__metal_driver_sifive_fe310_g000_pll_init_rate>
20400348:	fea42623          	sw	a0,-20(s0)
C:/wsFreedomStudio/kernel/freedom-metal/src/drivers/sifive_fe310-g000_pll.c:391
2040034c:	fec42583          	lw	a1,-20(s0)
20400350:	800007b7          	lui	a5,0x80000
20400354:	79078513          	addi	a0,a5,1936 # 80000790 <metal_segment_heap_target_end+0xffffecc0>
20400358:	1c3070ef          	jal	ra,20407d1a <metal_clock_set_rate_hz>
C:/wsFreedomStudio/kernel/freedom-metal/src/drivers/sifive_fe310-g000_pll.c:393
2040035c:	0001                	nop
2040035e:	40f2                	lw	ra,28(sp)
20400360:	4462                	lw	s0,24(sp)
20400362:	6105                	addi	sp,sp,32
20400364:	8082                	ret

Disassembly of section .text:

20401180 <r_mie>:
r_mie():
C:\Users\jjrh\Dropbox\Telecom\Tesis\Source\kernel_sifive\kernel_semaphore\src/riscv.h:99

// Machine-mode Interrupt Enable
#define MIE_MEIE (1L << 11)  // external
#define MIE_MTIE (1L << 7)   // timer
#define MIE_MSIE (1L << 3)   // software
static inline uint32_t r_mie() {
20401180:	1101                	addi	sp,sp,-32
20401182:	ce22                	sw	s0,28(sp)
20401184:	1000                	addi	s0,sp,32
C:\Users\jjrh\Dropbox\Telecom\Tesis\Source\kernel_sifive\kernel_semaphore\src/riscv.h:101
    uint32_t x;
    asm volatile("csrr %0, mie" : "=r"(x));
20401186:	304027f3          	csrr	a5,mie
2040118a:	fef42623          	sw	a5,-20(s0)
C:\Users\jjrh\Dropbox\Telecom\Tesis\Source\kernel_sifive\kernel_semaphore\src/riscv.h:102
    return x;
2040118e:	fec42783          	lw	a5,-20(s0)
C:\Users\jjrh\Dropbox\Telecom\Tesis\Source\kernel_sifive\kernel_semaphore\src/riscv.h:103
}
20401192:	853e                	mv	a0,a5
20401194:	4472                	lw	s0,28(sp)
20401196:	6105                	addi	sp,sp,32
20401198:	8082                	ret

2040119a <w_mie>:
w_mie():
C:\Users\jjrh\Dropbox\Telecom\Tesis\Source\kernel_sifive\kernel_semaphore\src/riscv.h:105

static inline void w_mie(uint32_t x) {
2040119a:	1101                	addi	sp,sp,-32
2040119c:	ce22                	sw	s0,28(sp)
2040119e:	1000                	addi	s0,sp,32
204011a0:	fea42623          	sw	a0,-20(s0)
C:\Users\jjrh\Dropbox\Telecom\Tesis\Source\kernel_sifive\kernel_semaphore\src/riscv.h:106
    asm volatile("csrw mie, %0" : : "r"(x));
204011a4:	fec42783          	lw	a5,-20(s0)
204011a8:	30479073          	csrw	mie,a5
C:\Users\jjrh\Dropbox\Telecom\Tesis\Source\kernel_sifive\kernel_semaphore\src/riscv.h:107
}
204011ac:	0001                	nop
204011ae:	4472                	lw	s0,28(sp)
204011b0:	6105                	addi	sp,sp,32
204011b2:	8082                	ret

204011b4 <w_mtvec>:
w_mtvec():
C:\Users\jjrh\Dropbox\Telecom\Tesis\Source\kernel_sifive\kernel_semaphore\src/riscv.h:157
    asm volatile("csrr %0, stvec" : "=r"(x));
    return x;
}

// Machine-mode interrupt vector
static inline void w_mtvec(uint32_t x) {
204011b4:	1101                	addi	sp,sp,-32
204011b6:	ce22                	sw	s0,28(sp)
204011b8:	1000                	addi	s0,sp,32
204011ba:	fea42623          	sw	a0,-20(s0)
C:\Users\jjrh\Dropbox\Telecom\Tesis\Source\kernel_sifive\kernel_semaphore\src/riscv.h:158
    asm volatile("csrw mtvec, %0" : : "r"(x));
204011be:	fec42783          	lw	a5,-20(s0)
204011c2:	30579073          	csrw	mtvec,a5
C:\Users\jjrh\Dropbox\Telecom\Tesis\Source\kernel_sifive\kernel_semaphore\src/riscv.h:159
}
204011c6:	0001                	nop
204011c8:	4472                	lw	s0,28(sp)
204011ca:	6105                	addi	sp,sp,32
204011cc:	8082                	ret

204011ce <intr_on>:
intr_on():
C:\Users\jjrh\Dropbox\Telecom\Tesis\Source\kernel_sifive\kernel_semaphore\src/riscv.h:224
//Interrupts on and off by JJRH
#define INTERRUPT_ON (1 << 7)
#define INTERRUPT_OFF (0 << 7)

// enable device interrupts by JJRH
static inline void intr_on() {
204011ce:	1101                	addi	sp,sp,-32
204011d0:	ce06                	sw	ra,28(sp)
204011d2:	cc22                	sw	s0,24(sp)
204011d4:	1000                	addi	s0,sp,32
C:\Users\jjrh\Dropbox\Telecom\Tesis\Source\kernel_sifive\kernel_semaphore\src/riscv.h:225
	uint32_t mie = r_mie();
204011d6:	376d                	jal	20401180 <r_mie>
204011d8:	fea42623          	sw	a0,-20(s0)
C:\Users\jjrh\Dropbox\Telecom\Tesis\Source\kernel_sifive\kernel_semaphore\src/riscv.h:226
	mie |= INTERRUPT_ON;
204011dc:	fec42783          	lw	a5,-20(s0)
204011e0:	0807e793          	ori	a5,a5,128
204011e4:	fef42623          	sw	a5,-20(s0)
C:\Users\jjrh\Dropbox\Telecom\Tesis\Source\kernel_sifive\kernel_semaphore\src/riscv.h:227
	asm volatile ("csrsi mstatus, 8");
204011e8:	30046073          	csrsi	mstatus,8
C:\Users\jjrh\Dropbox\Telecom\Tesis\Source\kernel_sifive\kernel_semaphore\src/riscv.h:228
	w_mie(mie);
204011ec:	fec42503          	lw	a0,-20(s0)
204011f0:	376d                	jal	2040119a <w_mie>
C:\Users\jjrh\Dropbox\Telecom\Tesis\Source\kernel_sifive\kernel_semaphore\src/riscv.h:229
}
204011f2:	0001                	nop
204011f4:	40f2                	lw	ra,28(sp)
204011f6:	4462                	lw	s0,24(sp)
204011f8:	6105                	addi	sp,sp,32
204011fa:	8082                	ret

204011fc <intr_off>:
intr_off():
C:\Users\jjrh\Dropbox\Telecom\Tesis\Source\kernel_sifive\kernel_semaphore\src/riscv.h:240

// disable device interrupts
//static inline void intr_off() { w_sstatus(r_sstatus() & ~SSTATUS_SIE); }

// disable device interrupts  by JJRH
static inline void intr_off() {
204011fc:	1101                	addi	sp,sp,-32
204011fe:	ce06                	sw	ra,28(sp)
20401200:	cc22                	sw	s0,24(sp)
20401202:	1000                	addi	s0,sp,32
C:\Users\jjrh\Dropbox\Telecom\Tesis\Source\kernel_sifive\kernel_semaphore\src/riscv.h:241
	uint32_t mie = r_mie();
20401204:	3fb5                	jal	20401180 <r_mie>
20401206:	fea42623          	sw	a0,-20(s0)
C:\Users\jjrh\Dropbox\Telecom\Tesis\Source\kernel_sifive\kernel_semaphore\src/riscv.h:242
	mie &= INTERRUPT_OFF;
2040120a:	fe042623          	sw	zero,-20(s0)
C:\Users\jjrh\Dropbox\Telecom\Tesis\Source\kernel_sifive\kernel_semaphore\src/riscv.h:243
	asm volatile ("csrsi mstatus, 8");
2040120e:	30046073          	csrsi	mstatus,8
C:\Users\jjrh\Dropbox\Telecom\Tesis\Source\kernel_sifive\kernel_semaphore\src/riscv.h:244
	w_mie(mie);
20401212:	fec42503          	lw	a0,-20(s0)
20401216:	3751                	jal	2040119a <w_mie>
C:\Users\jjrh\Dropbox\Telecom\Tesis\Source\kernel_sifive\kernel_semaphore\src/riscv.h:245
}
20401218:	0001                	nop
2040121a:	40f2                	lw	ra,28(sp)
2040121c:	4462                	lw	s0,24(sp)
2040121e:	6105                	addi	sp,sp,32
20401220:	8082                	ret

20401222 <osKernelStackInit>:
osKernelStackInit():
C:\Users\jjrh\Dropbox\Telecom\Tesis\Source\kernel_sifive\kernel_semaphore\src/kernel.c:32
typedef struct tcb tcb_t;
tcb_t tcbs[NUM_OF_THREADS];
tcb_t *currentPt;
int32_t TCB_STACK[NUM_OF_THREADS][STACKSIZE];

void osKernelStackInit(int i){
20401222:	1101                	addi	sp,sp,-32
20401224:	ce22                	sw	s0,28(sp)
20401226:	1000                	addi	s0,sp,32
20401228:	fea42623          	sw	a0,-20(s0)
C:\Users\jjrh\Dropbox\Telecom\Tesis\Source\kernel_sifive\kernel_semaphore\src/kernel.c:33
	tcbs[i].stackPt	= &TCB_STACK[i][STACKSIZE];
2040122c:	fec42783          	lw	a5,-20(s0)
20401230:	00178713          	addi	a4,a5,1
20401234:	32000793          	li	a5,800
20401238:	02f70733          	mul	a4,a4,a5
2040123c:	800017b7          	lui	a5,0x80001
20401240:	88078793          	addi	a5,a5,-1920 # 80000880 <metal_segment_heap_target_end+0xffffedb0>
20401244:	973e                	add	a4,a4,a5
20401246:	8d018693          	addi	a3,gp,-1840 # 80000870 <tcbs>
2040124a:	fec42783          	lw	a5,-20(s0)
2040124e:	078e                	slli	a5,a5,0x3
20401250:	97b6                	add	a5,a5,a3
20401252:	c398                	sw	a4,0(a5)
C:\Users\jjrh\Dropbox\Telecom\Tesis\Source\kernel_sifive\kernel_semaphore\src/kernel.c:35
	//TCB_STACK[i][STACKSIZE-1] = 0x0100DEAD;
}
20401254:	0001                	nop
20401256:	4472                	lw	s0,28(sp)
20401258:	6105                	addi	sp,sp,32
2040125a:	8082                	ret

2040125c <osKernelAddThreads>:
osKernelAddThreads():
C:\Users\jjrh\Dropbox\Telecom\Tesis\Source\kernel_sifive\kernel_semaphore\src/kernel.c:37

uint32_t osKernelAddThreads(void(*task0)(void), void(*task1)(void)/*, void(*task2)(void), void(*task3)(void)*/){
2040125c:	1101                	addi	sp,sp,-32
2040125e:	ce06                	sw	ra,28(sp)
20401260:	cc22                	sw	s0,24(sp)
20401262:	1000                	addi	s0,sp,32
20401264:	fea42623          	sw	a0,-20(s0)
20401268:	feb42423          	sw	a1,-24(s0)
C:\Users\jjrh\Dropbox\Telecom\Tesis\Source\kernel_sifive\kernel_semaphore\src/kernel.c:38
	intr_off();
2040126c:	3f41                	jal	204011fc <intr_off>
C:\Users\jjrh\Dropbox\Telecom\Tesis\Source\kernel_sifive\kernel_semaphore\src/kernel.c:39
	tcbs[0].nextPt = &tcbs[1];
2040126e:	8d018793          	addi	a5,gp,-1840 # 80000870 <tcbs>
20401272:	8d818713          	addi	a4,gp,-1832 # 80000878 <tcbs+0x8>
20401276:	c3d8                	sw	a4,4(a5)
C:\Users\jjrh\Dropbox\Telecom\Tesis\Source\kernel_sifive\kernel_semaphore\src/kernel.c:40
	tcbs[1].nextPt = &tcbs[0];
20401278:	8d018793          	addi	a5,gp,-1840 # 80000870 <tcbs>
2040127c:	8d018713          	addi	a4,gp,-1840 # 80000870 <tcbs>
20401280:	c7d8                	sw	a4,12(a5)
C:\Users\jjrh\Dropbox\Telecom\Tesis\Source\kernel_sifive\kernel_semaphore\src/kernel.c:43
	/*tcbs[2].nextPt = &tcbs[3];
	tcbs[3].nextPt = &tcbs[0];*/
	osKernelStackInit(0);
20401282:	4501                	li	a0,0
20401284:	3f79                	jal	20401222 <osKernelStackInit>
C:\Users\jjrh\Dropbox\Telecom\Tesis\Source\kernel_sifive\kernel_semaphore\src/kernel.c:44
	TCB_STACK[0][STACKSIZE] = (int32_t)(task0);
20401286:	fec42703          	lw	a4,-20(s0)
2040128a:	800017b7          	lui	a5,0x80001
2040128e:	88078793          	addi	a5,a5,-1920 # 80000880 <metal_segment_heap_target_end+0xffffedb0>
20401292:	32e7a023          	sw	a4,800(a5)
C:\Users\jjrh\Dropbox\Telecom\Tesis\Source\kernel_sifive\kernel_semaphore\src/kernel.c:45
	osKernelStackInit(1);
20401296:	4505                	li	a0,1
20401298:	3769                	jal	20401222 <osKernelStackInit>
C:\Users\jjrh\Dropbox\Telecom\Tesis\Source\kernel_sifive\kernel_semaphore\src/kernel.c:46
	TCB_STACK[1][STACKSIZE] = (int32_t)(task1);
2040129a:	fe842703          	lw	a4,-24(s0)
2040129e:	800017b7          	lui	a5,0x80001
204012a2:	88078793          	addi	a5,a5,-1920 # 80000880 <metal_segment_heap_target_end+0xffffedb0>
204012a6:	64e7a023          	sw	a4,1600(a5)
C:\Users\jjrh\Dropbox\Telecom\Tesis\Source\kernel_sifive\kernel_semaphore\src/kernel.c:47
	TCB_STACK[1][STACKSIZE-1] = (int32_t)(task1);
204012aa:	fe842703          	lw	a4,-24(s0)
204012ae:	800017b7          	lui	a5,0x80001
204012b2:	88078793          	addi	a5,a5,-1920 # 80000880 <metal_segment_heap_target_end+0xffffedb0>
204012b6:	62e7ae23          	sw	a4,1596(a5)
C:\Users\jjrh\Dropbox\Telecom\Tesis\Source\kernel_sifive\kernel_semaphore\src/kernel.c:54
	TCB_STACK[2][STACKSIZE] = (int32_t)(task2);
	TCB_STACK[2][STACKSIZE-1] = (int32_t)(task2);
	osKernelStackInit(3);
	TCB_STACK[3][STACKSIZE] = (int32_t)(task3);
	TCB_STACK[3][STACKSIZE-1] = (int32_t)(task3);*/
	currentPt =  &tcbs[0];
204012ba:	8d018713          	addi	a4,gp,-1840 # 80000870 <tcbs>
204012be:	8ce1a623          	sw	a4,-1844(gp) # 8000086c <currentPt>
C:\Users\jjrh\Dropbox\Telecom\Tesis\Source\kernel_sifive\kernel_semaphore\src/kernel.c:55
	intr_on();
204012c2:	3731                	jal	204011ce <intr_on>
C:\Users\jjrh\Dropbox\Telecom\Tesis\Source\kernel_sifive\kernel_semaphore\src/kernel.c:56
	return 1;
204012c4:	4785                	li	a5,1
C:\Users\jjrh\Dropbox\Telecom\Tesis\Source\kernel_sifive\kernel_semaphore\src/kernel.c:57
}
204012c6:	853e                	mv	a0,a5
204012c8:	40f2                	lw	ra,28(sp)
204012ca:	4462                	lw	s0,24(sp)
204012cc:	6105                	addi	sp,sp,32
204012ce:	8082                	ret

204012d0 <osKernelLaunch>:
osKernelLaunch():
C:\Users\jjrh\Dropbox\Telecom\Tesis\Source\kernel_sifive\kernel_semaphore\src/kernel.c:59

void osKernelLaunch(void){
204012d0:	1141                	addi	sp,sp,-16
204012d2:	c606                	sw	ra,12(sp)
204012d4:	c422                	sw	s0,8(sp)
204012d6:	0800                	addi	s0,sp,16
C:\Users\jjrh\Dropbox\Telecom\Tesis\Source\kernel_sifive\kernel_semaphore\src/kernel.c:60
	system_init();
204012d8:	2039                	jal	204012e6 <system_init>
C:\Users\jjrh\Dropbox\Telecom\Tesis\Source\kernel_sifive\kernel_semaphore\src/kernel.c:61
	osSchedulerLaunch();
204012da:	26cd                	jal	204016bc <osSchedulerLaunch>
C:\Users\jjrh\Dropbox\Telecom\Tesis\Source\kernel_sifive\kernel_semaphore\src/kernel.c:62
}
204012dc:	0001                	nop
204012de:	40b2                	lw	ra,12(sp)
204012e0:	4422                	lw	s0,8(sp)
204012e2:	0141                	addi	sp,sp,16
204012e4:	8082                	ret

204012e6 <system_init>:
system_init():
C:\Users\jjrh\Dropbox\Telecom\Tesis\Source\kernel_sifive\kernel_semaphore\src/kernel.c:64

void system_init(){
204012e6:	1141                	addi	sp,sp,-16
204012e8:	c606                	sw	ra,12(sp)
204012ea:	c422                	sw	s0,8(sp)
204012ec:	0800                	addi	s0,sp,16
C:\Users\jjrh\Dropbox\Telecom\Tesis\Source\kernel_sifive\kernel_semaphore\src/kernel.c:66
	//w_mepc((uint32_t)main);
	w_mtvec((uint32_t)switch_to);
204012ee:	204017b7          	lui	a5,0x20401
204012f2:	6d078793          	addi	a5,a5,1744 # 204016d0 <switch_to>
204012f6:	853e                	mv	a0,a5
204012f8:	3d75                	jal	204011b4 <w_mtvec>
C:\Users\jjrh\Dropbox\Telecom\Tesis\Source\kernel_sifive\kernel_semaphore\src/kernel.c:67
	timer_init();
204012fa:	2031                	jal	20401306 <timer_init>
C:\Users\jjrh\Dropbox\Telecom\Tesis\Source\kernel_sifive\kernel_semaphore\src/kernel.c:68
}
204012fc:	0001                	nop
204012fe:	40b2                	lw	ra,12(sp)
20401300:	4422                	lw	s0,8(sp)
20401302:	0141                	addi	sp,sp,16
20401304:	8082                	ret

20401306 <timer_init>:
timer_init():
C:\Users\jjrh\Dropbox\Telecom\Tesis\Source\kernel_sifive\kernel_semaphore\src/kernel.c:71


void timer_init(void) {
20401306:	1141                	addi	sp,sp,-16
20401308:	c606                	sw	ra,12(sp)
2040130a:	c422                	sw	s0,8(sp)
2040130c:	0800                	addi	s0,sp,16
C:\Users\jjrh\Dropbox\Telecom\Tesis\Source\kernel_sifive\kernel_semaphore\src/kernel.c:72
	*MTIMECMP = *MTIME + 0xfffff * 5;
2040130e:	0200c7b7          	lui	a5,0x200c
20401312:	17e1                	addi	a5,a5,-8
20401314:	4398                	lw	a4,0(a5)
20401316:	43dc                	lw	a5,4(a5)
20401318:	02004837          	lui	a6,0x2004
2040131c:	00500537          	lui	a0,0x500
20401320:	156d                	addi	a0,a0,-5
20401322:	4581                	li	a1,0
20401324:	00a70633          	add	a2,a4,a0
20401328:	88b2                	mv	a7,a2
2040132a:	00e8b8b3          	sltu	a7,a7,a4
2040132e:	00b786b3          	add	a3,a5,a1
20401332:	00d887b3          	add	a5,a7,a3
20401336:	86be                	mv	a3,a5
20401338:	8732                	mv	a4,a2
2040133a:	87b6                	mv	a5,a3
2040133c:	00e82023          	sw	a4,0(a6) # 2004000 <__heap_size+0x2003800>
20401340:	00f82223          	sw	a5,4(a6)
C:\Users\jjrh\Dropbox\Telecom\Tesis\Source\kernel_sifive\kernel_semaphore\src/kernel.c:73
	intr_on();
20401344:	3569                	jal	204011ce <intr_on>
C:\Users\jjrh\Dropbox\Telecom\Tesis\Source\kernel_sifive\kernel_semaphore\src/kernel.c:74
}
20401346:	0001                	nop
20401348:	40b2                	lw	ra,12(sp)
2040134a:	4422                	lw	s0,8(sp)
2040134c:	0141                	addi	sp,sp,16
2040134e:	8082                	ret

20401350 <osSchedulerRoundRobin>:
osSchedulerRoundRobin():
C:\Users\jjrh\Dropbox\Telecom\Tesis\Source\kernel_sifive\kernel_semaphore\src/kernel.c:76

void osSchedulerRoundRobin(void){
20401350:	1141                	addi	sp,sp,-16
20401352:	c622                	sw	s0,12(sp)
20401354:	0800                	addi	s0,sp,16
C:\Users\jjrh\Dropbox\Telecom\Tesis\Source\kernel_sifive\kernel_semaphore\src/kernel.c:77
	currentPt = currentPt->nextPt;
20401356:	8cc1a783          	lw	a5,-1844(gp) # 8000086c <currentPt>
2040135a:	43d8                	lw	a4,4(a5)
2040135c:	8ce1a623          	sw	a4,-1844(gp) # 8000086c <currentPt>
C:\Users\jjrh\Dropbox\Telecom\Tesis\Source\kernel_sifive\kernel_semaphore\src/kernel.c:78
}
20401360:	0001                	nop
20401362:	4432                	lw	s0,12(sp)
20401364:	0141                	addi	sp,sp,16
20401366:	8082                	ret

20401368 <delay>:
delay():
C:\Users\jjrh\Dropbox\Telecom\Tesis\Source\kernel_sifive\kernel_semaphore\src/kernel.c:80

void delay(int number_of_microseconds){ //not actually number of seconds
20401368:	7179                	addi	sp,sp,-48
2040136a:	d606                	sw	ra,44(sp)
2040136c:	d422                	sw	s0,40(sp)
2040136e:	1800                	addi	s0,sp,48
20401370:	fca42e23          	sw	a0,-36(s0)
C:\Users\jjrh\Dropbox\Telecom\Tesis\Source\kernel_sifive\kernel_semaphore\src/kernel.c:82
	// Converting time into multiples of a hundred nS
	int hundred_ns = 10 * number_of_microseconds;
20401374:	fdc42703          	lw	a4,-36(s0)
20401378:	87ba                	mv	a5,a4
2040137a:	078a                	slli	a5,a5,0x2
2040137c:	97ba                	add	a5,a5,a4
2040137e:	0786                	slli	a5,a5,0x1
20401380:	fef42623          	sw	a5,-20(s0)
C:\Users\jjrh\Dropbox\Telecom\Tesis\Source\kernel_sifive\kernel_semaphore\src/kernel.c:84
	// Storing start time
	clock_t start_time = clock();
20401384:	26fd                	jal	20401772 <clock>
20401386:	fea42423          	sw	a0,-24(s0)
C:\Users\jjrh\Dropbox\Telecom\Tesis\Source\kernel_sifive\kernel_semaphore\src/kernel.c:86
	// looping till required time is not achieved
	while (clock() < start_time + hundred_ns);
2040138a:	0001                	nop
C:\Users\jjrh\Dropbox\Telecom\Tesis\Source\kernel_sifive\kernel_semaphore\src/kernel.c:86 (discriminator 1)
2040138c:	26dd                	jal	20401772 <clock>
2040138e:	86aa                	mv	a3,a0
20401390:	fec42703          	lw	a4,-20(s0)
20401394:	fe842783          	lw	a5,-24(s0)
20401398:	97ba                	add	a5,a5,a4
2040139a:	fef6e9e3          	bltu	a3,a5,2040138c <delay+0x24>
C:\Users\jjrh\Dropbox\Telecom\Tesis\Source\kernel_sifive\kernel_semaphore\src/kernel.c:87
}
2040139e:	0001                	nop
204013a0:	0001                	nop
204013a2:	50b2                	lw	ra,44(sp)
204013a4:	5422                	lw	s0,40(sp)
204013a6:	6145                	addi	sp,sp,48
204013a8:	8082                	ret

204013aa <task>:
task():
C:\Users\jjrh\Dropbox\Telecom\Tesis\Source\kernel_sifive\kernel_semaphore\src/main.c:13
#include "list.h"

int count = 0, count1= 0;//*, count2= 0, count3= 0;
uint32_t semaphore;

void task(void){
204013aa:	1141                	addi	sp,sp,-16
204013ac:	c606                	sw	ra,12(sp)
204013ae:	c422                	sw	s0,8(sp)
204013b0:	0800                	addi	s0,sp,16
C:\Users\jjrh\Dropbox\Telecom\Tesis\Source\kernel_sifive\kernel_semaphore\src/main.c:15 (discriminator 1)
	while(1){
		semaphore_wait(&semaphore);
204013b2:	f2018513          	addi	a0,gp,-224 # 80000ec0 <semaphore>
204013b6:	24e9                	jal	20401680 <semaphore_wait>
C:\Users\jjrh\Dropbox\Telecom\Tesis\Source\kernel_sifive\kernel_semaphore\src/main.c:16 (discriminator 1)
		printf("\nEntrada..\n");
204013b8:	204007b7          	lui	a5,0x20400
204013bc:	36878513          	addi	a0,a5,872 # 20400368 <use_hfxosc+0x2c>
204013c0:	678000ef          	jal	ra,20401a38 <puts>
C:\Users\jjrh\Dropbox\Telecom\Tesis\Source\kernel_sifive\kernel_semaphore\src/main.c:20 (discriminator 1)
		//count1++;

		//critical section
		delay(4000000);
204013c4:	003d17b7          	lui	a5,0x3d1
204013c8:	90078513          	addi	a0,a5,-1792 # 3d0900 <__heap_size+0x3d0100>
204013cc:	3f71                	jal	20401368 <delay>
C:\Users\jjrh\Dropbox\Telecom\Tesis\Source\kernel_sifive\kernel_semaphore\src/main.c:22 (discriminator 1)

		printf("\nSaliendo...\n");
204013ce:	204007b7          	lui	a5,0x20400
204013d2:	37478513          	addi	a0,a5,884 # 20400374 <use_hfxosc+0x38>
204013d6:	662000ef          	jal	ra,20401a38 <puts>
C:\Users\jjrh\Dropbox\Telecom\Tesis\Source\kernel_sifive\kernel_semaphore\src/main.c:24 (discriminator 1)
		//count1++;
		semaphore_signal(&semaphore);
204013da:	f2018513          	addi	a0,gp,-224 # 80000ec0 <semaphore>
204013de:	2ca5                	jal	20401656 <semaphore_signal>
C:\Users\jjrh\Dropbox\Telecom\Tesis\Source\kernel_sifive\kernel_semaphore\src/main.c:15 (discriminator 1)
		semaphore_wait(&semaphore);
204013e0:	bfc9                	j	204013b2 <task+0x8>

204013e2 <task1>:
task1():
C:\Users\jjrh\Dropbox\Telecom\Tesis\Source\kernel_sifive\kernel_semaphore\src/main.c:29
	}
}


void task1(void){
204013e2:	1141                	addi	sp,sp,-16
204013e4:	c606                	sw	ra,12(sp)
204013e6:	c422                	sw	s0,8(sp)
204013e8:	0800                	addi	s0,sp,16
C:\Users\jjrh\Dropbox\Telecom\Tesis\Source\kernel_sifive\kernel_semaphore\src/main.c:31 (discriminator 1)
	while(1){
		semaphore_wait(&semaphore);
204013ea:	f2018513          	addi	a0,gp,-224 # 80000ec0 <semaphore>
204013ee:	2c49                	jal	20401680 <semaphore_wait>
C:\Users\jjrh\Dropbox\Telecom\Tesis\Source\kernel_sifive\kernel_semaphore\src/main.c:32 (discriminator 1)
		printf("\nEntrada..\n");
204013f0:	204007b7          	lui	a5,0x20400
204013f4:	36878513          	addi	a0,a5,872 # 20400368 <use_hfxosc+0x2c>
204013f8:	2581                	jal	20401a38 <puts>
C:\Users\jjrh\Dropbox\Telecom\Tesis\Source\kernel_sifive\kernel_semaphore\src/main.c:36 (discriminator 1)
		//count1++;

		//critical section
		delay(4000);
204013fa:	6785                	lui	a5,0x1
204013fc:	fa078513          	addi	a0,a5,-96 # fa0 <__heap_size+0x7a0>
20401400:	37a5                	jal	20401368 <delay>
C:\Users\jjrh\Dropbox\Telecom\Tesis\Source\kernel_sifive\kernel_semaphore\src/main.c:38 (discriminator 1)

		printf("\nSaliendo...\n");
20401402:	204007b7          	lui	a5,0x20400
20401406:	37478513          	addi	a0,a5,884 # 20400374 <use_hfxosc+0x38>
2040140a:	253d                	jal	20401a38 <puts>
C:\Users\jjrh\Dropbox\Telecom\Tesis\Source\kernel_sifive\kernel_semaphore\src/main.c:40 (discriminator 1)
		//count1++;
		semaphore_signal(&semaphore);
2040140c:	f2018513          	addi	a0,gp,-224 # 80000ec0 <semaphore>
20401410:	2499                	jal	20401656 <semaphore_signal>
C:\Users\jjrh\Dropbox\Telecom\Tesis\Source\kernel_sifive\kernel_semaphore\src/main.c:31 (discriminator 1)
		semaphore_wait(&semaphore);
20401412:	bfe1                	j	204013ea <task1+0x8>

20401414 <main>:
main():
C:\Users\jjrh\Dropbox\Telecom\Tesis\Source\kernel_sifive\kernel_semaphore\src/main.c:61
		asm volatile("wfi");
	}
}
*/

int main() {
20401414:	1141                	addi	sp,sp,-16
20401416:	c606                	sw	ra,12(sp)
20401418:	c422                	sw	s0,8(sp)
2040141a:	0800                	addi	s0,sp,16
C:\Users\jjrh\Dropbox\Telecom\Tesis\Source\kernel_sifive\kernel_semaphore\src/main.c:62
	printf("RISC-V Kernel\n");
2040141c:	204007b7          	lui	a5,0x20400
20401420:	38478513          	addi	a0,a5,900 # 20400384 <use_hfxosc+0x48>
20401424:	2d11                	jal	20401a38 <puts>
C:\Users\jjrh\Dropbox\Telecom\Tesis\Source\kernel_sifive\kernel_semaphore\src/main.c:63
	osSemaphoreInit(&semaphore, 1);
20401426:	4585                	li	a1,1
20401428:	f2018513          	addi	a0,gp,-224 # 80000ec0 <semaphore>
2040142c:	2429                	jal	20401636 <osSemaphoreInit>
C:\Users\jjrh\Dropbox\Telecom\Tesis\Source\kernel_sifive\kernel_semaphore\src/main.c:66
	//osSemaphoreInit(&semaphore2, 2);

	osKernelAddThreads(&task, &task1 /*, &task2, &task3 */);
2040142e:	204017b7          	lui	a5,0x20401
20401432:	3e278593          	addi	a1,a5,994 # 204013e2 <task1>
20401436:	204017b7          	lui	a5,0x20401
2040143a:	3aa78513          	addi	a0,a5,938 # 204013aa <task>
2040143e:	3d39                	jal	2040125c <osKernelAddThreads>
C:\Users\jjrh\Dropbox\Telecom\Tesis\Source\kernel_sifive\kernel_semaphore\src/main.c:67
	osKernelLaunch();
20401440:	3d41                	jal	204012d0 <osKernelLaunch>
20401442:	4781                	li	a5,0
C:\Users\jjrh\Dropbox\Telecom\Tesis\Source\kernel_sifive\kernel_semaphore\src/main.c:68
}
20401444:	853e                	mv	a0,a5
20401446:	40b2                	lw	ra,12(sp)
20401448:	4422                	lw	s0,8(sp)
2040144a:	0141                	addi	sp,sp,16
2040144c:	8082                	ret

2040144e <handle_interrupt>:
handle_interrupt():
C:\Users\jjrh\Dropbox\Telecom\Tesis\Source\kernel_sifive\kernel_semaphore\src/trap.c:14

#define CLINT_BASE 0x2000000
#define MTIME (volatile unsigned long long int *)(CLINT_BASE + 0xbff8)
#define MTIMECMP (volatile unsigned long long int *)(CLINT_BASE + 0x4000)

void handle_interrupt(uint32_t mcause) {
2040144e:	1101                	addi	sp,sp,-32
20401450:	ce06                	sw	ra,28(sp)
20401452:	cc22                	sw	s0,24(sp)
20401454:	1000                	addi	s0,sp,32
20401456:	fea42623          	sw	a0,-20(s0)
C:\Users\jjrh\Dropbox\Telecom\Tesis\Source\kernel_sifive\kernel_semaphore\src/trap.c:15
    if ((mcause << 1 >> 1) == 0x7) {
2040145a:	fec42703          	lw	a4,-20(s0)
2040145e:	800007b7          	lui	a5,0x80000
20401462:	fff7c793          	not	a5,a5
20401466:	8f7d                	and	a4,a4,a5
20401468:	479d                	li	a5,7
2040146a:	02f71e63          	bne	a4,a5,204014a6 <handle_interrupt+0x58>
C:\Users\jjrh\Dropbox\Telecom\Tesis\Source\kernel_sifive\kernel_semaphore\src/trap.c:17
        //printf("  Switch context \n");
        *MTIMECMP = *MTIME + 0xfffff * 5;
2040146e:	0200c7b7          	lui	a5,0x200c
20401472:	17e1                	addi	a5,a5,-8
20401474:	4398                	lw	a4,0(a5)
20401476:	43dc                	lw	a5,4(a5)
20401478:	02004837          	lui	a6,0x2004
2040147c:	00500537          	lui	a0,0x500
20401480:	156d                	addi	a0,a0,-5
20401482:	4581                	li	a1,0
20401484:	00a70633          	add	a2,a4,a0
20401488:	88b2                	mv	a7,a2
2040148a:	00e8b8b3          	sltu	a7,a7,a4
2040148e:	00b786b3          	add	a3,a5,a1
20401492:	00d887b3          	add	a5,a7,a3
20401496:	86be                	mv	a3,a5
20401498:	8732                	mv	a4,a2
2040149a:	87b6                	mv	a5,a3
2040149c:	00e82023          	sw	a4,0(a6) # 2004000 <__heap_size+0x2003800>
204014a0:	00f82223          	sw	a5,4(a6)
C:\Users\jjrh\Dropbox\Telecom\Tesis\Source\kernel_sifive\kernel_semaphore\src/trap.c:24
    } else {
        printf("Unknown interrupt: %x\n ",mcause << 1 >> 1);
        while (1)
            ;
    }
}
204014a4:	a839                	j	204014c2 <handle_interrupt+0x74>
C:\Users\jjrh\Dropbox\Telecom\Tesis\Source\kernel_sifive\kernel_semaphore\src/trap.c:20
        printf("Unknown interrupt: %x\n ",mcause << 1 >> 1);
204014a6:	fec42703          	lw	a4,-20(s0)
204014aa:	800007b7          	lui	a5,0x80000
204014ae:	fff7c793          	not	a5,a5
204014b2:	8ff9                	and	a5,a5,a4
204014b4:	85be                	mv	a1,a5
204014b6:	204007b7          	lui	a5,0x20400
204014ba:	39478513          	addi	a0,a5,916 # 20400394 <use_hfxosc+0x58>
204014be:	218d                	jal	20401920 <iprintf>
C:\Users\jjrh\Dropbox\Telecom\Tesis\Source\kernel_sifive\kernel_semaphore\src/trap.c:21 (discriminator 1)
        while (1)
204014c0:	a001                	j	204014c0 <handle_interrupt+0x72>
C:\Users\jjrh\Dropbox\Telecom\Tesis\Source\kernel_sifive\kernel_semaphore\src/trap.c:24
}
204014c2:	40f2                	lw	ra,28(sp)
204014c4:	4462                	lw	s0,24(sp)
204014c6:	6105                	addi	sp,sp,32
204014c8:	8082                	ret

204014ca <handle_exception>:
handle_exception():
C:\Users\jjrh\Dropbox\Telecom\Tesis\Source\kernel_sifive\kernel_semaphore\src/trap.c:26

void handle_exception(uint32_t mcause) {
204014ca:	7179                	addi	sp,sp,-48
204014cc:	d606                	sw	ra,44(sp)
204014ce:	d422                	sw	s0,40(sp)
204014d0:	1800                	addi	s0,sp,48
204014d2:	fca42e23          	sw	a0,-36(s0)
C:\Users\jjrh\Dropbox\Telecom\Tesis\Source\kernel_sifive\kernel_semaphore\src/trap.c:29
    unsigned long long int mie;

    if (mcause == 0x8) {
204014d6:	fdc42703          	lw	a4,-36(s0)
204014da:	47a1                	li	a5,8
204014dc:	06f71663          	bne	a4,a5,20401548 <handle_exception+0x7e>
C:\Users\jjrh\Dropbox\Telecom\Tesis\Source\kernel_sifive\kernel_semaphore\src/trap.c:30
        *MTIMECMP = *MTIME + 0xfffff * 25;
204014e0:	0200c7b7          	lui	a5,0x200c
204014e4:	17e1                	addi	a5,a5,-8
204014e6:	4398                	lw	a4,0(a5)
204014e8:	43dc                	lw	a5,4(a5)
204014ea:	02004837          	lui	a6,0x2004
204014ee:	01900537          	lui	a0,0x1900
204014f2:	151d                	addi	a0,a0,-25
204014f4:	4581                	li	a1,0
204014f6:	00a70633          	add	a2,a4,a0
204014fa:	88b2                	mv	a7,a2
204014fc:	00e8b8b3          	sltu	a7,a7,a4
20401500:	00b786b3          	add	a3,a5,a1
20401504:	00d887b3          	add	a5,a7,a3
20401508:	86be                	mv	a3,a5
2040150a:	8732                	mv	a4,a2
2040150c:	87b6                	mv	a5,a3
2040150e:	00e82023          	sw	a4,0(a6) # 2004000 <__heap_size+0x2003800>
20401512:	00f82223          	sw	a5,4(a6)
C:\Users\jjrh\Dropbox\Telecom\Tesis\Source\kernel_sifive\kernel_semaphore\src/trap.c:32

        asm volatile("csrr %0, mie" : "=r"(mie));
20401516:	30402773          	csrr	a4,mie
2040151a:	fee42423          	sw	a4,-24(s0)
2040151e:	fef42623          	sw	a5,-20(s0)
C:\Users\jjrh\Dropbox\Telecom\Tesis\Source\kernel_sifive\kernel_semaphore\src/trap.c:33
        mie |= (1 << 7);
20401522:	fe842783          	lw	a5,-24(s0)
20401526:	0807e793          	ori	a5,a5,128
2040152a:	fef42423          	sw	a5,-24(s0)
2040152e:	fec42783          	lw	a5,-20(s0)
20401532:	0007e793          	ori	a5,a5,0
20401536:	fef42623          	sw	a5,-20(s0)
C:\Users\jjrh\Dropbox\Telecom\Tesis\Source\kernel_sifive\kernel_semaphore\src/trap.c:34
        asm volatile("csrw mie, %0" : "=r"(mie));
2040153a:	30471073          	csrw	mie,a4
2040153e:	fee42423          	sw	a4,-24(s0)
20401542:	fef42623          	sw	a5,-20(s0)
C:\Users\jjrh\Dropbox\Telecom\Tesis\Source\kernel_sifive\kernel_semaphore\src/trap.c:40
    } else {
    	printf("Unknown interrupt: %x\n ",mcause << 1 >> 1);
        while (1)
            ;
    }
}
20401546:	a839                	j	20401564 <handle_exception+0x9a>
C:\Users\jjrh\Dropbox\Telecom\Tesis\Source\kernel_sifive\kernel_semaphore\src/trap.c:36
    	printf("Unknown interrupt: %x\n ",mcause << 1 >> 1);
20401548:	fdc42703          	lw	a4,-36(s0)
2040154c:	800007b7          	lui	a5,0x80000
20401550:	fff7c793          	not	a5,a5
20401554:	8ff9                	and	a5,a5,a4
20401556:	85be                	mv	a1,a5
20401558:	204007b7          	lui	a5,0x20400
2040155c:	39478513          	addi	a0,a5,916 # 20400394 <use_hfxosc+0x58>
20401560:	26c1                	jal	20401920 <iprintf>
C:\Users\jjrh\Dropbox\Telecom\Tesis\Source\kernel_sifive\kernel_semaphore\src/trap.c:37 (discriminator 1)
        while (1)
20401562:	a001                	j	20401562 <handle_exception+0x98>
C:\Users\jjrh\Dropbox\Telecom\Tesis\Source\kernel_sifive\kernel_semaphore\src/trap.c:40
}
20401564:	50b2                	lw	ra,44(sp)
20401566:	5422                	lw	s0,40(sp)
20401568:	6145                	addi	sp,sp,48
2040156a:	8082                	ret

2040156c <handle_trap>:
handle_trap():
C:\Users\jjrh\Dropbox\Telecom\Tesis\Source\kernel_sifive\kernel_semaphore\src/trap.c:42

void handle_trap() {
2040156c:	1101                	addi	sp,sp,-32
2040156e:	ce06                	sw	ra,28(sp)
20401570:	cc22                	sw	s0,24(sp)
20401572:	1000                	addi	s0,sp,32
C:\Users\jjrh\Dropbox\Telecom\Tesis\Source\kernel_sifive\kernel_semaphore\src/trap.c:44
    uint32_t mcause, mepc;
    asm volatile("csrr %0, mcause" : "=r"(mcause));
20401574:	342027f3          	csrr	a5,mcause
20401578:	fef42623          	sw	a5,-20(s0)
C:\Users\jjrh\Dropbox\Telecom\Tesis\Source\kernel_sifive\kernel_semaphore\src/trap.c:45
    asm volatile("csrr %0, mepc" : "=r"(mepc));
2040157c:	341027f3          	csrr	a5,mepc
20401580:	fef42423          	sw	a5,-24(s0)
C:\Users\jjrh\Dropbox\Telecom\Tesis\Source\kernel_sifive\kernel_semaphore\src/trap.c:47

    if (mcause >> 31) {
20401584:	fec42783          	lw	a5,-20(s0)
20401588:	0007d663          	bgez	a5,20401594 <handle_trap+0x28>
C:\Users\jjrh\Dropbox\Telecom\Tesis\Source\kernel_sifive\kernel_semaphore\src/trap.c:48
        handle_interrupt(mcause);
2040158c:	fec42503          	lw	a0,-20(s0)
20401590:	3d7d                	jal	2040144e <handle_interrupt>
C:\Users\jjrh\Dropbox\Telecom\Tesis\Source\kernel_sifive\kernel_semaphore\src/trap.c:55
        handle_exception(mcause);
        asm volatile("csrr t0, mepc");
        asm volatile("addi t0, t0, 0x4");
        asm volatile("csrw mepc, t0");
    }
}
20401592:	a809                	j	204015a4 <handle_trap+0x38>
C:\Users\jjrh\Dropbox\Telecom\Tesis\Source\kernel_sifive\kernel_semaphore\src/trap.c:50
        handle_exception(mcause);
20401594:	fec42503          	lw	a0,-20(s0)
20401598:	3f0d                	jal	204014ca <handle_exception>
C:\Users\jjrh\Dropbox\Telecom\Tesis\Source\kernel_sifive\kernel_semaphore\src/trap.c:51
        asm volatile("csrr t0, mepc");
2040159a:	341022f3          	csrr	t0,mepc
C:\Users\jjrh\Dropbox\Telecom\Tesis\Source\kernel_sifive\kernel_semaphore\src/trap.c:52
        asm volatile("addi t0, t0, 0x4");
2040159e:	0291                	addi	t0,t0,4
C:\Users\jjrh\Dropbox\Telecom\Tesis\Source\kernel_sifive\kernel_semaphore\src/trap.c:53
        asm volatile("csrw mepc, t0");
204015a0:	34129073          	csrw	mepc,t0
C:\Users\jjrh\Dropbox\Telecom\Tesis\Source\kernel_sifive\kernel_semaphore\src/trap.c:55
}
204015a4:	0001                	nop
204015a6:	40f2                	lw	ra,28(sp)
204015a8:	4462                	lw	s0,24(sp)
204015aa:	6105                	addi	sp,sp,32
204015ac:	8082                	ret

204015ae <r_mie>:
r_mie():
C:\Users\jjrh\Dropbox\Telecom\Tesis\Source\kernel_sifive\kernel_semaphore\src/riscv.h:99
static inline uint32_t r_mie() {
204015ae:	1101                	addi	sp,sp,-32
204015b0:	ce22                	sw	s0,28(sp)
204015b2:	1000                	addi	s0,sp,32
C:\Users\jjrh\Dropbox\Telecom\Tesis\Source\kernel_sifive\kernel_semaphore\src/riscv.h:101
    asm volatile("csrr %0, mie" : "=r"(x));
204015b4:	304027f3          	csrr	a5,mie
204015b8:	fef42623          	sw	a5,-20(s0)
C:\Users\jjrh\Dropbox\Telecom\Tesis\Source\kernel_sifive\kernel_semaphore\src/riscv.h:102
    return x;
204015bc:	fec42783          	lw	a5,-20(s0)
C:\Users\jjrh\Dropbox\Telecom\Tesis\Source\kernel_sifive\kernel_semaphore\src/riscv.h:103
}
204015c0:	853e                	mv	a0,a5
204015c2:	4472                	lw	s0,28(sp)
204015c4:	6105                	addi	sp,sp,32
204015c6:	8082                	ret

204015c8 <w_mie>:
w_mie():
C:\Users\jjrh\Dropbox\Telecom\Tesis\Source\kernel_sifive\kernel_semaphore\src/riscv.h:105
static inline void w_mie(uint32_t x) {
204015c8:	1101                	addi	sp,sp,-32
204015ca:	ce22                	sw	s0,28(sp)
204015cc:	1000                	addi	s0,sp,32
204015ce:	fea42623          	sw	a0,-20(s0)
C:\Users\jjrh\Dropbox\Telecom\Tesis\Source\kernel_sifive\kernel_semaphore\src/riscv.h:106
    asm volatile("csrw mie, %0" : : "r"(x));
204015d2:	fec42783          	lw	a5,-20(s0)
204015d6:	30479073          	csrw	mie,a5
C:\Users\jjrh\Dropbox\Telecom\Tesis\Source\kernel_sifive\kernel_semaphore\src/riscv.h:107
}
204015da:	0001                	nop
204015dc:	4472                	lw	s0,28(sp)
204015de:	6105                	addi	sp,sp,32
204015e0:	8082                	ret

204015e2 <intr_on>:
intr_on():
C:\Users\jjrh\Dropbox\Telecom\Tesis\Source\kernel_sifive\kernel_semaphore\src/riscv.h:224
static inline void intr_on() {
204015e2:	1101                	addi	sp,sp,-32
204015e4:	ce06                	sw	ra,28(sp)
204015e6:	cc22                	sw	s0,24(sp)
204015e8:	1000                	addi	s0,sp,32
C:\Users\jjrh\Dropbox\Telecom\Tesis\Source\kernel_sifive\kernel_semaphore\src/riscv.h:225
	uint32_t mie = r_mie();
204015ea:	37d1                	jal	204015ae <r_mie>
204015ec:	fea42623          	sw	a0,-20(s0)
C:\Users\jjrh\Dropbox\Telecom\Tesis\Source\kernel_sifive\kernel_semaphore\src/riscv.h:226
	mie |= INTERRUPT_ON;
204015f0:	fec42783          	lw	a5,-20(s0)
204015f4:	0807e793          	ori	a5,a5,128
204015f8:	fef42623          	sw	a5,-20(s0)
C:\Users\jjrh\Dropbox\Telecom\Tesis\Source\kernel_sifive\kernel_semaphore\src/riscv.h:227
	asm volatile ("csrsi mstatus, 8");
204015fc:	30046073          	csrsi	mstatus,8
C:\Users\jjrh\Dropbox\Telecom\Tesis\Source\kernel_sifive\kernel_semaphore\src/riscv.h:228
	w_mie(mie);
20401600:	fec42503          	lw	a0,-20(s0)
20401604:	37d1                	jal	204015c8 <w_mie>
C:\Users\jjrh\Dropbox\Telecom\Tesis\Source\kernel_sifive\kernel_semaphore\src/riscv.h:229
}
20401606:	0001                	nop
20401608:	40f2                	lw	ra,28(sp)
2040160a:	4462                	lw	s0,24(sp)
2040160c:	6105                	addi	sp,sp,32
2040160e:	8082                	ret

20401610 <intr_off>:
intr_off():
C:\Users\jjrh\Dropbox\Telecom\Tesis\Source\kernel_sifive\kernel_semaphore\src/riscv.h:240
static inline void intr_off() {
20401610:	1101                	addi	sp,sp,-32
20401612:	ce06                	sw	ra,28(sp)
20401614:	cc22                	sw	s0,24(sp)
20401616:	1000                	addi	s0,sp,32
C:\Users\jjrh\Dropbox\Telecom\Tesis\Source\kernel_sifive\kernel_semaphore\src/riscv.h:241
	uint32_t mie = r_mie();
20401618:	3f59                	jal	204015ae <r_mie>
2040161a:	fea42623          	sw	a0,-20(s0)
C:\Users\jjrh\Dropbox\Telecom\Tesis\Source\kernel_sifive\kernel_semaphore\src/riscv.h:242
	mie &= INTERRUPT_OFF;
2040161e:	fe042623          	sw	zero,-20(s0)
C:\Users\jjrh\Dropbox\Telecom\Tesis\Source\kernel_sifive\kernel_semaphore\src/riscv.h:243
	asm volatile ("csrsi mstatus, 8");
20401622:	30046073          	csrsi	mstatus,8
C:\Users\jjrh\Dropbox\Telecom\Tesis\Source\kernel_sifive\kernel_semaphore\src/riscv.h:244
	w_mie(mie);
20401626:	fec42503          	lw	a0,-20(s0)
2040162a:	3f79                	jal	204015c8 <w_mie>
C:\Users\jjrh\Dropbox\Telecom\Tesis\Source\kernel_sifive\kernel_semaphore\src/riscv.h:245
}
2040162c:	0001                	nop
2040162e:	40f2                	lw	ra,28(sp)
20401630:	4462                	lw	s0,24(sp)
20401632:	6105                	addi	sp,sp,32
20401634:	8082                	ret

20401636 <osSemaphoreInit>:
osSemaphoreInit():
C:\Users\jjrh\Dropbox\Telecom\Tesis\Source\kernel_sifive\kernel_semaphore\src/semaphore.c:12

#include "kernel.h"
#include "riscv.h"
#include "semaphore.h"

void osSemaphoreInit(int32_t *semaphore, int32_t value){
20401636:	1101                	addi	sp,sp,-32
20401638:	ce22                	sw	s0,28(sp)
2040163a:	1000                	addi	s0,sp,32
2040163c:	fea42623          	sw	a0,-20(s0)
20401640:	feb42423          	sw	a1,-24(s0)
C:\Users\jjrh\Dropbox\Telecom\Tesis\Source\kernel_sifive\kernel_semaphore\src/semaphore.c:13
	*semaphore = value;
20401644:	fec42783          	lw	a5,-20(s0)
20401648:	fe842703          	lw	a4,-24(s0)
2040164c:	c398                	sw	a4,0(a5)
C:\Users\jjrh\Dropbox\Telecom\Tesis\Source\kernel_sifive\kernel_semaphore\src/semaphore.c:14
}
2040164e:	0001                	nop
20401650:	4472                	lw	s0,28(sp)
20401652:	6105                	addi	sp,sp,32
20401654:	8082                	ret

20401656 <semaphore_signal>:
semaphore_signal():
C:\Users\jjrh\Dropbox\Telecom\Tesis\Source\kernel_sifive\kernel_semaphore\src/semaphore.c:16

void semaphore_signal(int32_t *semaphore){
20401656:	1101                	addi	sp,sp,-32
20401658:	ce06                	sw	ra,28(sp)
2040165a:	cc22                	sw	s0,24(sp)
2040165c:	1000                	addi	s0,sp,32
2040165e:	fea42623          	sw	a0,-20(s0)
C:\Users\jjrh\Dropbox\Telecom\Tesis\Source\kernel_sifive\kernel_semaphore\src/semaphore.c:17
	intr_off();
20401662:	377d                	jal	20401610 <intr_off>
C:\Users\jjrh\Dropbox\Telecom\Tesis\Source\kernel_sifive\kernel_semaphore\src/semaphore.c:18
	*semaphore +=1;
20401664:	fec42783          	lw	a5,-20(s0)
20401668:	439c                	lw	a5,0(a5)
2040166a:	00178713          	addi	a4,a5,1
2040166e:	fec42783          	lw	a5,-20(s0)
20401672:	c398                	sw	a4,0(a5)
C:\Users\jjrh\Dropbox\Telecom\Tesis\Source\kernel_sifive\kernel_semaphore\src/semaphore.c:19
	intr_on();
20401674:	37bd                	jal	204015e2 <intr_on>
C:\Users\jjrh\Dropbox\Telecom\Tesis\Source\kernel_sifive\kernel_semaphore\src/semaphore.c:20
}
20401676:	0001                	nop
20401678:	40f2                	lw	ra,28(sp)
2040167a:	4462                	lw	s0,24(sp)
2040167c:	6105                	addi	sp,sp,32
2040167e:	8082                	ret

20401680 <semaphore_wait>:
semaphore_wait():
C:\Users\jjrh\Dropbox\Telecom\Tesis\Source\kernel_sifive\kernel_semaphore\src/semaphore.c:22

void semaphore_wait(int32_t *semaphore){
20401680:	1101                	addi	sp,sp,-32
20401682:	ce06                	sw	ra,28(sp)
20401684:	cc22                	sw	s0,24(sp)
20401686:	1000                	addi	s0,sp,32
20401688:	fea42623          	sw	a0,-20(s0)
C:\Users\jjrh\Dropbox\Telecom\Tesis\Source\kernel_sifive\kernel_semaphore\src/semaphore.c:23
	intr_off();
2040168c:	3751                	jal	20401610 <intr_off>
C:\Users\jjrh\Dropbox\Telecom\Tesis\Source\kernel_sifive\kernel_semaphore\src/semaphore.c:24
	while(*semaphore <=0){
2040168e:	a019                	j	20401694 <semaphore_wait+0x14>
C:\Users\jjrh\Dropbox\Telecom\Tesis\Source\kernel_sifive\kernel_semaphore\src/semaphore.c:25
		intr_off();
20401690:	3741                	jal	20401610 <intr_off>
C:\Users\jjrh\Dropbox\Telecom\Tesis\Source\kernel_sifive\kernel_semaphore\src/semaphore.c:26
		intr_on();
20401692:	3f81                	jal	204015e2 <intr_on>
C:\Users\jjrh\Dropbox\Telecom\Tesis\Source\kernel_sifive\kernel_semaphore\src/semaphore.c:24
	while(*semaphore <=0){
20401694:	fec42783          	lw	a5,-20(s0)
20401698:	439c                	lw	a5,0(a5)
2040169a:	fef05be3          	blez	a5,20401690 <semaphore_wait+0x10>
C:\Users\jjrh\Dropbox\Telecom\Tesis\Source\kernel_sifive\kernel_semaphore\src/semaphore.c:28
	}
	*semaphore -=1;
2040169e:	fec42783          	lw	a5,-20(s0)
204016a2:	439c                	lw	a5,0(a5)
204016a4:	fff78713          	addi	a4,a5,-1
204016a8:	fec42783          	lw	a5,-20(s0)
204016ac:	c398                	sw	a4,0(a5)
C:\Users\jjrh\Dropbox\Telecom\Tesis\Source\kernel_sifive\kernel_semaphore\src/semaphore.c:29
	intr_on();
204016ae:	3f15                	jal	204015e2 <intr_on>
C:\Users\jjrh\Dropbox\Telecom\Tesis\Source\kernel_sifive\kernel_semaphore\src/semaphore.c:30
}
204016b0:	0001                	nop
204016b2:	40f2                	lw	ra,28(sp)
204016b4:	4462                	lw	s0,24(sp)
204016b6:	6105                	addi	sp,sp,32
204016b8:	8082                	ret
	...

204016bc <osSchedulerLaunch>:
osSchedulerLaunch():
C:\Users\jjrh\Dropbox\Telecom\Tesis\Source\kernel_sifive\kernel_semaphore\src/kernel.S:6
.section .text
.global osSchedulerLaunch
.type osSchedulerLaunch, @function
.extern currentPt
osSchedulerLaunch:
    lw t0, currentPt   # Load currentPt into T0
204016bc:	8cc1a283          	lw	t0,-1844(gp) # 8000086c <currentPt>
C:\Users\jjrh\Dropbox\Telecom\Tesis\Source\kernel_sifive\kernel_semaphore\src/kernel.S:7
    lw t1, (t0)
204016c0:	0002a303          	lw	t1,0(t0)
C:\Users\jjrh\Dropbox\Telecom\Tesis\Source\kernel_sifive\kernel_semaphore\src/kernel.S:8
    lw sp, (t0)        # t1 = &t0
204016c4:	0002a103          	lw	sp,0(t0)
C:\Users\jjrh\Dropbox\Telecom\Tesis\Source\kernel_sifive\kernel_semaphore\src/kernel.S:9
    lw ra, (sp)
204016c8:	4082                	lw	ra,0(sp)
C:\Users\jjrh\Dropbox\Telecom\Tesis\Source\kernel_sifive\kernel_semaphore\src/kernel.S:10
    addi sp, sp, -132   # make a stack frame
204016ca:	f7c10113          	addi	sp,sp,-132
C:\Users\jjrh\Dropbox\Telecom\Tesis\Source\kernel_sifive\kernel_semaphore\src/kernel.S:11
    ret
204016ce:	8082                	ret

204016d0 <switch_to>:
switch_to():
C:\Users\jjrh\Dropbox\Telecom\Tesis\Source\kernel_sifive\kernel_semaphore\src/kernel.S:20
.global switch_to
.type switch_to, @function
.align 2
switch_to:

    call handle_trap
204016d0:	3d71                	jal	2040156c <handle_trap>
C:\Users\jjrh\Dropbox\Telecom\Tesis\Source\kernel_sifive\kernel_semaphore\src/kernel.S:21
    mv tp, sp
204016d2:	820a                	mv	tp,sp
C:\Users\jjrh\Dropbox\Telecom\Tesis\Source\kernel_sifive\kernel_semaphore\src/kernel.S:22
    mv sp, fp
204016d4:	8122                	mv	sp,s0
C:\Users\jjrh\Dropbox\Telecom\Tesis\Source\kernel_sifive\kernel_semaphore\src/kernel.S:24
    #Push register
    sw ra, (sp)
204016d6:	c006                	sw	ra,0(sp)
C:\Users\jjrh\Dropbox\Telecom\Tesis\Source\kernel_sifive\kernel_semaphore\src/kernel.S:25
    sw sp, 4(sp)
204016d8:	c20a                	sw	sp,4(sp)
C:\Users\jjrh\Dropbox\Telecom\Tesis\Source\kernel_sifive\kernel_semaphore\src/kernel.S:26
    sw gp, 8(sp)
204016da:	c40e                	sw	gp,8(sp)
C:\Users\jjrh\Dropbox\Telecom\Tesis\Source\kernel_sifive\kernel_semaphore\src/kernel.S:27
    sw tp, 12(sp)
204016dc:	c612                	sw	tp,12(sp)
C:\Users\jjrh\Dropbox\Telecom\Tesis\Source\kernel_sifive\kernel_semaphore\src/kernel.S:28
    sw t0, 16(sp)
204016de:	c816                	sw	t0,16(sp)
C:\Users\jjrh\Dropbox\Telecom\Tesis\Source\kernel_sifive\kernel_semaphore\src/kernel.S:29
    sw t1, 20(sp)
204016e0:	ca1a                	sw	t1,20(sp)
C:\Users\jjrh\Dropbox\Telecom\Tesis\Source\kernel_sifive\kernel_semaphore\src/kernel.S:30
    sw t2, 24(sp)
204016e2:	cc1e                	sw	t2,24(sp)
C:\Users\jjrh\Dropbox\Telecom\Tesis\Source\kernel_sifive\kernel_semaphore\src/kernel.S:31
    sw t3, 28(sp)
204016e4:	ce72                	sw	t3,28(sp)
C:\Users\jjrh\Dropbox\Telecom\Tesis\Source\kernel_sifive\kernel_semaphore\src/kernel.S:32
    sw s0, 32(sp)
204016e6:	d022                	sw	s0,32(sp)
C:\Users\jjrh\Dropbox\Telecom\Tesis\Source\kernel_sifive\kernel_semaphore\src/kernel.S:33
    sw s1, 36(sp)
204016e8:	d226                	sw	s1,36(sp)
C:\Users\jjrh\Dropbox\Telecom\Tesis\Source\kernel_sifive\kernel_semaphore\src/kernel.S:34
    sw a0, 40(sp)
204016ea:	d42a                	sw	a0,40(sp)
C:\Users\jjrh\Dropbox\Telecom\Tesis\Source\kernel_sifive\kernel_semaphore\src/kernel.S:35
    sw a1, 44(sp)
204016ec:	d62e                	sw	a1,44(sp)
C:\Users\jjrh\Dropbox\Telecom\Tesis\Source\kernel_sifive\kernel_semaphore\src/kernel.S:36
    sw a2, 48(sp)
204016ee:	d832                	sw	a2,48(sp)
C:\Users\jjrh\Dropbox\Telecom\Tesis\Source\kernel_sifive\kernel_semaphore\src/kernel.S:37
    sw a3, 52(sp)
204016f0:	da36                	sw	a3,52(sp)
C:\Users\jjrh\Dropbox\Telecom\Tesis\Source\kernel_sifive\kernel_semaphore\src/kernel.S:38
    sw a4, 56(sp)
204016f2:	dc3a                	sw	a4,56(sp)
C:\Users\jjrh\Dropbox\Telecom\Tesis\Source\kernel_sifive\kernel_semaphore\src/kernel.S:39
    sw a5, 60(sp)
204016f4:	de3e                	sw	a5,60(sp)
C:\Users\jjrh\Dropbox\Telecom\Tesis\Source\kernel_sifive\kernel_semaphore\src/kernel.S:40
    sw a6, 64(sp)
204016f6:	c0c2                	sw	a6,64(sp)
C:\Users\jjrh\Dropbox\Telecom\Tesis\Source\kernel_sifive\kernel_semaphore\src/kernel.S:41
    sw a7, 68(sp)
204016f8:	c2c6                	sw	a7,68(sp)
C:\Users\jjrh\Dropbox\Telecom\Tesis\Source\kernel_sifive\kernel_semaphore\src/kernel.S:42
    sw s2, 72(sp)
204016fa:	c4ca                	sw	s2,72(sp)
C:\Users\jjrh\Dropbox\Telecom\Tesis\Source\kernel_sifive\kernel_semaphore\src/kernel.S:43
    sw s3, 76(sp)
204016fc:	c6ce                	sw	s3,76(sp)
C:\Users\jjrh\Dropbox\Telecom\Tesis\Source\kernel_sifive\kernel_semaphore\src/kernel.S:44
    sw s4, 80(sp)
204016fe:	c8d2                	sw	s4,80(sp)
C:\Users\jjrh\Dropbox\Telecom\Tesis\Source\kernel_sifive\kernel_semaphore\src/kernel.S:45
    sw s5, 84(sp)
20401700:	cad6                	sw	s5,84(sp)
C:\Users\jjrh\Dropbox\Telecom\Tesis\Source\kernel_sifive\kernel_semaphore\src/kernel.S:46
    sw s6, 88(sp)
20401702:	ccda                	sw	s6,88(sp)
C:\Users\jjrh\Dropbox\Telecom\Tesis\Source\kernel_sifive\kernel_semaphore\src/kernel.S:47
    sw s7, 92(sp)
20401704:	cede                	sw	s7,92(sp)
C:\Users\jjrh\Dropbox\Telecom\Tesis\Source\kernel_sifive\kernel_semaphore\src/kernel.S:48
    sw s8, 96(sp)
20401706:	d0e2                	sw	s8,96(sp)
C:\Users\jjrh\Dropbox\Telecom\Tesis\Source\kernel_sifive\kernel_semaphore\src/kernel.S:49
    sw s9, 100(sp)
20401708:	d2e6                	sw	s9,100(sp)
C:\Users\jjrh\Dropbox\Telecom\Tesis\Source\kernel_sifive\kernel_semaphore\src/kernel.S:50
    sw s10,104(sp)
2040170a:	d4ea                	sw	s10,104(sp)
C:\Users\jjrh\Dropbox\Telecom\Tesis\Source\kernel_sifive\kernel_semaphore\src/kernel.S:51
    sw s11,108(sp)
2040170c:	d6ee                	sw	s11,108(sp)
C:\Users\jjrh\Dropbox\Telecom\Tesis\Source\kernel_sifive\kernel_semaphore\src/kernel.S:52
    sw t3, 112(sp)
2040170e:	d8f2                	sw	t3,112(sp)
C:\Users\jjrh\Dropbox\Telecom\Tesis\Source\kernel_sifive\kernel_semaphore\src/kernel.S:53
    sw t4, 116(sp)
20401710:	daf6                	sw	t4,116(sp)
C:\Users\jjrh\Dropbox\Telecom\Tesis\Source\kernel_sifive\kernel_semaphore\src/kernel.S:54
    sw t5, 120(sp)
20401712:	dcfa                	sw	t5,120(sp)
C:\Users\jjrh\Dropbox\Telecom\Tesis\Source\kernel_sifive\kernel_semaphore\src/kernel.S:55
    sw t6, 124(sp)
20401714:	defe                	sw	t6,124(sp)
C:\Users\jjrh\Dropbox\Telecom\Tesis\Source\kernel_sifive\kernel_semaphore\src/kernel.S:56
    csrr t0, mepc
20401716:	341022f3          	csrr	t0,mepc
C:\Users\jjrh\Dropbox\Telecom\Tesis\Source\kernel_sifive\kernel_semaphore\src/kernel.S:57
    sw t0, 132(sp)
2040171a:	c316                	sw	t0,132(sp)
C:\Users\jjrh\Dropbox\Telecom\Tesis\Source\kernel_sifive\kernel_semaphore\src/kernel.S:75
    #addi sp, sp, -132  # make a stack frame
    #lw t0, 132(sp)     # load mepc
    #csrw mepc, t0

    #Switch context in c
    call osSchedulerRoundRobin
2040171c:	3915                	jal	20401350 <osSchedulerRoundRobin>
C:\Users\jjrh\Dropbox\Telecom\Tesis\Source\kernel_sifive\kernel_semaphore\src/kernel.S:76
    lw t0, currentPt   # Load currentPt into T0
2040171e:	8cc1a283          	lw	t0,-1844(gp) # 8000086c <currentPt>
C:\Users\jjrh\Dropbox\Telecom\Tesis\Source\kernel_sifive\kernel_semaphore\src/kernel.S:77
    lw sp, (t0)
20401722:	0002a103          	lw	sp,0(t0)
C:\Users\jjrh\Dropbox\Telecom\Tesis\Source\kernel_sifive\kernel_semaphore\src/kernel.S:78
    addi sp, sp, -132  # make a stack frame
20401726:	f7c10113          	addi	sp,sp,-132
C:\Users\jjrh\Dropbox\Telecom\Tesis\Source\kernel_sifive\kernel_semaphore\src/kernel.S:79
    lw t0, 132(sp)     # load mepc
2040172a:	429a                	lw	t0,132(sp)
C:\Users\jjrh\Dropbox\Telecom\Tesis\Source\kernel_sifive\kernel_semaphore\src/kernel.S:80
    csrw mepc, t0
2040172c:	34129073          	csrw	mepc,t0
C:\Users\jjrh\Dropbox\Telecom\Tesis\Source\kernel_sifive\kernel_semaphore\src/kernel.S:84


    #Pop register
    lw ra, (sp)
20401730:	4082                	lw	ra,0(sp)
C:\Users\jjrh\Dropbox\Telecom\Tesis\Source\kernel_sifive\kernel_semaphore\src/kernel.S:87
    #lw sp, 4(sp)
    #lw gp, 8(sp)
    lw tp, 12(sp)
20401732:	4232                	lw	tp,12(sp)
C:\Users\jjrh\Dropbox\Telecom\Tesis\Source\kernel_sifive\kernel_semaphore\src/kernel.S:88
    lw t0, 16(sp)
20401734:	42c2                	lw	t0,16(sp)
C:\Users\jjrh\Dropbox\Telecom\Tesis\Source\kernel_sifive\kernel_semaphore\src/kernel.S:89
    lw t1, 20(sp)
20401736:	4352                	lw	t1,20(sp)
C:\Users\jjrh\Dropbox\Telecom\Tesis\Source\kernel_sifive\kernel_semaphore\src/kernel.S:90
    lw t2, 24(sp)
20401738:	43e2                	lw	t2,24(sp)
C:\Users\jjrh\Dropbox\Telecom\Tesis\Source\kernel_sifive\kernel_semaphore\src/kernel.S:91
    lw t3, 28(sp)
2040173a:	4e72                	lw	t3,28(sp)
C:\Users\jjrh\Dropbox\Telecom\Tesis\Source\kernel_sifive\kernel_semaphore\src/kernel.S:92
    lw s0, 32(sp)
2040173c:	5402                	lw	s0,32(sp)
C:\Users\jjrh\Dropbox\Telecom\Tesis\Source\kernel_sifive\kernel_semaphore\src/kernel.S:93
    lw s1, 36(sp)
2040173e:	5492                	lw	s1,36(sp)
C:\Users\jjrh\Dropbox\Telecom\Tesis\Source\kernel_sifive\kernel_semaphore\src/kernel.S:94
    lw a0, 40(sp)
20401740:	5522                	lw	a0,40(sp)
C:\Users\jjrh\Dropbox\Telecom\Tesis\Source\kernel_sifive\kernel_semaphore\src/kernel.S:95
    lw a1, 44(sp)
20401742:	55b2                	lw	a1,44(sp)
C:\Users\jjrh\Dropbox\Telecom\Tesis\Source\kernel_sifive\kernel_semaphore\src/kernel.S:96
    lw a2, 48(sp)
20401744:	5642                	lw	a2,48(sp)
C:\Users\jjrh\Dropbox\Telecom\Tesis\Source\kernel_sifive\kernel_semaphore\src/kernel.S:97
    lw a3, 52(sp)
20401746:	56d2                	lw	a3,52(sp)
C:\Users\jjrh\Dropbox\Telecom\Tesis\Source\kernel_sifive\kernel_semaphore\src/kernel.S:98
    lw a4, 56(sp)
20401748:	5762                	lw	a4,56(sp)
C:\Users\jjrh\Dropbox\Telecom\Tesis\Source\kernel_sifive\kernel_semaphore\src/kernel.S:99
    lw a5, 60(sp)
2040174a:	57f2                	lw	a5,60(sp)
C:\Users\jjrh\Dropbox\Telecom\Tesis\Source\kernel_sifive\kernel_semaphore\src/kernel.S:100
    lw a6, 64(sp)
2040174c:	4806                	lw	a6,64(sp)
C:\Users\jjrh\Dropbox\Telecom\Tesis\Source\kernel_sifive\kernel_semaphore\src/kernel.S:101
    lw a7, 68(sp)
2040174e:	4896                	lw	a7,68(sp)
C:\Users\jjrh\Dropbox\Telecom\Tesis\Source\kernel_sifive\kernel_semaphore\src/kernel.S:102
    lw s2, 72(sp)
20401750:	4926                	lw	s2,72(sp)
C:\Users\jjrh\Dropbox\Telecom\Tesis\Source\kernel_sifive\kernel_semaphore\src/kernel.S:103
    lw s3, 76(sp)
20401752:	49b6                	lw	s3,76(sp)
C:\Users\jjrh\Dropbox\Telecom\Tesis\Source\kernel_sifive\kernel_semaphore\src/kernel.S:104
    lw s4, 80(sp)
20401754:	4a46                	lw	s4,80(sp)
C:\Users\jjrh\Dropbox\Telecom\Tesis\Source\kernel_sifive\kernel_semaphore\src/kernel.S:105
    lw s5, 84(sp)
20401756:	4ad6                	lw	s5,84(sp)
C:\Users\jjrh\Dropbox\Telecom\Tesis\Source\kernel_sifive\kernel_semaphore\src/kernel.S:106
    lw s6, 88(sp)
20401758:	4b66                	lw	s6,88(sp)
C:\Users\jjrh\Dropbox\Telecom\Tesis\Source\kernel_sifive\kernel_semaphore\src/kernel.S:107
    lw s7, 92(sp)
2040175a:	4bf6                	lw	s7,92(sp)
C:\Users\jjrh\Dropbox\Telecom\Tesis\Source\kernel_sifive\kernel_semaphore\src/kernel.S:108
    lw s8, 96(sp)
2040175c:	5c06                	lw	s8,96(sp)
C:\Users\jjrh\Dropbox\Telecom\Tesis\Source\kernel_sifive\kernel_semaphore\src/kernel.S:109
    lw s9, 100(sp)
2040175e:	5c96                	lw	s9,100(sp)
C:\Users\jjrh\Dropbox\Telecom\Tesis\Source\kernel_sifive\kernel_semaphore\src/kernel.S:110
    lw s10,104(sp)
20401760:	5d26                	lw	s10,104(sp)
C:\Users\jjrh\Dropbox\Telecom\Tesis\Source\kernel_sifive\kernel_semaphore\src/kernel.S:111
    lw s11,108(sp)
20401762:	5db6                	lw	s11,108(sp)
C:\Users\jjrh\Dropbox\Telecom\Tesis\Source\kernel_sifive\kernel_semaphore\src/kernel.S:112
    lw t3, 112(sp)
20401764:	5e46                	lw	t3,112(sp)
C:\Users\jjrh\Dropbox\Telecom\Tesis\Source\kernel_sifive\kernel_semaphore\src/kernel.S:113
    lw t4, 116(sp)
20401766:	5ed6                	lw	t4,116(sp)
C:\Users\jjrh\Dropbox\Telecom\Tesis\Source\kernel_sifive\kernel_semaphore\src/kernel.S:114
    lw t5, 120(sp)
20401768:	5f66                	lw	t5,120(sp)
C:\Users\jjrh\Dropbox\Telecom\Tesis\Source\kernel_sifive\kernel_semaphore\src/kernel.S:115
    lw t6, 124(sp)
2040176a:	5ff6                	lw	t6,124(sp)
C:\Users\jjrh\Dropbox\Telecom\Tesis\Source\kernel_sifive\kernel_semaphore\src/kernel.S:117

    mret
2040176c:	30200073          	mret
	...

20401772 <clock>:
clock():
20401772:	1101                	addi	sp,sp,-32
20401774:	858a                	mv	a1,sp
20401776:	5fbff517          	auipc	a0,0x5fbff
2040177a:	02a52503          	lw	a0,42(a0) # 800007a0 <_impure_ptr>
2040177e:	ce06                	sw	ra,28(sp)
20401780:	2cd5                	jal	20401a74 <_times_r>
20401782:	57fd                	li	a5,-1
20401784:	00f50963          	beq	a0,a5,20401796 <clock+0x24>
20401788:	4792                	lw	a5,4(sp)
2040178a:	4502                	lw	a0,0(sp)
2040178c:	953e                	add	a0,a0,a5
2040178e:	47a2                	lw	a5,8(sp)
20401790:	953e                	add	a0,a0,a5
20401792:	47b2                	lw	a5,12(sp)
20401794:	953e                	add	a0,a0,a5
20401796:	40f2                	lw	ra,28(sp)
20401798:	6105                	addi	sp,sp,32
2040179a:	8082                	ret

2040179c <_free_r>:
_free_r():
2040179c:	c1d5                	beqz	a1,20401840 <_free_r+0xa4>
2040179e:	ffc5a783          	lw	a5,-4(a1)
204017a2:	1101                	addi	sp,sp,-32
204017a4:	cc22                	sw	s0,24(sp)
204017a6:	ce06                	sw	ra,28(sp)
204017a8:	ffc58413          	addi	s0,a1,-4
204017ac:	0007d363          	bgez	a5,204017b2 <_free_r+0x16>
204017b0:	943e                	add	s0,s0,a5
204017b2:	c62a                	sw	a0,12(sp)
204017b4:	203000ef          	jal	ra,204021b6 <__malloc_lock>
204017b8:	5fbff717          	auipc	a4,0x5fbff
204017bc:	01070713          	addi	a4,a4,16 # 800007c8 <__malloc_free_list>
204017c0:	431c                	lw	a5,0(a4)
204017c2:	4532                	lw	a0,12(sp)
204017c4:	eb89                	bnez	a5,204017d6 <_free_r+0x3a>
204017c6:	00042223          	sw	zero,4(s0)
204017ca:	c300                	sw	s0,0(a4)
204017cc:	4462                	lw	s0,24(sp)
204017ce:	40f2                	lw	ra,28(sp)
204017d0:	6105                	addi	sp,sp,32
204017d2:	1e70006f          	j	204021b8 <__malloc_unlock>
204017d6:	00f47d63          	bgeu	s0,a5,204017f0 <_free_r+0x54>
204017da:	4010                	lw	a2,0(s0)
204017dc:	00c406b3          	add	a3,s0,a2
204017e0:	00d79663          	bne	a5,a3,204017ec <_free_r+0x50>
204017e4:	4394                	lw	a3,0(a5)
204017e6:	43dc                	lw	a5,4(a5)
204017e8:	96b2                	add	a3,a3,a2
204017ea:	c014                	sw	a3,0(s0)
204017ec:	c05c                	sw	a5,4(s0)
204017ee:	bff1                	j	204017ca <_free_r+0x2e>
204017f0:	873e                	mv	a4,a5
204017f2:	43dc                	lw	a5,4(a5)
204017f4:	c399                	beqz	a5,204017fa <_free_r+0x5e>
204017f6:	fef47de3          	bgeu	s0,a5,204017f0 <_free_r+0x54>
204017fa:	4314                	lw	a3,0(a4)
204017fc:	00d70633          	add	a2,a4,a3
20401800:	00861f63          	bne	a2,s0,2040181e <_free_r+0x82>
20401804:	4010                	lw	a2,0(s0)
20401806:	96b2                	add	a3,a3,a2
20401808:	c314                	sw	a3,0(a4)
2040180a:	00d70633          	add	a2,a4,a3
2040180e:	fac79fe3          	bne	a5,a2,204017cc <_free_r+0x30>
20401812:	4390                	lw	a2,0(a5)
20401814:	43dc                	lw	a5,4(a5)
20401816:	96b2                	add	a3,a3,a2
20401818:	c314                	sw	a3,0(a4)
2040181a:	c35c                	sw	a5,4(a4)
2040181c:	bf45                	j	204017cc <_free_r+0x30>
2040181e:	00c47563          	bgeu	s0,a2,20401828 <_free_r+0x8c>
20401822:	47b1                	li	a5,12
20401824:	c11c                	sw	a5,0(a0)
20401826:	b75d                	j	204017cc <_free_r+0x30>
20401828:	4010                	lw	a2,0(s0)
2040182a:	00c406b3          	add	a3,s0,a2
2040182e:	00d79663          	bne	a5,a3,2040183a <_free_r+0x9e>
20401832:	4394                	lw	a3,0(a5)
20401834:	43dc                	lw	a5,4(a5)
20401836:	96b2                	add	a3,a3,a2
20401838:	c014                	sw	a3,0(s0)
2040183a:	c05c                	sw	a5,4(s0)
2040183c:	c340                	sw	s0,4(a4)
2040183e:	b779                	j	204017cc <_free_r+0x30>
20401840:	8082                	ret

20401842 <_malloc_r>:
_malloc_r():
20401842:	1101                	addi	sp,sp,-32
20401844:	ca26                	sw	s1,20(sp)
20401846:	00358493          	addi	s1,a1,3
2040184a:	98f1                	andi	s1,s1,-4
2040184c:	c84a                	sw	s2,16(sp)
2040184e:	ce06                	sw	ra,28(sp)
20401850:	cc22                	sw	s0,24(sp)
20401852:	c64e                	sw	s3,12(sp)
20401854:	04a1                	addi	s1,s1,8
20401856:	47b1                	li	a5,12
20401858:	892a                	mv	s2,a0
2040185a:	04f4f663          	bgeu	s1,a5,204018a6 <_malloc_r+0x64>
2040185e:	44b1                	li	s1,12
20401860:	04b4e563          	bltu	s1,a1,204018aa <_malloc_r+0x68>
20401864:	854a                	mv	a0,s2
20401866:	151000ef          	jal	ra,204021b6 <__malloc_lock>
2040186a:	5fbff697          	auipc	a3,0x5fbff
2040186e:	f5e68693          	addi	a3,a3,-162 # 800007c8 <__malloc_free_list>
20401872:	4298                	lw	a4,0(a3)
20401874:	843a                	mv	s0,a4
20401876:	e429                	bnez	s0,204018c0 <_malloc_r+0x7e>
20401878:	5fbff417          	auipc	s0,0x5fbff
2040187c:	f5440413          	addi	s0,s0,-172 # 800007cc <__malloc_sbrk_start>
20401880:	401c                	lw	a5,0(s0)
20401882:	e789                	bnez	a5,2040188c <_malloc_r+0x4a>
20401884:	4581                	li	a1,0
20401886:	854a                	mv	a0,s2
20401888:	2a75                	jal	20401a44 <_sbrk_r>
2040188a:	c008                	sw	a0,0(s0)
2040188c:	85a6                	mv	a1,s1
2040188e:	854a                	mv	a0,s2
20401890:	2a55                	jal	20401a44 <_sbrk_r>
20401892:	59fd                	li	s3,-1
20401894:	07351a63          	bne	a0,s3,20401908 <_malloc_r+0xc6>
20401898:	47b1                	li	a5,12
2040189a:	00f92023          	sw	a5,0(s2)
2040189e:	854a                	mv	a0,s2
204018a0:	119000ef          	jal	ra,204021b8 <__malloc_unlock>
204018a4:	a031                	j	204018b0 <_malloc_r+0x6e>
204018a6:	fa04dde3          	bgez	s1,20401860 <_malloc_r+0x1e>
204018aa:	47b1                	li	a5,12
204018ac:	00f92023          	sw	a5,0(s2)
204018b0:	4501                	li	a0,0
204018b2:	40f2                	lw	ra,28(sp)
204018b4:	4462                	lw	s0,24(sp)
204018b6:	44d2                	lw	s1,20(sp)
204018b8:	4942                	lw	s2,16(sp)
204018ba:	49b2                	lw	s3,12(sp)
204018bc:	6105                	addi	sp,sp,32
204018be:	8082                	ret
204018c0:	401c                	lw	a5,0(s0)
204018c2:	8f85                	sub	a5,a5,s1
204018c4:	0207cf63          	bltz	a5,20401902 <_malloc_r+0xc0>
204018c8:	462d                	li	a2,11
204018ca:	00f67663          	bgeu	a2,a5,204018d6 <_malloc_r+0x94>
204018ce:	c01c                	sw	a5,0(s0)
204018d0:	943e                	add	s0,s0,a5
204018d2:	c004                	sw	s1,0(s0)
204018d4:	a029                	j	204018de <_malloc_r+0x9c>
204018d6:	405c                	lw	a5,4(s0)
204018d8:	02871363          	bne	a4,s0,204018fe <_malloc_r+0xbc>
204018dc:	c29c                	sw	a5,0(a3)
204018de:	854a                	mv	a0,s2
204018e0:	0d9000ef          	jal	ra,204021b8 <__malloc_unlock>
204018e4:	00b40513          	addi	a0,s0,11
204018e8:	00440793          	addi	a5,s0,4
204018ec:	9961                	andi	a0,a0,-8
204018ee:	40f50733          	sub	a4,a0,a5
204018f2:	fcf500e3          	beq	a0,a5,204018b2 <_malloc_r+0x70>
204018f6:	943a                	add	s0,s0,a4
204018f8:	8f89                	sub	a5,a5,a0
204018fa:	c01c                	sw	a5,0(s0)
204018fc:	bf5d                	j	204018b2 <_malloc_r+0x70>
204018fe:	c35c                	sw	a5,4(a4)
20401900:	bff9                	j	204018de <_malloc_r+0x9c>
20401902:	8722                	mv	a4,s0
20401904:	4040                	lw	s0,4(s0)
20401906:	bf85                	j	20401876 <_malloc_r+0x34>
20401908:	00350413          	addi	s0,a0,3
2040190c:	9871                	andi	s0,s0,-4
2040190e:	fc8502e3          	beq	a0,s0,204018d2 <_malloc_r+0x90>
20401912:	40a405b3          	sub	a1,s0,a0
20401916:	854a                	mv	a0,s2
20401918:	2235                	jal	20401a44 <_sbrk_r>
2040191a:	fb351ce3          	bne	a0,s3,204018d2 <_malloc_r+0x90>
2040191e:	bfad                	j	20401898 <_malloc_r+0x56>

20401920 <iprintf>:
printf():
20401920:	715d                	addi	sp,sp,-80
20401922:	d422                	sw	s0,40(sp)
20401924:	d606                	sw	ra,44(sp)
20401926:	842a                	mv	s0,a0
20401928:	da2e                	sw	a1,52(sp)
2040192a:	dc32                	sw	a2,56(sp)
2040192c:	de36                	sw	a3,60(sp)
2040192e:	c0ba                	sw	a4,64(sp)
20401930:	c2be                	sw	a5,68(sp)
20401932:	c4c2                	sw	a6,72(sp)
20401934:	c6c6                	sw	a7,76(sp)
20401936:	5fbff517          	auipc	a0,0x5fbff
2040193a:	e6a52503          	lw	a0,-406(a0) # 800007a0 <_impure_ptr>
2040193e:	c511                	beqz	a0,2040194a <iprintf+0x2a>
20401940:	4d1c                	lw	a5,24(a0)
20401942:	e781                	bnez	a5,2040194a <iprintf+0x2a>
20401944:	c62a                	sw	a0,12(sp)
20401946:	2385                	jal	20401ea6 <__sinit>
20401948:	4532                	lw	a0,12(sp)
2040194a:	450c                	lw	a1,8(a0)
2040194c:	1854                	addi	a3,sp,52
2040194e:	8622                	mv	a2,s0
20401950:	ce36                	sw	a3,28(sp)
20401952:	0d5000ef          	jal	ra,20402226 <_vfiprintf_r>
20401956:	50b2                	lw	ra,44(sp)
20401958:	5422                	lw	s0,40(sp)
2040195a:	6161                	addi	sp,sp,80
2040195c:	8082                	ret

2040195e <_puts_r>:
_puts_r():
2040195e:	1101                	addi	sp,sp,-32
20401960:	ca26                	sw	s1,20(sp)
20401962:	c84a                	sw	s2,16(sp)
20401964:	ce06                	sw	ra,28(sp)
20401966:	cc22                	sw	s0,24(sp)
20401968:	c64e                	sw	s3,12(sp)
2040196a:	c452                	sw	s4,8(sp)
2040196c:	84aa                	mv	s1,a0
2040196e:	892e                	mv	s2,a1
20401970:	c501                	beqz	a0,20401978 <_puts_r+0x1a>
20401972:	4d1c                	lw	a5,24(a0)
20401974:	e391                	bnez	a5,20401978 <_puts_r+0x1a>
20401976:	2b05                	jal	20401ea6 <__sinit>
20401978:	4c9c                	lw	a5,24(s1)
2040197a:	4480                	lw	s0,8(s1)
2040197c:	e399                	bnez	a5,20401982 <_puts_r+0x24>
2040197e:	8526                	mv	a0,s1
20401980:	231d                	jal	20401ea6 <__sinit>
20401982:	fffff797          	auipc	a5,0xfffff
20401986:	a4a78793          	addi	a5,a5,-1462 # 204003cc <__sf_fake_stdin>
2040198a:	02f41c63          	bne	s0,a5,204019c2 <_puts_r+0x64>
2040198e:	40c0                	lw	s0,4(s1)
20401990:	00c45783          	lhu	a5,12(s0)
20401994:	8ba1                	andi	a5,a5,8
20401996:	c7b1                	beqz	a5,204019e2 <_puts_r+0x84>
20401998:	481c                	lw	a5,16(s0)
2040199a:	c7a1                	beqz	a5,204019e2 <_puts_r+0x84>
2040199c:	59fd                	li	s3,-1
2040199e:	4a29                	li	s4,10
204019a0:	441c                	lw	a5,8(s0)
204019a2:	00094583          	lbu	a1,0(s2)
204019a6:	17fd                	addi	a5,a5,-1
204019a8:	e9b1                	bnez	a1,204019fc <_puts_r+0x9e>
204019aa:	c41c                	sw	a5,8(s0)
204019ac:	0607de63          	bgez	a5,20401a28 <_puts_r+0xca>
204019b0:	8622                	mv	a2,s0
204019b2:	45a9                	li	a1,10
204019b4:	8526                	mv	a0,s1
204019b6:	20d1                	jal	20401a7a <__swbuf_r>
204019b8:	57fd                	li	a5,-1
204019ba:	02f50863          	beq	a0,a5,204019ea <_puts_r+0x8c>
204019be:	4529                	li	a0,10
204019c0:	a035                	j	204019ec <_puts_r+0x8e>
204019c2:	fffff797          	auipc	a5,0xfffff
204019c6:	a2a78793          	addi	a5,a5,-1494 # 204003ec <__sf_fake_stdout>
204019ca:	00f41463          	bne	s0,a5,204019d2 <_puts_r+0x74>
204019ce:	4480                	lw	s0,8(s1)
204019d0:	b7c1                	j	20401990 <_puts_r+0x32>
204019d2:	fffff797          	auipc	a5,0xfffff
204019d6:	9da78793          	addi	a5,a5,-1574 # 204003ac <__sf_fake_stderr>
204019da:	faf41be3          	bne	s0,a5,20401990 <_puts_r+0x32>
204019de:	44c0                	lw	s0,12(s1)
204019e0:	bf45                	j	20401990 <_puts_r+0x32>
204019e2:	85a2                	mv	a1,s0
204019e4:	8526                	mv	a0,s1
204019e6:	2a91                	jal	20401b3a <__swsetup_r>
204019e8:	d955                	beqz	a0,2040199c <_puts_r+0x3e>
204019ea:	557d                	li	a0,-1
204019ec:	40f2                	lw	ra,28(sp)
204019ee:	4462                	lw	s0,24(sp)
204019f0:	44d2                	lw	s1,20(sp)
204019f2:	4942                	lw	s2,16(sp)
204019f4:	49b2                	lw	s3,12(sp)
204019f6:	4a22                	lw	s4,8(sp)
204019f8:	6105                	addi	sp,sp,32
204019fa:	8082                	ret
204019fc:	c41c                	sw	a5,8(s0)
204019fe:	0905                	addi	s2,s2,1
20401a00:	0007d763          	bgez	a5,20401a0e <_puts_r+0xb0>
20401a04:	4c18                	lw	a4,24(s0)
20401a06:	00e7cb63          	blt	a5,a4,20401a1c <_puts_r+0xbe>
20401a0a:	01458963          	beq	a1,s4,20401a1c <_puts_r+0xbe>
20401a0e:	401c                	lw	a5,0(s0)
20401a10:	00178713          	addi	a4,a5,1
20401a14:	c018                	sw	a4,0(s0)
20401a16:	00b78023          	sb	a1,0(a5)
20401a1a:	b759                	j	204019a0 <_puts_r+0x42>
20401a1c:	8622                	mv	a2,s0
20401a1e:	8526                	mv	a0,s1
20401a20:	28a9                	jal	20401a7a <__swbuf_r>
20401a22:	f7351fe3          	bne	a0,s3,204019a0 <_puts_r+0x42>
20401a26:	b7d1                	j	204019ea <_puts_r+0x8c>
20401a28:	401c                	lw	a5,0(s0)
20401a2a:	00178713          	addi	a4,a5,1
20401a2e:	c018                	sw	a4,0(s0)
20401a30:	4729                	li	a4,10
20401a32:	00e78023          	sb	a4,0(a5)
20401a36:	b761                	j	204019be <_puts_r+0x60>

20401a38 <puts>:
puts():
20401a38:	85aa                	mv	a1,a0
20401a3a:	5fbff517          	auipc	a0,0x5fbff
20401a3e:	d6652503          	lw	a0,-666(a0) # 800007a0 <_impure_ptr>
20401a42:	bf31                	j	2040195e <_puts_r>

20401a44 <_sbrk_r>:
_sbrk_r():
20401a44:	1141                	addi	sp,sp,-16
20401a46:	c422                	sw	s0,8(sp)
20401a48:	842a                	mv	s0,a0
20401a4a:	852e                	mv	a0,a1
20401a4c:	5fbff797          	auipc	a5,0x5fbff
20401a50:	d807a223          	sw	zero,-636(a5) # 800007d0 <errno>
20401a54:	c606                	sw	ra,12(sp)
20401a56:	094010ef          	jal	ra,20402aea <_sbrk>
20401a5a:	57fd                	li	a5,-1
20401a5c:	00f51863          	bne	a0,a5,20401a6c <_sbrk_r+0x28>
20401a60:	5fbff797          	auipc	a5,0x5fbff
20401a64:	d707a783          	lw	a5,-656(a5) # 800007d0 <errno>
20401a68:	c391                	beqz	a5,20401a6c <_sbrk_r+0x28>
20401a6a:	c01c                	sw	a5,0(s0)
20401a6c:	40b2                	lw	ra,12(sp)
20401a6e:	4422                	lw	s0,8(sp)
20401a70:	0141                	addi	sp,sp,16
20401a72:	8082                	ret

20401a74 <_times_r>:
_times_r():
20401a74:	852e                	mv	a0,a1
20401a76:	1de0106f          	j	20402c54 <_times>

20401a7a <__swbuf_r>:
__swbuf_r():
20401a7a:	1101                	addi	sp,sp,-32
20401a7c:	cc22                	sw	s0,24(sp)
20401a7e:	ca26                	sw	s1,20(sp)
20401a80:	c84a                	sw	s2,16(sp)
20401a82:	ce06                	sw	ra,28(sp)
20401a84:	c64e                	sw	s3,12(sp)
20401a86:	84aa                	mv	s1,a0
20401a88:	892e                	mv	s2,a1
20401a8a:	8432                	mv	s0,a2
20401a8c:	c501                	beqz	a0,20401a94 <__swbuf_r+0x1a>
20401a8e:	4d1c                	lw	a5,24(a0)
20401a90:	e391                	bnez	a5,20401a94 <__swbuf_r+0x1a>
20401a92:	2911                	jal	20401ea6 <__sinit>
20401a94:	fffff797          	auipc	a5,0xfffff
20401a98:	93878793          	addi	a5,a5,-1736 # 204003cc <__sf_fake_stdin>
20401a9c:	06f41963          	bne	s0,a5,20401b0e <__swbuf_r+0x94>
20401aa0:	40c0                	lw	s0,4(s1)
20401aa2:	4c1c                	lw	a5,24(s0)
20401aa4:	c41c                	sw	a5,8(s0)
20401aa6:	00c45783          	lhu	a5,12(s0)
20401aaa:	8ba1                	andi	a5,a5,8
20401aac:	c3c9                	beqz	a5,20401b2e <__swbuf_r+0xb4>
20401aae:	481c                	lw	a5,16(s0)
20401ab0:	cfbd                	beqz	a5,20401b2e <__swbuf_r+0xb4>
20401ab2:	481c                	lw	a5,16(s0)
20401ab4:	4008                	lw	a0,0(s0)
20401ab6:	0ff97993          	zext.b	s3,s2
20401aba:	0ff97913          	zext.b	s2,s2
20401abe:	8d1d                	sub	a0,a0,a5
20401ac0:	485c                	lw	a5,20(s0)
20401ac2:	00f54663          	blt	a0,a5,20401ace <__swbuf_r+0x54>
20401ac6:	85a2                	mv	a1,s0
20401ac8:	8526                	mv	a0,s1
20401aca:	24c1                	jal	20401d8a <_fflush_r>
20401acc:	e52d                	bnez	a0,20401b36 <__swbuf_r+0xbc>
20401ace:	441c                	lw	a5,8(s0)
20401ad0:	0505                	addi	a0,a0,1
20401ad2:	17fd                	addi	a5,a5,-1
20401ad4:	c41c                	sw	a5,8(s0)
20401ad6:	401c                	lw	a5,0(s0)
20401ad8:	00178713          	addi	a4,a5,1
20401adc:	c018                	sw	a4,0(s0)
20401ade:	01378023          	sb	s3,0(a5)
20401ae2:	485c                	lw	a5,20(s0)
20401ae4:	00a78963          	beq	a5,a0,20401af6 <__swbuf_r+0x7c>
20401ae8:	00c45783          	lhu	a5,12(s0)
20401aec:	8b85                	andi	a5,a5,1
20401aee:	cb81                	beqz	a5,20401afe <__swbuf_r+0x84>
20401af0:	47a9                	li	a5,10
20401af2:	00f91663          	bne	s2,a5,20401afe <__swbuf_r+0x84>
20401af6:	85a2                	mv	a1,s0
20401af8:	8526                	mv	a0,s1
20401afa:	2c41                	jal	20401d8a <_fflush_r>
20401afc:	ed0d                	bnez	a0,20401b36 <__swbuf_r+0xbc>
20401afe:	40f2                	lw	ra,28(sp)
20401b00:	4462                	lw	s0,24(sp)
20401b02:	44d2                	lw	s1,20(sp)
20401b04:	49b2                	lw	s3,12(sp)
20401b06:	854a                	mv	a0,s2
20401b08:	4942                	lw	s2,16(sp)
20401b0a:	6105                	addi	sp,sp,32
20401b0c:	8082                	ret
20401b0e:	fffff797          	auipc	a5,0xfffff
20401b12:	8de78793          	addi	a5,a5,-1826 # 204003ec <__sf_fake_stdout>
20401b16:	00f41463          	bne	s0,a5,20401b1e <__swbuf_r+0xa4>
20401b1a:	4480                	lw	s0,8(s1)
20401b1c:	b759                	j	20401aa2 <__swbuf_r+0x28>
20401b1e:	fffff797          	auipc	a5,0xfffff
20401b22:	88e78793          	addi	a5,a5,-1906 # 204003ac <__sf_fake_stderr>
20401b26:	f6f41ee3          	bne	s0,a5,20401aa2 <__swbuf_r+0x28>
20401b2a:	44c0                	lw	s0,12(s1)
20401b2c:	bf9d                	j	20401aa2 <__swbuf_r+0x28>
20401b2e:	85a2                	mv	a1,s0
20401b30:	8526                	mv	a0,s1
20401b32:	2021                	jal	20401b3a <__swsetup_r>
20401b34:	dd3d                	beqz	a0,20401ab2 <__swbuf_r+0x38>
20401b36:	597d                	li	s2,-1
20401b38:	b7d9                	j	20401afe <__swbuf_r+0x84>

20401b3a <__swsetup_r>:
__swsetup_r():
20401b3a:	1141                	addi	sp,sp,-16
20401b3c:	c422                	sw	s0,8(sp)
20401b3e:	c226                	sw	s1,4(sp)
20401b40:	c04a                	sw	s2,0(sp)
20401b42:	c606                	sw	ra,12(sp)
20401b44:	5fbff497          	auipc	s1,0x5fbff
20401b48:	c5c4a483          	lw	s1,-932(s1) # 800007a0 <_impure_ptr>
20401b4c:	892a                	mv	s2,a0
20401b4e:	842e                	mv	s0,a1
20401b50:	c489                	beqz	s1,20401b5a <__swsetup_r+0x20>
20401b52:	4c9c                	lw	a5,24(s1)
20401b54:	e399                	bnez	a5,20401b5a <__swsetup_r+0x20>
20401b56:	8526                	mv	a0,s1
20401b58:	26b9                	jal	20401ea6 <__sinit>
20401b5a:	fffff797          	auipc	a5,0xfffff
20401b5e:	87278793          	addi	a5,a5,-1934 # 204003cc <__sf_fake_stdin>
20401b62:	02f41763          	bne	s0,a5,20401b90 <__swsetup_r+0x56>
20401b66:	40c0                	lw	s0,4(s1)
20401b68:	00c41783          	lh	a5,12(s0)
20401b6c:	01079713          	slli	a4,a5,0x10
20401b70:	0087f693          	andi	a3,a5,8
20401b74:	8341                	srli	a4,a4,0x10
20401b76:	eaad                	bnez	a3,20401be8 <__swsetup_r+0xae>
20401b78:	01077693          	andi	a3,a4,16
20401b7c:	ea95                	bnez	a3,20401bb0 <__swsetup_r+0x76>
20401b7e:	4725                	li	a4,9
20401b80:	00e92023          	sw	a4,0(s2)
20401b84:	0407e793          	ori	a5,a5,64
20401b88:	00f41623          	sh	a5,12(s0)
20401b8c:	557d                	li	a0,-1
20401b8e:	a871                	j	20401c2a <__swsetup_r+0xf0>
20401b90:	fffff797          	auipc	a5,0xfffff
20401b94:	85c78793          	addi	a5,a5,-1956 # 204003ec <__sf_fake_stdout>
20401b98:	00f41463          	bne	s0,a5,20401ba0 <__swsetup_r+0x66>
20401b9c:	4480                	lw	s0,8(s1)
20401b9e:	b7e9                	j	20401b68 <__swsetup_r+0x2e>
20401ba0:	fffff797          	auipc	a5,0xfffff
20401ba4:	80c78793          	addi	a5,a5,-2036 # 204003ac <__sf_fake_stderr>
20401ba8:	fcf410e3          	bne	s0,a5,20401b68 <__swsetup_r+0x2e>
20401bac:	44c0                	lw	s0,12(s1)
20401bae:	bf6d                	j	20401b68 <__swsetup_r+0x2e>
20401bb0:	8b11                	andi	a4,a4,4
20401bb2:	c70d                	beqz	a4,20401bdc <__swsetup_r+0xa2>
20401bb4:	584c                	lw	a1,52(s0)
20401bb6:	c989                	beqz	a1,20401bc8 <__swsetup_r+0x8e>
20401bb8:	04440793          	addi	a5,s0,68
20401bbc:	00f58463          	beq	a1,a5,20401bc4 <__swsetup_r+0x8a>
20401bc0:	854a                	mv	a0,s2
20401bc2:	3ee9                	jal	2040179c <_free_r>
20401bc4:	02042a23          	sw	zero,52(s0)
20401bc8:	00c45783          	lhu	a5,12(s0)
20401bcc:	00042223          	sw	zero,4(s0)
20401bd0:	fdb7f793          	andi	a5,a5,-37
20401bd4:	00f41623          	sh	a5,12(s0)
20401bd8:	481c                	lw	a5,16(s0)
20401bda:	c01c                	sw	a5,0(s0)
20401bdc:	00c45783          	lhu	a5,12(s0)
20401be0:	0087e793          	ori	a5,a5,8
20401be4:	00f41623          	sh	a5,12(s0)
20401be8:	481c                	lw	a5,16(s0)
20401bea:	ef81                	bnez	a5,20401c02 <__swsetup_r+0xc8>
20401bec:	00c45783          	lhu	a5,12(s0)
20401bf0:	20000713          	li	a4,512
20401bf4:	2807f793          	andi	a5,a5,640
20401bf8:	00e78563          	beq	a5,a4,20401c02 <__swsetup_r+0xc8>
20401bfc:	85a2                	mv	a1,s0
20401bfe:	854a                	mv	a0,s2
20401c00:	2985                	jal	20402070 <__smakebuf_r>
20401c02:	00c41783          	lh	a5,12(s0)
20401c06:	01079713          	slli	a4,a5,0x10
20401c0a:	0017f693          	andi	a3,a5,1
20401c0e:	8341                	srli	a4,a4,0x10
20401c10:	c29d                	beqz	a3,20401c36 <__swsetup_r+0xfc>
20401c12:	4854                	lw	a3,20(s0)
20401c14:	00042423          	sw	zero,8(s0)
20401c18:	40d006b3          	neg	a3,a3
20401c1c:	cc14                	sw	a3,24(s0)
20401c1e:	4814                	lw	a3,16(s0)
20401c20:	4501                	li	a0,0
20401c22:	e681                	bnez	a3,20401c2a <__swsetup_r+0xf0>
20401c24:	08077713          	andi	a4,a4,128
20401c28:	ff31                	bnez	a4,20401b84 <__swsetup_r+0x4a>
20401c2a:	40b2                	lw	ra,12(sp)
20401c2c:	4422                	lw	s0,8(sp)
20401c2e:	4492                	lw	s1,4(sp)
20401c30:	4902                	lw	s2,0(sp)
20401c32:	0141                	addi	sp,sp,16
20401c34:	8082                	ret
20401c36:	00277693          	andi	a3,a4,2
20401c3a:	4601                	li	a2,0
20401c3c:	e291                	bnez	a3,20401c40 <__swsetup_r+0x106>
20401c3e:	4850                	lw	a2,20(s0)
20401c40:	c410                	sw	a2,8(s0)
20401c42:	bff1                	j	20401c1e <__swsetup_r+0xe4>

20401c44 <__sflush_r>:
__sflush_r():
20401c44:	00c5d783          	lhu	a5,12(a1)
20401c48:	1101                	addi	sp,sp,-32
20401c4a:	cc22                	sw	s0,24(sp)
20401c4c:	ca26                	sw	s1,20(sp)
20401c4e:	ce06                	sw	ra,28(sp)
20401c50:	c84a                	sw	s2,16(sp)
20401c52:	c64e                	sw	s3,12(sp)
20401c54:	0087f713          	andi	a4,a5,8
20401c58:	84aa                	mv	s1,a0
20401c5a:	842e                	mv	s0,a1
20401c5c:	e375                	bnez	a4,20401d40 <__sflush_r+0xfc>
20401c5e:	41d8                	lw	a4,4(a1)
20401c60:	00e04763          	bgtz	a4,20401c6e <__sflush_r+0x2a>
20401c64:	41b8                	lw	a4,64(a1)
20401c66:	00e04463          	bgtz	a4,20401c6e <__sflush_r+0x2a>
20401c6a:	4501                	li	a0,0
20401c6c:	a875                	j	20401d28 <__sflush_r+0xe4>
20401c6e:	5458                	lw	a4,44(s0)
20401c70:	df6d                	beqz	a4,20401c6a <__sflush_r+0x26>
20401c72:	6685                	lui	a3,0x1
20401c74:	0004a903          	lw	s2,0(s1)
20401c78:	8ff5                	and	a5,a5,a3
20401c7a:	0004a023          	sw	zero,0(s1)
20401c7e:	cfa5                	beqz	a5,20401cf6 <__sflush_r+0xb2>
20401c80:	4868                	lw	a0,84(s0)
20401c82:	00c45783          	lhu	a5,12(s0)
20401c86:	8b91                	andi	a5,a5,4
20401c88:	c799                	beqz	a5,20401c96 <__sflush_r+0x52>
20401c8a:	405c                	lw	a5,4(s0)
20401c8c:	8d1d                	sub	a0,a0,a5
20401c8e:	585c                	lw	a5,52(s0)
20401c90:	c399                	beqz	a5,20401c96 <__sflush_r+0x52>
20401c92:	403c                	lw	a5,64(s0)
20401c94:	8d1d                	sub	a0,a0,a5
20401c96:	545c                	lw	a5,44(s0)
20401c98:	500c                	lw	a1,32(s0)
20401c9a:	862a                	mv	a2,a0
20401c9c:	4681                	li	a3,0
20401c9e:	8526                	mv	a0,s1
20401ca0:	9782                	jalr	a5
20401ca2:	57fd                	li	a5,-1
20401ca4:	00c45703          	lhu	a4,12(s0)
20401ca8:	00f51d63          	bne	a0,a5,20401cc2 <__sflush_r+0x7e>
20401cac:	4094                	lw	a3,0(s1)
20401cae:	47f5                	li	a5,29
20401cb0:	08d7e363          	bltu	a5,a3,20401d36 <__sflush_r+0xf2>
20401cb4:	204007b7          	lui	a5,0x20400
20401cb8:	0785                	addi	a5,a5,1
20401cba:	00d7d7b3          	srl	a5,a5,a3
20401cbe:	8b85                	andi	a5,a5,1
20401cc0:	cbbd                	beqz	a5,20401d36 <__sflush_r+0xf2>
20401cc2:	481c                	lw	a5,16(s0)
20401cc4:	00042223          	sw	zero,4(s0)
20401cc8:	c01c                	sw	a5,0(s0)
20401cca:	6785                	lui	a5,0x1
20401ccc:	8f7d                	and	a4,a4,a5
20401cce:	c719                	beqz	a4,20401cdc <__sflush_r+0x98>
20401cd0:	57fd                	li	a5,-1
20401cd2:	00f51463          	bne	a0,a5,20401cda <__sflush_r+0x96>
20401cd6:	409c                	lw	a5,0(s1)
20401cd8:	e391                	bnez	a5,20401cdc <__sflush_r+0x98>
20401cda:	c868                	sw	a0,84(s0)
20401cdc:	584c                	lw	a1,52(s0)
20401cde:	0124a023          	sw	s2,0(s1)
20401ce2:	d5c1                	beqz	a1,20401c6a <__sflush_r+0x26>
20401ce4:	04440793          	addi	a5,s0,68
20401ce8:	00f58463          	beq	a1,a5,20401cf0 <__sflush_r+0xac>
20401cec:	8526                	mv	a0,s1
20401cee:	347d                	jal	2040179c <_free_r>
20401cf0:	02042a23          	sw	zero,52(s0)
20401cf4:	bf9d                	j	20401c6a <__sflush_r+0x26>
20401cf6:	500c                	lw	a1,32(s0)
20401cf8:	4685                	li	a3,1
20401cfa:	4601                	li	a2,0
20401cfc:	8526                	mv	a0,s1
20401cfe:	9702                	jalr	a4
20401d00:	57fd                	li	a5,-1
20401d02:	f8f510e3          	bne	a0,a5,20401c82 <__sflush_r+0x3e>
20401d06:	409c                	lw	a5,0(s1)
20401d08:	dfad                	beqz	a5,20401c82 <__sflush_r+0x3e>
20401d0a:	4775                	li	a4,29
20401d0c:	00e78563          	beq	a5,a4,20401d16 <__sflush_r+0xd2>
20401d10:	4759                	li	a4,22
20401d12:	00e79563          	bne	a5,a4,20401d1c <__sflush_r+0xd8>
20401d16:	0124a023          	sw	s2,0(s1)
20401d1a:	bf81                	j	20401c6a <__sflush_r+0x26>
20401d1c:	00c45783          	lhu	a5,12(s0)
20401d20:	0407e793          	ori	a5,a5,64
20401d24:	00f41623          	sh	a5,12(s0)
20401d28:	40f2                	lw	ra,28(sp)
20401d2a:	4462                	lw	s0,24(sp)
20401d2c:	44d2                	lw	s1,20(sp)
20401d2e:	4942                	lw	s2,16(sp)
20401d30:	49b2                	lw	s3,12(sp)
20401d32:	6105                	addi	sp,sp,32
20401d34:	8082                	ret
20401d36:	04076713          	ori	a4,a4,64
20401d3a:	00e41623          	sh	a4,12(s0)
20401d3e:	b7ed                	j	20401d28 <__sflush_r+0xe4>
20401d40:	0105a983          	lw	s3,16(a1)
20401d44:	f20983e3          	beqz	s3,20401c6a <__sflush_r+0x26>
20401d48:	0005a903          	lw	s2,0(a1)
20401d4c:	8b8d                	andi	a5,a5,3
20401d4e:	0135a023          	sw	s3,0(a1)
20401d52:	41390933          	sub	s2,s2,s3
20401d56:	4701                	li	a4,0
20401d58:	e391                	bnez	a5,20401d5c <__sflush_r+0x118>
20401d5a:	49d8                	lw	a4,20(a1)
20401d5c:	c418                	sw	a4,8(s0)
20401d5e:	f12056e3          	blez	s2,20401c6a <__sflush_r+0x26>
20401d62:	541c                	lw	a5,40(s0)
20401d64:	500c                	lw	a1,32(s0)
20401d66:	86ca                	mv	a3,s2
20401d68:	864e                	mv	a2,s3
20401d6a:	8526                	mv	a0,s1
20401d6c:	9782                	jalr	a5
20401d6e:	00a04a63          	bgtz	a0,20401d82 <__sflush_r+0x13e>
20401d72:	00c45783          	lhu	a5,12(s0)
20401d76:	557d                	li	a0,-1
20401d78:	0407e793          	ori	a5,a5,64
20401d7c:	00f41623          	sh	a5,12(s0)
20401d80:	b765                	j	20401d28 <__sflush_r+0xe4>
20401d82:	99aa                	add	s3,s3,a0
20401d84:	40a90933          	sub	s2,s2,a0
20401d88:	bfd9                	j	20401d5e <__sflush_r+0x11a>

20401d8a <_fflush_r>:
_fflush_r():
20401d8a:	499c                	lw	a5,16(a1)
20401d8c:	cfb9                	beqz	a5,20401dea <_fflush_r+0x60>
20401d8e:	1101                	addi	sp,sp,-32
20401d90:	cc22                	sw	s0,24(sp)
20401d92:	ce06                	sw	ra,28(sp)
20401d94:	842a                	mv	s0,a0
20401d96:	c511                	beqz	a0,20401da2 <_fflush_r+0x18>
20401d98:	4d1c                	lw	a5,24(a0)
20401d9a:	e781                	bnez	a5,20401da2 <_fflush_r+0x18>
20401d9c:	c62e                	sw	a1,12(sp)
20401d9e:	2221                	jal	20401ea6 <__sinit>
20401da0:	45b2                	lw	a1,12(sp)
20401da2:	ffffe797          	auipc	a5,0xffffe
20401da6:	62a78793          	addi	a5,a5,1578 # 204003cc <__sf_fake_stdin>
20401daa:	00f59b63          	bne	a1,a5,20401dc0 <_fflush_r+0x36>
20401dae:	404c                	lw	a1,4(s0)
20401db0:	00c59783          	lh	a5,12(a1)
20401db4:	c795                	beqz	a5,20401de0 <_fflush_r+0x56>
20401db6:	8522                	mv	a0,s0
20401db8:	4462                	lw	s0,24(sp)
20401dba:	40f2                	lw	ra,28(sp)
20401dbc:	6105                	addi	sp,sp,32
20401dbe:	b559                	j	20401c44 <__sflush_r>
20401dc0:	ffffe797          	auipc	a5,0xffffe
20401dc4:	62c78793          	addi	a5,a5,1580 # 204003ec <__sf_fake_stdout>
20401dc8:	00f59463          	bne	a1,a5,20401dd0 <_fflush_r+0x46>
20401dcc:	440c                	lw	a1,8(s0)
20401dce:	b7cd                	j	20401db0 <_fflush_r+0x26>
20401dd0:	ffffe797          	auipc	a5,0xffffe
20401dd4:	5dc78793          	addi	a5,a5,1500 # 204003ac <__sf_fake_stderr>
20401dd8:	fcf59ce3          	bne	a1,a5,20401db0 <_fflush_r+0x26>
20401ddc:	444c                	lw	a1,12(s0)
20401dde:	bfc9                	j	20401db0 <_fflush_r+0x26>
20401de0:	40f2                	lw	ra,28(sp)
20401de2:	4462                	lw	s0,24(sp)
20401de4:	4501                	li	a0,0
20401de6:	6105                	addi	sp,sp,32
20401de8:	8082                	ret
20401dea:	4501                	li	a0,0
20401dec:	8082                	ret

20401dee <std>:
std():
20401dee:	1141                	addi	sp,sp,-16
20401df0:	c422                	sw	s0,8(sp)
20401df2:	c606                	sw	ra,12(sp)
20401df4:	842a                	mv	s0,a0
20401df6:	00b51623          	sh	a1,12(a0)
20401dfa:	00c51723          	sh	a2,14(a0)
20401dfe:	00052023          	sw	zero,0(a0)
20401e02:	00052223          	sw	zero,4(a0)
20401e06:	00052423          	sw	zero,8(a0)
20401e0a:	06052223          	sw	zero,100(a0)
20401e0e:	00052823          	sw	zero,16(a0)
20401e12:	00052a23          	sw	zero,20(a0)
20401e16:	00052c23          	sw	zero,24(a0)
20401e1a:	4621                	li	a2,8
20401e1c:	4581                	li	a1,0
20401e1e:	05c50513          	addi	a0,a0,92
20401e22:	24f5                	jal	2040210e <memset>
20401e24:	00000797          	auipc	a5,0x0
20401e28:	69678793          	addi	a5,a5,1686 # 204024ba <__sread>
20401e2c:	d05c                	sw	a5,36(s0)
20401e2e:	00000797          	auipc	a5,0x0
20401e32:	6bc78793          	addi	a5,a5,1724 # 204024ea <__swrite>
20401e36:	d41c                	sw	a5,40(s0)
20401e38:	00000797          	auipc	a5,0x0
20401e3c:	70078793          	addi	a5,a5,1792 # 20402538 <__sseek>
20401e40:	d45c                	sw	a5,44(s0)
20401e42:	00000797          	auipc	a5,0x0
20401e46:	72c78793          	addi	a5,a5,1836 # 2040256e <__sclose>
20401e4a:	40b2                	lw	ra,12(sp)
20401e4c:	d000                	sw	s0,32(s0)
20401e4e:	d81c                	sw	a5,48(s0)
20401e50:	4422                	lw	s0,8(sp)
20401e52:	0141                	addi	sp,sp,16
20401e54:	8082                	ret

20401e56 <_cleanup_r>:
_cleanup_r():
20401e56:	00000597          	auipc	a1,0x0
20401e5a:	f3458593          	addi	a1,a1,-204 # 20401d8a <_fflush_r>
20401e5e:	a2b9                	j	20401fac <_fwalk_reent>

20401e60 <__sfmoreglue>:
__sfmoreglue():
20401e60:	1141                	addi	sp,sp,-16
20401e62:	c226                	sw	s1,4(sp)
20401e64:	06800613          	li	a2,104
20401e68:	fff58493          	addi	s1,a1,-1
20401e6c:	02c484b3          	mul	s1,s1,a2
20401e70:	c04a                	sw	s2,0(sp)
20401e72:	892e                	mv	s2,a1
20401e74:	c422                	sw	s0,8(sp)
20401e76:	c606                	sw	ra,12(sp)
20401e78:	07448593          	addi	a1,s1,116
20401e7c:	9c7ff0ef          	jal	ra,20401842 <_malloc_r>
20401e80:	842a                	mv	s0,a0
20401e82:	c919                	beqz	a0,20401e98 <__sfmoreglue+0x38>
20401e84:	00052023          	sw	zero,0(a0)
20401e88:	01252223          	sw	s2,4(a0)
20401e8c:	0531                	addi	a0,a0,12
20401e8e:	c408                	sw	a0,8(s0)
20401e90:	06848613          	addi	a2,s1,104
20401e94:	4581                	li	a1,0
20401e96:	2ca5                	jal	2040210e <memset>
20401e98:	40b2                	lw	ra,12(sp)
20401e9a:	8522                	mv	a0,s0
20401e9c:	4422                	lw	s0,8(sp)
20401e9e:	4492                	lw	s1,4(sp)
20401ea0:	4902                	lw	s2,0(sp)
20401ea2:	0141                	addi	sp,sp,16
20401ea4:	8082                	ret

20401ea6 <__sinit>:
__sinit():
20401ea6:	4d1c                	lw	a5,24(a0)
20401ea8:	e3bd                	bnez	a5,20401f0e <__sinit+0x68>
20401eaa:	1141                	addi	sp,sp,-16
20401eac:	c422                	sw	s0,8(sp)
20401eae:	c606                	sw	ra,12(sp)
20401eb0:	00000797          	auipc	a5,0x0
20401eb4:	fa678793          	addi	a5,a5,-90 # 20401e56 <_cleanup_r>
20401eb8:	d51c                	sw	a5,40(a0)
20401eba:	04052423          	sw	zero,72(a0)
20401ebe:	04052623          	sw	zero,76(a0)
20401ec2:	04052823          	sw	zero,80(a0)
20401ec6:	fffff797          	auipc	a5,0xfffff
20401eca:	22a7a783          	lw	a5,554(a5) # 204010f0 <_global_impure_ptr>
20401ece:	842a                	mv	s0,a0
20401ed0:	00f51463          	bne	a0,a5,20401ed8 <__sinit+0x32>
20401ed4:	4785                	li	a5,1
20401ed6:	cd1c                	sw	a5,24(a0)
20401ed8:	8522                	mv	a0,s0
20401eda:	281d                	jal	20401f10 <__sfp>
20401edc:	c048                	sw	a0,4(s0)
20401ede:	8522                	mv	a0,s0
20401ee0:	2805                	jal	20401f10 <__sfp>
20401ee2:	c408                	sw	a0,8(s0)
20401ee4:	8522                	mv	a0,s0
20401ee6:	202d                	jal	20401f10 <__sfp>
20401ee8:	c448                	sw	a0,12(s0)
20401eea:	4048                	lw	a0,4(s0)
20401eec:	4601                	li	a2,0
20401eee:	4591                	li	a1,4
20401ef0:	3dfd                	jal	20401dee <std>
20401ef2:	4408                	lw	a0,8(s0)
20401ef4:	4605                	li	a2,1
20401ef6:	45a5                	li	a1,9
20401ef8:	3ddd                	jal	20401dee <std>
20401efa:	4448                	lw	a0,12(s0)
20401efc:	4609                	li	a2,2
20401efe:	45c9                	li	a1,18
20401f00:	35fd                	jal	20401dee <std>
20401f02:	4785                	li	a5,1
20401f04:	40b2                	lw	ra,12(sp)
20401f06:	cc1c                	sw	a5,24(s0)
20401f08:	4422                	lw	s0,8(sp)
20401f0a:	0141                	addi	sp,sp,16
20401f0c:	8082                	ret
20401f0e:	8082                	ret

20401f10 <__sfp>:
__sfp():
20401f10:	1141                	addi	sp,sp,-16
20401f12:	c226                	sw	s1,4(sp)
20401f14:	fffff497          	auipc	s1,0xfffff
20401f18:	1dc4a483          	lw	s1,476(s1) # 204010f0 <_global_impure_ptr>
20401f1c:	4c9c                	lw	a5,24(s1)
20401f1e:	c04a                	sw	s2,0(sp)
20401f20:	c606                	sw	ra,12(sp)
20401f22:	c422                	sw	s0,8(sp)
20401f24:	892a                	mv	s2,a0
20401f26:	e399                	bnez	a5,20401f2c <__sfp+0x1c>
20401f28:	8526                	mv	a0,s1
20401f2a:	3fb5                	jal	20401ea6 <__sinit>
20401f2c:	04848493          	addi	s1,s1,72
20401f30:	4480                	lw	s0,8(s1)
20401f32:	40dc                	lw	a5,4(s1)
20401f34:	17fd                	addi	a5,a5,-1
20401f36:	0007d663          	bgez	a5,20401f42 <__sfp+0x32>
20401f3a:	409c                	lw	a5,0(s1)
20401f3c:	cfb1                	beqz	a5,20401f98 <__sfp+0x88>
20401f3e:	4084                	lw	s1,0(s1)
20401f40:	bfc5                	j	20401f30 <__sfp+0x20>
20401f42:	00c41703          	lh	a4,12(s0)
20401f46:	e731                	bnez	a4,20401f92 <__sfp+0x82>
20401f48:	77c1                	lui	a5,0xffff0
20401f4a:	0785                	addi	a5,a5,1
20401f4c:	06042223          	sw	zero,100(s0)
20401f50:	00042023          	sw	zero,0(s0)
20401f54:	00042223          	sw	zero,4(s0)
20401f58:	00042423          	sw	zero,8(s0)
20401f5c:	c45c                	sw	a5,12(s0)
20401f5e:	00042823          	sw	zero,16(s0)
20401f62:	00042a23          	sw	zero,20(s0)
20401f66:	00042c23          	sw	zero,24(s0)
20401f6a:	4621                	li	a2,8
20401f6c:	4581                	li	a1,0
20401f6e:	05c40513          	addi	a0,s0,92
20401f72:	2a71                	jal	2040210e <memset>
20401f74:	02042a23          	sw	zero,52(s0)
20401f78:	02042c23          	sw	zero,56(s0)
20401f7c:	04042423          	sw	zero,72(s0)
20401f80:	04042623          	sw	zero,76(s0)
20401f84:	40b2                	lw	ra,12(sp)
20401f86:	8522                	mv	a0,s0
20401f88:	4422                	lw	s0,8(sp)
20401f8a:	4492                	lw	s1,4(sp)
20401f8c:	4902                	lw	s2,0(sp)
20401f8e:	0141                	addi	sp,sp,16
20401f90:	8082                	ret
20401f92:	06840413          	addi	s0,s0,104
20401f96:	bf79                	j	20401f34 <__sfp+0x24>
20401f98:	4591                	li	a1,4
20401f9a:	854a                	mv	a0,s2
20401f9c:	35d1                	jal	20401e60 <__sfmoreglue>
20401f9e:	c088                	sw	a0,0(s1)
20401fa0:	842a                	mv	s0,a0
20401fa2:	fd51                	bnez	a0,20401f3e <__sfp+0x2e>
20401fa4:	47b1                	li	a5,12
20401fa6:	00f92023          	sw	a5,0(s2)
20401faa:	bfe9                	j	20401f84 <__sfp+0x74>

20401fac <_fwalk_reent>:
_fwalk_reent():
20401fac:	7179                	addi	sp,sp,-48
20401fae:	d422                	sw	s0,40(sp)
20401fb0:	d04a                	sw	s2,32(sp)
20401fb2:	ce4e                	sw	s3,28(sp)
20401fb4:	cc52                	sw	s4,24(sp)
20401fb6:	c85a                	sw	s6,16(sp)
20401fb8:	c65e                	sw	s7,12(sp)
20401fba:	d606                	sw	ra,44(sp)
20401fbc:	d226                	sw	s1,36(sp)
20401fbe:	ca56                	sw	s5,20(sp)
20401fc0:	892a                	mv	s2,a0
20401fc2:	8a2e                	mv	s4,a1
20401fc4:	04850413          	addi	s0,a0,72
20401fc8:	4981                	li	s3,0
20401fca:	4b05                	li	s6,1
20401fcc:	5bfd                	li	s7,-1
20401fce:	4404                	lw	s1,8(s0)
20401fd0:	00442a83          	lw	s5,4(s0)
20401fd4:	1afd                	addi	s5,s5,-1
20401fd6:	020ad063          	bgez	s5,20401ff6 <_fwalk_reent+0x4a>
20401fda:	4000                	lw	s0,0(s0)
20401fdc:	f86d                	bnez	s0,20401fce <_fwalk_reent+0x22>
20401fde:	50b2                	lw	ra,44(sp)
20401fe0:	5422                	lw	s0,40(sp)
20401fe2:	5492                	lw	s1,36(sp)
20401fe4:	5902                	lw	s2,32(sp)
20401fe6:	4a62                	lw	s4,24(sp)
20401fe8:	4ad2                	lw	s5,20(sp)
20401fea:	4b42                	lw	s6,16(sp)
20401fec:	4bb2                	lw	s7,12(sp)
20401fee:	854e                	mv	a0,s3
20401ff0:	49f2                	lw	s3,28(sp)
20401ff2:	6145                	addi	sp,sp,48
20401ff4:	8082                	ret
20401ff6:	00c4d783          	lhu	a5,12(s1)
20401ffa:	00fb7b63          	bgeu	s6,a5,20402010 <_fwalk_reent+0x64>
20401ffe:	00e49783          	lh	a5,14(s1)
20402002:	01778763          	beq	a5,s7,20402010 <_fwalk_reent+0x64>
20402006:	85a6                	mv	a1,s1
20402008:	854a                	mv	a0,s2
2040200a:	9a02                	jalr	s4
2040200c:	00a9e9b3          	or	s3,s3,a0
20402010:	06848493          	addi	s1,s1,104
20402014:	b7c1                	j	20401fd4 <_fwalk_reent+0x28>

20402016 <__swhatbuf_r>:
__swhatbuf_r():
20402016:	7159                	addi	sp,sp,-112
20402018:	d0ca                	sw	s2,96(sp)
2040201a:	892e                	mv	s2,a1
2040201c:	00e59583          	lh	a1,14(a1)
20402020:	d4a2                	sw	s0,104(sp)
20402022:	d2a6                	sw	s1,100(sp)
20402024:	d686                	sw	ra,108(sp)
20402026:	8432                	mv	s0,a2
20402028:	84b6                	mv	s1,a3
2040202a:	0005dc63          	bgez	a1,20402042 <__swhatbuf_r+0x2c>
2040202e:	00c91783          	lh	a5,12(s2)
20402032:	0004a023          	sw	zero,0(s1)
20402036:	0807f793          	andi	a5,a5,128
2040203a:	e38d                	bnez	a5,2040205c <__swhatbuf_r+0x46>
2040203c:	40000793          	li	a5,1024
20402040:	a005                	j	20402060 <__swhatbuf_r+0x4a>
20402042:	0030                	addi	a2,sp,8
20402044:	2b49                	jal	204025d6 <_fstat_r>
20402046:	fe0544e3          	bltz	a0,2040202e <__swhatbuf_r+0x18>
2040204a:	4732                	lw	a4,12(sp)
2040204c:	67bd                	lui	a5,0xf
2040204e:	8ff9                	and	a5,a5,a4
20402050:	7779                	lui	a4,0xffffe
20402052:	97ba                	add	a5,a5,a4
20402054:	0017b793          	seqz	a5,a5
20402058:	c09c                	sw	a5,0(s1)
2040205a:	b7cd                	j	2040203c <__swhatbuf_r+0x26>
2040205c:	04000793          	li	a5,64
20402060:	50b6                	lw	ra,108(sp)
20402062:	c01c                	sw	a5,0(s0)
20402064:	5426                	lw	s0,104(sp)
20402066:	5496                	lw	s1,100(sp)
20402068:	5906                	lw	s2,96(sp)
2040206a:	4501                	li	a0,0
2040206c:	6165                	addi	sp,sp,112
2040206e:	8082                	ret

20402070 <__smakebuf_r>:
__smakebuf_r():
20402070:	00c5d783          	lhu	a5,12(a1)
20402074:	1101                	addi	sp,sp,-32
20402076:	cc22                	sw	s0,24(sp)
20402078:	ce06                	sw	ra,28(sp)
2040207a:	ca26                	sw	s1,20(sp)
2040207c:	c84a                	sw	s2,16(sp)
2040207e:	8b89                	andi	a5,a5,2
20402080:	842e                	mv	s0,a1
20402082:	cf89                	beqz	a5,2040209c <__smakebuf_r+0x2c>
20402084:	04740793          	addi	a5,s0,71
20402088:	c01c                	sw	a5,0(s0)
2040208a:	c81c                	sw	a5,16(s0)
2040208c:	4785                	li	a5,1
2040208e:	c85c                	sw	a5,20(s0)
20402090:	40f2                	lw	ra,28(sp)
20402092:	4462                	lw	s0,24(sp)
20402094:	44d2                	lw	s1,20(sp)
20402096:	4942                	lw	s2,16(sp)
20402098:	6105                	addi	sp,sp,32
2040209a:	8082                	ret
2040209c:	0074                	addi	a3,sp,12
2040209e:	0030                	addi	a2,sp,8
204020a0:	892a                	mv	s2,a0
204020a2:	3f95                	jal	20402016 <__swhatbuf_r>
204020a4:	45a2                	lw	a1,8(sp)
204020a6:	84aa                	mv	s1,a0
204020a8:	854a                	mv	a0,s2
204020aa:	f98ff0ef          	jal	ra,20401842 <_malloc_r>
204020ae:	ed01                	bnez	a0,204020c6 <__smakebuf_r+0x56>
204020b0:	00c41783          	lh	a5,12(s0)
204020b4:	2007f713          	andi	a4,a5,512
204020b8:	ff61                	bnez	a4,20402090 <__smakebuf_r+0x20>
204020ba:	9bf1                	andi	a5,a5,-4
204020bc:	0027e793          	ori	a5,a5,2
204020c0:	00f41623          	sh	a5,12(s0)
204020c4:	b7c1                	j	20402084 <__smakebuf_r+0x14>
204020c6:	00000797          	auipc	a5,0x0
204020ca:	d9078793          	addi	a5,a5,-624 # 20401e56 <_cleanup_r>
204020ce:	02f92423          	sw	a5,40(s2)
204020d2:	00c45783          	lhu	a5,12(s0)
204020d6:	c008                	sw	a0,0(s0)
204020d8:	c808                	sw	a0,16(s0)
204020da:	0807e793          	ori	a5,a5,128
204020de:	00f41623          	sh	a5,12(s0)
204020e2:	47a2                	lw	a5,8(sp)
204020e4:	c85c                	sw	a5,20(s0)
204020e6:	47b2                	lw	a5,12(sp)
204020e8:	cf89                	beqz	a5,20402102 <__smakebuf_r+0x92>
204020ea:	00e41583          	lh	a1,14(s0)
204020ee:	854a                	mv	a0,s2
204020f0:	2b19                	jal	20402606 <_isatty_r>
204020f2:	c901                	beqz	a0,20402102 <__smakebuf_r+0x92>
204020f4:	00c45783          	lhu	a5,12(s0)
204020f8:	9bf1                	andi	a5,a5,-4
204020fa:	0017e793          	ori	a5,a5,1
204020fe:	00f41623          	sh	a5,12(s0)
20402102:	00c45503          	lhu	a0,12(s0)
20402106:	8cc9                	or	s1,s1,a0
20402108:	00941623          	sh	s1,12(s0)
2040210c:	b751                	j	20402090 <__smakebuf_r+0x20>

2040210e <memset>:
memset():
2040210e:	433d                	li	t1,15
20402110:	872a                	mv	a4,a0
20402112:	02c37363          	bgeu	t1,a2,20402138 <memset+0x2a>
20402116:	00f77793          	andi	a5,a4,15
2040211a:	efbd                	bnez	a5,20402198 <memset+0x8a>
2040211c:	e5ad                	bnez	a1,20402186 <memset+0x78>
2040211e:	ff067693          	andi	a3,a2,-16
20402122:	8a3d                	andi	a2,a2,15
20402124:	96ba                	add	a3,a3,a4
20402126:	c30c                	sw	a1,0(a4)
20402128:	c34c                	sw	a1,4(a4)
2040212a:	c70c                	sw	a1,8(a4)
2040212c:	c74c                	sw	a1,12(a4)
2040212e:	0741                	addi	a4,a4,16
20402130:	fed76be3          	bltu	a4,a3,20402126 <memset+0x18>
20402134:	e211                	bnez	a2,20402138 <memset+0x2a>
20402136:	8082                	ret
20402138:	40c306b3          	sub	a3,t1,a2
2040213c:	068a                	slli	a3,a3,0x2
2040213e:	00000297          	auipc	t0,0x0
20402142:	9696                	add	a3,a3,t0
20402144:	00a68067          	jr	10(a3) # 100a <__heap_size+0x80a>
20402148:	00b70723          	sb	a1,14(a4) # ffffe00e <metal_segment_heap_target_end+0x7fffc53e>
2040214c:	00b706a3          	sb	a1,13(a4)
20402150:	00b70623          	sb	a1,12(a4)
20402154:	00b705a3          	sb	a1,11(a4)
20402158:	00b70523          	sb	a1,10(a4)
2040215c:	00b704a3          	sb	a1,9(a4)
20402160:	00b70423          	sb	a1,8(a4)
20402164:	00b703a3          	sb	a1,7(a4)
20402168:	00b70323          	sb	a1,6(a4)
2040216c:	00b702a3          	sb	a1,5(a4)
20402170:	00b70223          	sb	a1,4(a4)
20402174:	00b701a3          	sb	a1,3(a4)
20402178:	00b70123          	sb	a1,2(a4)
2040217c:	00b700a3          	sb	a1,1(a4)
20402180:	00b70023          	sb	a1,0(a4)
20402184:	8082                	ret
20402186:	0ff5f593          	zext.b	a1,a1
2040218a:	00859693          	slli	a3,a1,0x8
2040218e:	8dd5                	or	a1,a1,a3
20402190:	01059693          	slli	a3,a1,0x10
20402194:	8dd5                	or	a1,a1,a3
20402196:	b761                	j	2040211e <memset+0x10>
20402198:	00279693          	slli	a3,a5,0x2
2040219c:	00000297          	auipc	t0,0x0
204021a0:	9696                	add	a3,a3,t0
204021a2:	8286                	mv	t0,ra
204021a4:	fa8680e7          	jalr	-88(a3)
204021a8:	8096                	mv	ra,t0
204021aa:	17c1                	addi	a5,a5,-16
204021ac:	8f1d                	sub	a4,a4,a5
204021ae:	963e                	add	a2,a2,a5
204021b0:	f8c374e3          	bgeu	t1,a2,20402138 <memset+0x2a>
204021b4:	b7a5                	j	2040211c <memset+0xe>

204021b6 <__malloc_lock>:
__malloc_lock():
204021b6:	8082                	ret

204021b8 <__malloc_unlock>:
__malloc_unlock():
204021b8:	8082                	ret

204021ba <__sfputc_r>:
__sfputc_r():
204021ba:	461c                	lw	a5,8(a2)
204021bc:	17fd                	addi	a5,a5,-1
204021be:	c61c                	sw	a5,8(a2)
204021c0:	0007da63          	bgez	a5,204021d4 <__sfputc_r+0x1a>
204021c4:	4e18                	lw	a4,24(a2)
204021c6:	00e7c563          	blt	a5,a4,204021d0 <__sfputc_r+0x16>
204021ca:	47a9                	li	a5,10
204021cc:	00f59463          	bne	a1,a5,204021d4 <__sfputc_r+0x1a>
204021d0:	8abff06f          	j	20401a7a <__swbuf_r>
204021d4:	421c                	lw	a5,0(a2)
204021d6:	852e                	mv	a0,a1
204021d8:	00178713          	addi	a4,a5,1
204021dc:	c218                	sw	a4,0(a2)
204021de:	00b78023          	sb	a1,0(a5)
204021e2:	8082                	ret

204021e4 <__sfputs_r>:
__sfputs_r():
204021e4:	1101                	addi	sp,sp,-32
204021e6:	cc22                	sw	s0,24(sp)
204021e8:	ca26                	sw	s1,20(sp)
204021ea:	c84a                	sw	s2,16(sp)
204021ec:	c64e                	sw	s3,12(sp)
204021ee:	c452                	sw	s4,8(sp)
204021f0:	ce06                	sw	ra,28(sp)
204021f2:	892a                	mv	s2,a0
204021f4:	89ae                	mv	s3,a1
204021f6:	8432                	mv	s0,a2
204021f8:	00d604b3          	add	s1,a2,a3
204021fc:	5a7d                	li	s4,-1
204021fe:	00941463          	bne	s0,s1,20402206 <__sfputs_r+0x22>
20402202:	4501                	li	a0,0
20402204:	a809                	j	20402216 <__sfputs_r+0x32>
20402206:	00044583          	lbu	a1,0(s0)
2040220a:	864e                	mv	a2,s3
2040220c:	854a                	mv	a0,s2
2040220e:	3775                	jal	204021ba <__sfputc_r>
20402210:	0405                	addi	s0,s0,1
20402212:	ff4516e3          	bne	a0,s4,204021fe <__sfputs_r+0x1a>
20402216:	40f2                	lw	ra,28(sp)
20402218:	4462                	lw	s0,24(sp)
2040221a:	44d2                	lw	s1,20(sp)
2040221c:	4942                	lw	s2,16(sp)
2040221e:	49b2                	lw	s3,12(sp)
20402220:	4a22                	lw	s4,8(sp)
20402222:	6105                	addi	sp,sp,32
20402224:	8082                	ret

20402226 <_vfiprintf_r>:
_vfiprintf_r():
20402226:	7135                	addi	sp,sp,-160
20402228:	cd22                	sw	s0,152(sp)
2040222a:	cb26                	sw	s1,148(sp)
2040222c:	c94a                	sw	s2,144(sp)
2040222e:	c74e                	sw	s3,140(sp)
20402230:	cf06                	sw	ra,156(sp)
20402232:	c552                	sw	s4,136(sp)
20402234:	c356                	sw	s5,132(sp)
20402236:	c15a                	sw	s6,128(sp)
20402238:	dede                	sw	s7,124(sp)
2040223a:	dce2                	sw	s8,120(sp)
2040223c:	dae6                	sw	s9,116(sp)
2040223e:	89aa                	mv	s3,a0
20402240:	84ae                	mv	s1,a1
20402242:	8932                	mv	s2,a2
20402244:	8436                	mv	s0,a3
20402246:	c501                	beqz	a0,2040224e <_vfiprintf_r+0x28>
20402248:	4d1c                	lw	a5,24(a0)
2040224a:	e391                	bnez	a5,2040224e <_vfiprintf_r+0x28>
2040224c:	39a9                	jal	20401ea6 <__sinit>
2040224e:	ffffe797          	auipc	a5,0xffffe
20402252:	17e78793          	addi	a5,a5,382 # 204003cc <__sf_fake_stdin>
20402256:	0cf49b63          	bne	s1,a5,2040232c <_vfiprintf_r+0x106>
2040225a:	0049a483          	lw	s1,4(s3)
2040225e:	00c4d783          	lhu	a5,12(s1)
20402262:	8ba1                	andi	a5,a5,8
20402264:	c7f5                	beqz	a5,20402350 <_vfiprintf_r+0x12a>
20402266:	489c                	lw	a5,16(s1)
20402268:	c7e5                	beqz	a5,20402350 <_vfiprintf_r+0x12a>
2040226a:	02000793          	li	a5,32
2040226e:	02f104a3          	sb	a5,41(sp)
20402272:	03000793          	li	a5,48
20402276:	d202                	sw	zero,36(sp)
20402278:	02f10523          	sb	a5,42(sp)
2040227c:	c622                	sw	s0,12(sp)
2040227e:	02500b93          	li	s7,37
20402282:	ffffea97          	auipc	s5,0xffffe
20402286:	18aa8a93          	addi	s5,s5,394 # 2040040c <__sf_fake_stdout+0x20>
2040228a:	4c05                	li	s8,1
2040228c:	4b29                	li	s6,10
2040228e:	844a                	mv	s0,s2
20402290:	00044783          	lbu	a5,0(s0)
20402294:	c399                	beqz	a5,2040229a <_vfiprintf_r+0x74>
20402296:	0f779063          	bne	a5,s7,20402376 <_vfiprintf_r+0x150>
2040229a:	41240cb3          	sub	s9,s0,s2
2040229e:	01240d63          	beq	s0,s2,204022b8 <_vfiprintf_r+0x92>
204022a2:	86e6                	mv	a3,s9
204022a4:	864a                	mv	a2,s2
204022a6:	85a6                	mv	a1,s1
204022a8:	854e                	mv	a0,s3
204022aa:	3f2d                	jal	204021e4 <__sfputs_r>
204022ac:	57fd                	li	a5,-1
204022ae:	1ef50463          	beq	a0,a5,20402496 <_vfiprintf_r+0x270>
204022b2:	5792                	lw	a5,36(sp)
204022b4:	97e6                	add	a5,a5,s9
204022b6:	d23e                	sw	a5,36(sp)
204022b8:	00044783          	lbu	a5,0(s0)
204022bc:	1c078d63          	beqz	a5,20402496 <_vfiprintf_r+0x270>
204022c0:	57fd                	li	a5,-1
204022c2:	00140913          	addi	s2,s0,1
204022c6:	c802                	sw	zero,16(sp)
204022c8:	ce02                	sw	zero,28(sp)
204022ca:	ca3e                	sw	a5,20(sp)
204022cc:	cc02                	sw	zero,24(sp)
204022ce:	040109a3          	sb	zero,83(sp)
204022d2:	d482                	sw	zero,104(sp)
204022d4:	00094583          	lbu	a1,0(s2)
204022d8:	4615                	li	a2,5
204022da:	8556                	mv	a0,s5
204022dc:	2669                	jal	20402666 <memchr>
204022de:	47c2                	lw	a5,16(sp)
204022e0:	00190413          	addi	s0,s2,1
204022e4:	e959                	bnez	a0,2040237a <_vfiprintf_r+0x154>
204022e6:	0107f713          	andi	a4,a5,16
204022ea:	c709                	beqz	a4,204022f4 <_vfiprintf_r+0xce>
204022ec:	02000713          	li	a4,32
204022f0:	04e109a3          	sb	a4,83(sp)
204022f4:	0087f713          	andi	a4,a5,8
204022f8:	c709                	beqz	a4,20402302 <_vfiprintf_r+0xdc>
204022fa:	02b00713          	li	a4,43
204022fe:	04e109a3          	sb	a4,83(sp)
20402302:	00094683          	lbu	a3,0(s2)
20402306:	02a00713          	li	a4,42
2040230a:	08e68063          	beq	a3,a4,2040238a <_vfiprintf_r+0x164>
2040230e:	47f2                	lw	a5,28(sp)
20402310:	844a                	mv	s0,s2
20402312:	4681                	li	a3,0
20402314:	4625                	li	a2,9
20402316:	00044703          	lbu	a4,0(s0)
2040231a:	00140593          	addi	a1,s0,1
2040231e:	fd070713          	addi	a4,a4,-48
20402322:	0ae67963          	bgeu	a2,a4,204023d4 <_vfiprintf_r+0x1ae>
20402326:	cab5                	beqz	a3,2040239a <_vfiprintf_r+0x174>
20402328:	ce3e                	sw	a5,28(sp)
2040232a:	a885                	j	2040239a <_vfiprintf_r+0x174>
2040232c:	ffffe797          	auipc	a5,0xffffe
20402330:	0c078793          	addi	a5,a5,192 # 204003ec <__sf_fake_stdout>
20402334:	00f49563          	bne	s1,a5,2040233e <_vfiprintf_r+0x118>
20402338:	0089a483          	lw	s1,8(s3)
2040233c:	b70d                	j	2040225e <_vfiprintf_r+0x38>
2040233e:	ffffe797          	auipc	a5,0xffffe
20402342:	06e78793          	addi	a5,a5,110 # 204003ac <__sf_fake_stderr>
20402346:	f0f49ce3          	bne	s1,a5,2040225e <_vfiprintf_r+0x38>
2040234a:	00c9a483          	lw	s1,12(s3)
2040234e:	bf01                	j	2040225e <_vfiprintf_r+0x38>
20402350:	85a6                	mv	a1,s1
20402352:	854e                	mv	a0,s3
20402354:	fe6ff0ef          	jal	ra,20401b3a <__swsetup_r>
20402358:	d909                	beqz	a0,2040226a <_vfiprintf_r+0x44>
2040235a:	557d                	li	a0,-1
2040235c:	40fa                	lw	ra,156(sp)
2040235e:	446a                	lw	s0,152(sp)
20402360:	44da                	lw	s1,148(sp)
20402362:	494a                	lw	s2,144(sp)
20402364:	49ba                	lw	s3,140(sp)
20402366:	4a2a                	lw	s4,136(sp)
20402368:	4a9a                	lw	s5,132(sp)
2040236a:	4b0a                	lw	s6,128(sp)
2040236c:	5bf6                	lw	s7,124(sp)
2040236e:	5c66                	lw	s8,120(sp)
20402370:	5cd6                	lw	s9,116(sp)
20402372:	610d                	addi	sp,sp,160
20402374:	8082                	ret
20402376:	0405                	addi	s0,s0,1
20402378:	bf21                	j	20402290 <_vfiprintf_r+0x6a>
2040237a:	41550533          	sub	a0,a0,s5
2040237e:	00ac1533          	sll	a0,s8,a0
20402382:	8fc9                	or	a5,a5,a0
20402384:	c83e                	sw	a5,16(sp)
20402386:	8922                	mv	s2,s0
20402388:	b7b1                	j	204022d4 <_vfiprintf_r+0xae>
2040238a:	4732                	lw	a4,12(sp)
2040238c:	00470693          	addi	a3,a4,4
20402390:	4318                	lw	a4,0(a4)
20402392:	c636                	sw	a3,12(sp)
20402394:	02074963          	bltz	a4,204023c6 <_vfiprintf_r+0x1a0>
20402398:	ce3a                	sw	a4,28(sp)
2040239a:	00044703          	lbu	a4,0(s0)
2040239e:	02e00793          	li	a5,46
204023a2:	04f71f63          	bne	a4,a5,20402400 <_vfiprintf_r+0x1da>
204023a6:	00144703          	lbu	a4,1(s0)
204023aa:	02a00793          	li	a5,42
204023ae:	02f71b63          	bne	a4,a5,204023e4 <_vfiprintf_r+0x1be>
204023b2:	47b2                	lw	a5,12(sp)
204023b4:	0409                	addi	s0,s0,2
204023b6:	00478713          	addi	a4,a5,4
204023ba:	439c                	lw	a5,0(a5)
204023bc:	c63a                	sw	a4,12(sp)
204023be:	0207c163          	bltz	a5,204023e0 <_vfiprintf_r+0x1ba>
204023c2:	ca3e                	sw	a5,20(sp)
204023c4:	a835                	j	20402400 <_vfiprintf_r+0x1da>
204023c6:	40e00733          	neg	a4,a4
204023ca:	0027e793          	ori	a5,a5,2
204023ce:	ce3a                	sw	a4,28(sp)
204023d0:	c83e                	sw	a5,16(sp)
204023d2:	b7e1                	j	2040239a <_vfiprintf_r+0x174>
204023d4:	036787b3          	mul	a5,a5,s6
204023d8:	842e                	mv	s0,a1
204023da:	4685                	li	a3,1
204023dc:	97ba                	add	a5,a5,a4
204023de:	bf25                	j	20402316 <_vfiprintf_r+0xf0>
204023e0:	57fd                	li	a5,-1
204023e2:	b7c5                	j	204023c2 <_vfiprintf_r+0x19c>
204023e4:	0405                	addi	s0,s0,1
204023e6:	ca02                	sw	zero,20(sp)
204023e8:	4681                	li	a3,0
204023ea:	4781                	li	a5,0
204023ec:	4625                	li	a2,9
204023ee:	00044703          	lbu	a4,0(s0)
204023f2:	00140593          	addi	a1,s0,1
204023f6:	fd070713          	addi	a4,a4,-48
204023fa:	06e67463          	bgeu	a2,a4,20402462 <_vfiprintf_r+0x23c>
204023fe:	f2f1                	bnez	a3,204023c2 <_vfiprintf_r+0x19c>
20402400:	00044583          	lbu	a1,0(s0)
20402404:	460d                	li	a2,3
20402406:	ffffe517          	auipc	a0,0xffffe
2040240a:	00e50513          	addi	a0,a0,14 # 20400414 <__sf_fake_stdout+0x28>
2040240e:	2ca1                	jal	20402666 <memchr>
20402410:	cd11                	beqz	a0,2040242c <_vfiprintf_r+0x206>
20402412:	ffffe797          	auipc	a5,0xffffe
20402416:	00278793          	addi	a5,a5,2 # 20400414 <__sf_fake_stdout+0x28>
2040241a:	8d1d                	sub	a0,a0,a5
2040241c:	04000793          	li	a5,64
20402420:	00a797b3          	sll	a5,a5,a0
20402424:	4542                	lw	a0,16(sp)
20402426:	0405                	addi	s0,s0,1
20402428:	8d5d                	or	a0,a0,a5
2040242a:	c82a                	sw	a0,16(sp)
2040242c:	00044583          	lbu	a1,0(s0)
20402430:	4619                	li	a2,6
20402432:	ffffe517          	auipc	a0,0xffffe
20402436:	fe650513          	addi	a0,a0,-26 # 20400418 <__sf_fake_stdout+0x2c>
2040243a:	00140913          	addi	s2,s0,1
2040243e:	02b10423          	sb	a1,40(sp)
20402442:	2415                	jal	20402666 <memchr>
20402444:	c12d                	beqz	a0,204024a6 <_vfiprintf_r+0x280>
20402446:	00000793          	li	a5,0
2040244a:	e795                	bnez	a5,20402476 <_vfiprintf_r+0x250>
2040244c:	4742                	lw	a4,16(sp)
2040244e:	47b2                	lw	a5,12(sp)
20402450:	10077713          	andi	a4,a4,256
20402454:	cf09                	beqz	a4,2040246e <_vfiprintf_r+0x248>
20402456:	0791                	addi	a5,a5,4
20402458:	c63e                	sw	a5,12(sp)
2040245a:	5792                	lw	a5,36(sp)
2040245c:	97d2                	add	a5,a5,s4
2040245e:	d23e                	sw	a5,36(sp)
20402460:	b53d                	j	2040228e <_vfiprintf_r+0x68>
20402462:	036787b3          	mul	a5,a5,s6
20402466:	842e                	mv	s0,a1
20402468:	4685                	li	a3,1
2040246a:	97ba                	add	a5,a5,a4
2040246c:	b749                	j	204023ee <_vfiprintf_r+0x1c8>
2040246e:	079d                	addi	a5,a5,7
20402470:	9be1                	andi	a5,a5,-8
20402472:	07a1                	addi	a5,a5,8
20402474:	b7d5                	j	20402458 <_vfiprintf_r+0x232>
20402476:	0078                	addi	a4,sp,12
20402478:	00000697          	auipc	a3,0x0
2040247c:	d6c68693          	addi	a3,a3,-660 # 204021e4 <__sfputs_r>
20402480:	8626                	mv	a2,s1
20402482:	080c                	addi	a1,sp,16
20402484:	854e                	mv	a0,s3
20402486:	00000097          	auipc	ra,0x0
2040248a:	000000e7          	jalr	zero # 0 <__metal_boot_hart>
2040248e:	57fd                	li	a5,-1
20402490:	8a2a                	mv	s4,a0
20402492:	fcf514e3          	bne	a0,a5,2040245a <_vfiprintf_r+0x234>
20402496:	00c4d783          	lhu	a5,12(s1)
2040249a:	0407f793          	andi	a5,a5,64
2040249e:	ea079ee3          	bnez	a5,2040235a <_vfiprintf_r+0x134>
204024a2:	5512                	lw	a0,36(sp)
204024a4:	bd65                	j	2040235c <_vfiprintf_r+0x136>
204024a6:	0078                	addi	a4,sp,12
204024a8:	00000697          	auipc	a3,0x0
204024ac:	d3c68693          	addi	a3,a3,-708 # 204021e4 <__sfputs_r>
204024b0:	8626                	mv	a2,s1
204024b2:	080c                	addi	a1,sp,16
204024b4:	854e                	mv	a0,s3
204024b6:	2cd9                	jal	2040278c <_printf_i>
204024b8:	bfd9                	j	2040248e <_vfiprintf_r+0x268>

204024ba <__sread>:
__sread():
204024ba:	1141                	addi	sp,sp,-16
204024bc:	c422                	sw	s0,8(sp)
204024be:	842e                	mv	s0,a1
204024c0:	00e59583          	lh	a1,14(a1)
204024c4:	c606                	sw	ra,12(sp)
204024c6:	2b1d                	jal	204029fc <_read_r>
204024c8:	00054963          	bltz	a0,204024da <__sread+0x20>
204024cc:	487c                	lw	a5,84(s0)
204024ce:	97aa                	add	a5,a5,a0
204024d0:	c87c                	sw	a5,84(s0)
204024d2:	40b2                	lw	ra,12(sp)
204024d4:	4422                	lw	s0,8(sp)
204024d6:	0141                	addi	sp,sp,16
204024d8:	8082                	ret
204024da:	00c45783          	lhu	a5,12(s0)
204024de:	777d                	lui	a4,0xfffff
204024e0:	177d                	addi	a4,a4,-1
204024e2:	8ff9                	and	a5,a5,a4
204024e4:	00f41623          	sh	a5,12(s0)
204024e8:	b7ed                	j	204024d2 <__sread+0x18>

204024ea <__swrite>:
__swrite():
204024ea:	00c5d783          	lhu	a5,12(a1)
204024ee:	1101                	addi	sp,sp,-32
204024f0:	cc22                	sw	s0,24(sp)
204024f2:	ca26                	sw	s1,20(sp)
204024f4:	c84a                	sw	s2,16(sp)
204024f6:	c64e                	sw	s3,12(sp)
204024f8:	ce06                	sw	ra,28(sp)
204024fa:	1007f793          	andi	a5,a5,256
204024fe:	84aa                	mv	s1,a0
20402500:	842e                	mv	s0,a1
20402502:	8932                	mv	s2,a2
20402504:	89b6                	mv	s3,a3
20402506:	c791                	beqz	a5,20402512 <__swrite+0x28>
20402508:	00e59583          	lh	a1,14(a1)
2040250c:	4689                	li	a3,2
2040250e:	4601                	li	a2,0
20402510:	2215                	jal	20402634 <_lseek_r>
20402512:	00c45783          	lhu	a5,12(s0)
20402516:	777d                	lui	a4,0xfffff
20402518:	177d                	addi	a4,a4,-1
2040251a:	8ff9                	and	a5,a5,a4
2040251c:	00e41583          	lh	a1,14(s0)
20402520:	00f41623          	sh	a5,12(s0)
20402524:	4462                	lw	s0,24(sp)
20402526:	40f2                	lw	ra,28(sp)
20402528:	86ce                	mv	a3,s3
2040252a:	864a                	mv	a2,s2
2040252c:	49b2                	lw	s3,12(sp)
2040252e:	4942                	lw	s2,16(sp)
20402530:	8526                	mv	a0,s1
20402532:	44d2                	lw	s1,20(sp)
20402534:	6105                	addi	sp,sp,32
20402536:	a83d                	j	20402574 <_write_r>

20402538 <__sseek>:
__sseek():
20402538:	1141                	addi	sp,sp,-16
2040253a:	c422                	sw	s0,8(sp)
2040253c:	842e                	mv	s0,a1
2040253e:	00e59583          	lh	a1,14(a1)
20402542:	c606                	sw	ra,12(sp)
20402544:	28c5                	jal	20402634 <_lseek_r>
20402546:	57fd                	li	a5,-1
20402548:	00c45703          	lhu	a4,12(s0)
2040254c:	00f51b63          	bne	a0,a5,20402562 <__sseek+0x2a>
20402550:	77fd                	lui	a5,0xfffff
20402552:	17fd                	addi	a5,a5,-1
20402554:	8ff9                	and	a5,a5,a4
20402556:	00f41623          	sh	a5,12(s0)
2040255a:	40b2                	lw	ra,12(sp)
2040255c:	4422                	lw	s0,8(sp)
2040255e:	0141                	addi	sp,sp,16
20402560:	8082                	ret
20402562:	6785                	lui	a5,0x1
20402564:	8fd9                	or	a5,a5,a4
20402566:	00f41623          	sh	a5,12(s0)
2040256a:	c868                	sw	a0,84(s0)
2040256c:	b7fd                	j	2040255a <__sseek+0x22>

2040256e <__sclose>:
__sclose():
2040256e:	00e59583          	lh	a1,14(a1)
20402572:	a81d                	j	204025a8 <_close_r>

20402574 <_write_r>:
_write_r():
20402574:	1141                	addi	sp,sp,-16
20402576:	c422                	sw	s0,8(sp)
20402578:	842a                	mv	s0,a0
2040257a:	852e                	mv	a0,a1
2040257c:	85b2                	mv	a1,a2
2040257e:	8636                	mv	a2,a3
20402580:	5fbfe797          	auipc	a5,0x5fbfe
20402584:	2407a823          	sw	zero,592(a5) # 800007d0 <errno>
20402588:	c606                	sw	ra,12(sp)
2040258a:	758000ef          	jal	ra,20402ce2 <_write>
2040258e:	57fd                	li	a5,-1
20402590:	00f51863          	bne	a0,a5,204025a0 <_write_r+0x2c>
20402594:	5fbfe797          	auipc	a5,0x5fbfe
20402598:	23c7a783          	lw	a5,572(a5) # 800007d0 <errno>
2040259c:	c391                	beqz	a5,204025a0 <_write_r+0x2c>
2040259e:	c01c                	sw	a5,0(s0)
204025a0:	40b2                	lw	ra,12(sp)
204025a2:	4422                	lw	s0,8(sp)
204025a4:	0141                	addi	sp,sp,16
204025a6:	8082                	ret

204025a8 <_close_r>:
_close_r():
204025a8:	1141                	addi	sp,sp,-16
204025aa:	c422                	sw	s0,8(sp)
204025ac:	842a                	mv	s0,a0
204025ae:	852e                	mv	a0,a1
204025b0:	5fbfe797          	auipc	a5,0x5fbfe
204025b4:	2207a023          	sw	zero,544(a5) # 800007d0 <errno>
204025b8:	c606                	sw	ra,12(sp)
204025ba:	2995                	jal	20402a2e <_close>
204025bc:	57fd                	li	a5,-1
204025be:	00f51863          	bne	a0,a5,204025ce <_close_r+0x26>
204025c2:	5fbfe797          	auipc	a5,0x5fbfe
204025c6:	20e7a783          	lw	a5,526(a5) # 800007d0 <errno>
204025ca:	c391                	beqz	a5,204025ce <_close_r+0x26>
204025cc:	c01c                	sw	a5,0(s0)
204025ce:	40b2                	lw	ra,12(sp)
204025d0:	4422                	lw	s0,8(sp)
204025d2:	0141                	addi	sp,sp,16
204025d4:	8082                	ret

204025d6 <_fstat_r>:
_fstat_r():
204025d6:	1141                	addi	sp,sp,-16
204025d8:	c422                	sw	s0,8(sp)
204025da:	842a                	mv	s0,a0
204025dc:	852e                	mv	a0,a1
204025de:	85b2                	mv	a1,a2
204025e0:	5fbfe797          	auipc	a5,0x5fbfe
204025e4:	1e07a823          	sw	zero,496(a5) # 800007d0 <errno>
204025e8:	c606                	sw	ra,12(sp)
204025ea:	219d                	jal	20402a50 <_fstat>
204025ec:	57fd                	li	a5,-1
204025ee:	00f51863          	bne	a0,a5,204025fe <_fstat_r+0x28>
204025f2:	5fbfe797          	auipc	a5,0x5fbfe
204025f6:	1de7a783          	lw	a5,478(a5) # 800007d0 <errno>
204025fa:	c391                	beqz	a5,204025fe <_fstat_r+0x28>
204025fc:	c01c                	sw	a5,0(s0)
204025fe:	40b2                	lw	ra,12(sp)
20402600:	4422                	lw	s0,8(sp)
20402602:	0141                	addi	sp,sp,16
20402604:	8082                	ret

20402606 <_isatty_r>:
_isatty_r():
20402606:	1141                	addi	sp,sp,-16
20402608:	c422                	sw	s0,8(sp)
2040260a:	842a                	mv	s0,a0
2040260c:	852e                	mv	a0,a1
2040260e:	5fbfe797          	auipc	a5,0x5fbfe
20402612:	1c07a123          	sw	zero,450(a5) # 800007d0 <errno>
20402616:	c606                	sw	ra,12(sp)
20402618:	29b9                	jal	20402a76 <_isatty>
2040261a:	57fd                	li	a5,-1
2040261c:	00f51863          	bne	a0,a5,2040262c <_isatty_r+0x26>
20402620:	5fbfe797          	auipc	a5,0x5fbfe
20402624:	1b07a783          	lw	a5,432(a5) # 800007d0 <errno>
20402628:	c391                	beqz	a5,2040262c <_isatty_r+0x26>
2040262a:	c01c                	sw	a5,0(s0)
2040262c:	40b2                	lw	ra,12(sp)
2040262e:	4422                	lw	s0,8(sp)
20402630:	0141                	addi	sp,sp,16
20402632:	8082                	ret

20402634 <_lseek_r>:
_lseek_r():
20402634:	1141                	addi	sp,sp,-16
20402636:	c422                	sw	s0,8(sp)
20402638:	842a                	mv	s0,a0
2040263a:	852e                	mv	a0,a1
2040263c:	85b2                	mv	a1,a2
2040263e:	8636                	mv	a2,a3
20402640:	5fbfe797          	auipc	a5,0x5fbfe
20402644:	1807a823          	sw	zero,400(a5) # 800007d0 <errno>
20402648:	c606                	sw	ra,12(sp)
2040264a:	21b1                	jal	20402a96 <_lseek>
2040264c:	57fd                	li	a5,-1
2040264e:	00f51863          	bne	a0,a5,2040265e <_lseek_r+0x2a>
20402652:	5fbfe797          	auipc	a5,0x5fbfe
20402656:	17e7a783          	lw	a5,382(a5) # 800007d0 <errno>
2040265a:	c391                	beqz	a5,2040265e <_lseek_r+0x2a>
2040265c:	c01c                	sw	a5,0(s0)
2040265e:	40b2                	lw	ra,12(sp)
20402660:	4422                	lw	s0,8(sp)
20402662:	0141                	addi	sp,sp,16
20402664:	8082                	ret

20402666 <memchr>:
memchr():
20402666:	0ff5f593          	zext.b	a1,a1
2040266a:	962a                	add	a2,a2,a0
2040266c:	00c51463          	bne	a0,a2,20402674 <memchr+0xe>
20402670:	4501                	li	a0,0
20402672:	8082                	ret
20402674:	00054783          	lbu	a5,0(a0)
20402678:	feb78de3          	beq	a5,a1,20402672 <memchr+0xc>
2040267c:	0505                	addi	a0,a0,1
2040267e:	b7fd                	j	2040266c <memchr+0x6>

20402680 <_printf_common>:
_printf_common():
20402680:	7179                	addi	sp,sp,-48
20402682:	cc52                	sw	s4,24(sp)
20402684:	499c                	lw	a5,16(a1)
20402686:	8a3a                	mv	s4,a4
20402688:	4598                	lw	a4,8(a1)
2040268a:	d422                	sw	s0,40(sp)
2040268c:	d226                	sw	s1,36(sp)
2040268e:	ce4e                	sw	s3,28(sp)
20402690:	ca56                	sw	s5,20(sp)
20402692:	d606                	sw	ra,44(sp)
20402694:	d04a                	sw	s2,32(sp)
20402696:	c85a                	sw	s6,16(sp)
20402698:	c65e                	sw	s7,12(sp)
2040269a:	89aa                	mv	s3,a0
2040269c:	842e                	mv	s0,a1
2040269e:	84b2                	mv	s1,a2
204026a0:	8ab6                	mv	s5,a3
204026a2:	00e7d363          	bge	a5,a4,204026a8 <_printf_common+0x28>
204026a6:	87ba                	mv	a5,a4
204026a8:	c09c                	sw	a5,0(s1)
204026aa:	04344703          	lbu	a4,67(s0)
204026ae:	c319                	beqz	a4,204026b4 <_printf_common+0x34>
204026b0:	0785                	addi	a5,a5,1
204026b2:	c09c                	sw	a5,0(s1)
204026b4:	401c                	lw	a5,0(s0)
204026b6:	0207f793          	andi	a5,a5,32
204026ba:	c781                	beqz	a5,204026c2 <_printf_common+0x42>
204026bc:	409c                	lw	a5,0(s1)
204026be:	0789                	addi	a5,a5,2
204026c0:	c09c                	sw	a5,0(s1)
204026c2:	00042903          	lw	s2,0(s0)
204026c6:	00697913          	andi	s2,s2,6
204026ca:	00091a63          	bnez	s2,204026de <_printf_common+0x5e>
204026ce:	01940b13          	addi	s6,s0,25
204026d2:	5bfd                	li	s7,-1
204026d4:	445c                	lw	a5,12(s0)
204026d6:	4098                	lw	a4,0(s1)
204026d8:	8f99                	sub	a5,a5,a4
204026da:	04f94c63          	blt	s2,a5,20402732 <_printf_common+0xb2>
204026de:	04344783          	lbu	a5,67(s0)
204026e2:	00f036b3          	snez	a3,a5
204026e6:	401c                	lw	a5,0(s0)
204026e8:	0207f793          	andi	a5,a5,32
204026ec:	eba5                	bnez	a5,2040275c <_printf_common+0xdc>
204026ee:	04340613          	addi	a2,s0,67
204026f2:	85d6                	mv	a1,s5
204026f4:	854e                	mv	a0,s3
204026f6:	9a02                	jalr	s4
204026f8:	57fd                	li	a5,-1
204026fa:	04f50363          	beq	a0,a5,20402740 <_printf_common+0xc0>
204026fe:	401c                	lw	a5,0(s0)
20402700:	4611                	li	a2,4
20402702:	4098                	lw	a4,0(s1)
20402704:	8b99                	andi	a5,a5,6
20402706:	4454                	lw	a3,12(s0)
20402708:	4481                	li	s1,0
2040270a:	00c79763          	bne	a5,a2,20402718 <_printf_common+0x98>
2040270e:	40e684b3          	sub	s1,a3,a4
20402712:	0004d363          	bgez	s1,20402718 <_printf_common+0x98>
20402716:	4481                	li	s1,0
20402718:	441c                	lw	a5,8(s0)
2040271a:	4818                	lw	a4,16(s0)
2040271c:	00f75463          	bge	a4,a5,20402724 <_printf_common+0xa4>
20402720:	8f99                	sub	a5,a5,a4
20402722:	94be                	add	s1,s1,a5
20402724:	4901                	li	s2,0
20402726:	0469                	addi	s0,s0,26
20402728:	5b7d                	li	s6,-1
2040272a:	05249863          	bne	s1,s2,2040277a <_printf_common+0xfa>
2040272e:	4501                	li	a0,0
20402730:	a809                	j	20402742 <_printf_common+0xc2>
20402732:	4685                	li	a3,1
20402734:	865a                	mv	a2,s6
20402736:	85d6                	mv	a1,s5
20402738:	854e                	mv	a0,s3
2040273a:	9a02                	jalr	s4
2040273c:	01751e63          	bne	a0,s7,20402758 <_printf_common+0xd8>
20402740:	557d                	li	a0,-1
20402742:	50b2                	lw	ra,44(sp)
20402744:	5422                	lw	s0,40(sp)
20402746:	5492                	lw	s1,36(sp)
20402748:	5902                	lw	s2,32(sp)
2040274a:	49f2                	lw	s3,28(sp)
2040274c:	4a62                	lw	s4,24(sp)
2040274e:	4ad2                	lw	s5,20(sp)
20402750:	4b42                	lw	s6,16(sp)
20402752:	4bb2                	lw	s7,12(sp)
20402754:	6145                	addi	sp,sp,48
20402756:	8082                	ret
20402758:	0905                	addi	s2,s2,1
2040275a:	bfad                	j	204026d4 <_printf_common+0x54>
2040275c:	00d40733          	add	a4,s0,a3
20402760:	03000613          	li	a2,48
20402764:	04c701a3          	sb	a2,67(a4) # fffff043 <metal_segment_heap_target_end+0x7fffd573>
20402768:	04544703          	lbu	a4,69(s0)
2040276c:	00168793          	addi	a5,a3,1
20402770:	97a2                	add	a5,a5,s0
20402772:	0689                	addi	a3,a3,2
20402774:	04e781a3          	sb	a4,67(a5)
20402778:	bf9d                	j	204026ee <_printf_common+0x6e>
2040277a:	4685                	li	a3,1
2040277c:	8622                	mv	a2,s0
2040277e:	85d6                	mv	a1,s5
20402780:	854e                	mv	a0,s3
20402782:	9a02                	jalr	s4
20402784:	fb650ee3          	beq	a0,s6,20402740 <_printf_common+0xc0>
20402788:	0905                	addi	s2,s2,1
2040278a:	b745                	j	2040272a <_printf_common+0xaa>

2040278c <_printf_i>:
_printf_i():
2040278c:	7179                	addi	sp,sp,-48
2040278e:	d422                	sw	s0,40(sp)
20402790:	d226                	sw	s1,36(sp)
20402792:	d04a                	sw	s2,32(sp)
20402794:	ce4e                	sw	s3,28(sp)
20402796:	d606                	sw	ra,44(sp)
20402798:	cc52                	sw	s4,24(sp)
2040279a:	ca56                	sw	s5,20(sp)
2040279c:	c85a                	sw	s6,16(sp)
2040279e:	0185c803          	lbu	a6,24(a1)
204027a2:	07800793          	li	a5,120
204027a6:	84aa                	mv	s1,a0
204027a8:	842e                	mv	s0,a1
204027aa:	8932                	mv	s2,a2
204027ac:	89b6                	mv	s3,a3
204027ae:	0107ee63          	bltu	a5,a6,204027ca <_printf_i+0x3e>
204027b2:	06200793          	li	a5,98
204027b6:	04358693          	addi	a3,a1,67
204027ba:	0107ed63          	bltu	a5,a6,204027d4 <_printf_i+0x48>
204027be:	1c080563          	beqz	a6,20402988 <_printf_i+0x1fc>
204027c2:	05800793          	li	a5,88
204027c6:	12f80a63          	beq	a6,a5,204028fa <_printf_i+0x16e>
204027ca:	04240a93          	addi	s5,s0,66
204027ce:	05040123          	sb	a6,66(s0)
204027d2:	a815                	j	20402806 <_printf_i+0x7a>
204027d4:	f9d80793          	addi	a5,a6,-99
204027d8:	0ff7f793          	zext.b	a5,a5
204027dc:	4655                	li	a2,21
204027de:	fef666e3          	bltu	a2,a5,204027ca <_printf_i+0x3e>
204027e2:	ffffe617          	auipc	a2,0xffffe
204027e6:	c6660613          	addi	a2,a2,-922 # 20400448 <__sf_fake_stdout+0x5c>
204027ea:	078a                	slli	a5,a5,0x2
204027ec:	97b2                	add	a5,a5,a2
204027ee:	439c                	lw	a5,0(a5)
204027f0:	97b2                	add	a5,a5,a2
204027f2:	8782                	jr	a5
204027f4:	431c                	lw	a5,0(a4)
204027f6:	04258a93          	addi	s5,a1,66
204027fa:	00478693          	addi	a3,a5,4
204027fe:	439c                	lw	a5,0(a5)
20402800:	c314                	sw	a3,0(a4)
20402802:	04f58123          	sb	a5,66(a1)
20402806:	4785                	li	a5,1
20402808:	a25d                	j	204029ae <_printf_i+0x222>
2040280a:	419c                	lw	a5,0(a1)
2040280c:	4308                	lw	a0,0(a4)
2040280e:	0807f613          	andi	a2,a5,128
20402812:	00450593          	addi	a1,a0,4
20402816:	c20d                	beqz	a2,20402838 <_printf_i+0xac>
20402818:	411c                	lw	a5,0(a0)
2040281a:	c30c                	sw	a1,0(a4)
2040281c:	0007d863          	bgez	a5,2040282c <_printf_i+0xa0>
20402820:	02d00713          	li	a4,45
20402824:	40f007b3          	neg	a5,a5
20402828:	04e401a3          	sb	a4,67(s0)
2040282c:	ffffe617          	auipc	a2,0xffffe
20402830:	bf460613          	addi	a2,a2,-1036 # 20400420 <__sf_fake_stdout+0x34>
20402834:	4829                	li	a6,10
20402836:	a0a1                	j	2040287e <_printf_i+0xf2>
20402838:	0407f613          	andi	a2,a5,64
2040283c:	411c                	lw	a5,0(a0)
2040283e:	c30c                	sw	a1,0(a4)
20402840:	de71                	beqz	a2,2040281c <_printf_i+0x90>
20402842:	07c2                	slli	a5,a5,0x10
20402844:	87c1                	srai	a5,a5,0x10
20402846:	bfd9                	j	2040281c <_printf_i+0x90>
20402848:	4190                	lw	a2,0(a1)
2040284a:	431c                	lw	a5,0(a4)
2040284c:	08067513          	andi	a0,a2,128
20402850:	00478593          	addi	a1,a5,4
20402854:	c501                	beqz	a0,2040285c <_printf_i+0xd0>
20402856:	c30c                	sw	a1,0(a4)
20402858:	439c                	lw	a5,0(a5)
2040285a:	a039                	j	20402868 <_printf_i+0xdc>
2040285c:	04067613          	andi	a2,a2,64
20402860:	c30c                	sw	a1,0(a4)
20402862:	da7d                	beqz	a2,20402858 <_printf_i+0xcc>
20402864:	0007d783          	lhu	a5,0(a5)
20402868:	06f00713          	li	a4,111
2040286c:	ffffe617          	auipc	a2,0xffffe
20402870:	bb460613          	addi	a2,a2,-1100 # 20400420 <__sf_fake_stdout+0x34>
20402874:	0ee80463          	beq	a6,a4,2040295c <_printf_i+0x1d0>
20402878:	4829                	li	a6,10
2040287a:	040401a3          	sb	zero,67(s0)
2040287e:	4058                	lw	a4,4(s0)
20402880:	c418                	sw	a4,8(s0)
20402882:	00074563          	bltz	a4,2040288c <_printf_i+0x100>
20402886:	400c                	lw	a1,0(s0)
20402888:	99ed                	andi	a1,a1,-5
2040288a:	c00c                	sw	a1,0(s0)
2040288c:	e399                	bnez	a5,20402892 <_printf_i+0x106>
2040288e:	8ab6                	mv	s5,a3
20402890:	cf19                	beqz	a4,204028ae <_printf_i+0x122>
20402892:	8ab6                	mv	s5,a3
20402894:	0307f733          	remu	a4,a5,a6
20402898:	1afd                	addi	s5,s5,-1
2040289a:	9732                	add	a4,a4,a2
2040289c:	00074703          	lbu	a4,0(a4)
204028a0:	00ea8023          	sb	a4,0(s5)
204028a4:	873e                	mv	a4,a5
204028a6:	0307d7b3          	divu	a5,a5,a6
204028aa:	ff0775e3          	bgeu	a4,a6,20402894 <_printf_i+0x108>
204028ae:	47a1                	li	a5,8
204028b0:	00f81e63          	bne	a6,a5,204028cc <_printf_i+0x140>
204028b4:	401c                	lw	a5,0(s0)
204028b6:	8b85                	andi	a5,a5,1
204028b8:	cb91                	beqz	a5,204028cc <_printf_i+0x140>
204028ba:	4058                	lw	a4,4(s0)
204028bc:	481c                	lw	a5,16(s0)
204028be:	00e7c763          	blt	a5,a4,204028cc <_printf_i+0x140>
204028c2:	03000793          	li	a5,48
204028c6:	fefa8fa3          	sb	a5,-1(s5)
204028ca:	1afd                	addi	s5,s5,-1
204028cc:	415686b3          	sub	a3,a3,s5
204028d0:	c814                	sw	a3,16(s0)
204028d2:	874e                	mv	a4,s3
204028d4:	86ca                	mv	a3,s2
204028d6:	0070                	addi	a2,sp,12
204028d8:	85a2                	mv	a1,s0
204028da:	8526                	mv	a0,s1
204028dc:	3355                	jal	20402680 <_printf_common>
204028de:	5a7d                	li	s4,-1
204028e0:	0d451b63          	bne	a0,s4,204029b6 <_printf_i+0x22a>
204028e4:	557d                	li	a0,-1
204028e6:	50b2                	lw	ra,44(sp)
204028e8:	5422                	lw	s0,40(sp)
204028ea:	5492                	lw	s1,36(sp)
204028ec:	5902                	lw	s2,32(sp)
204028ee:	49f2                	lw	s3,28(sp)
204028f0:	4a62                	lw	s4,24(sp)
204028f2:	4ad2                	lw	s5,20(sp)
204028f4:	4b42                	lw	s6,16(sp)
204028f6:	6145                	addi	sp,sp,48
204028f8:	8082                	ret
204028fa:	050582a3          	sb	a6,69(a1)
204028fe:	ffffe617          	auipc	a2,0xffffe
20402902:	b2260613          	addi	a2,a2,-1246 # 20400420 <__sf_fake_stdout+0x34>
20402906:	400c                	lw	a1,0(s0)
20402908:	4308                	lw	a0,0(a4)
2040290a:	0805f813          	andi	a6,a1,128
2040290e:	411c                	lw	a5,0(a0)
20402910:	0511                	addi	a0,a0,4
20402912:	02080d63          	beqz	a6,2040294c <_printf_i+0x1c0>
20402916:	c308                	sw	a0,0(a4)
20402918:	0015f713          	andi	a4,a1,1
2040291c:	c701                	beqz	a4,20402924 <_printf_i+0x198>
2040291e:	0205e593          	ori	a1,a1,32
20402922:	c00c                	sw	a1,0(s0)
20402924:	4841                	li	a6,16
20402926:	fbb1                	bnez	a5,2040287a <_printf_i+0xee>
20402928:	4018                	lw	a4,0(s0)
2040292a:	fdf77713          	andi	a4,a4,-33
2040292e:	c018                	sw	a4,0(s0)
20402930:	b7a9                	j	2040287a <_printf_i+0xee>
20402932:	419c                	lw	a5,0(a1)
20402934:	0207e793          	ori	a5,a5,32
20402938:	c19c                	sw	a5,0(a1)
2040293a:	07800793          	li	a5,120
2040293e:	04f402a3          	sb	a5,69(s0)
20402942:	ffffe617          	auipc	a2,0xffffe
20402946:	af260613          	addi	a2,a2,-1294 # 20400434 <__sf_fake_stdout+0x48>
2040294a:	bf75                	j	20402906 <_printf_i+0x17a>
2040294c:	0405f813          	andi	a6,a1,64
20402950:	c308                	sw	a0,0(a4)
20402952:	fc0803e3          	beqz	a6,20402918 <_printf_i+0x18c>
20402956:	07c2                	slli	a5,a5,0x10
20402958:	83c1                	srli	a5,a5,0x10
2040295a:	bf7d                	j	20402918 <_printf_i+0x18c>
2040295c:	4821                	li	a6,8
2040295e:	bf31                	j	2040287a <_printf_i+0xee>
20402960:	4190                	lw	a2,0(a1)
20402962:	431c                	lw	a5,0(a4)
20402964:	49cc                	lw	a1,20(a1)
20402966:	08067813          	andi	a6,a2,128
2040296a:	00478513          	addi	a0,a5,4
2040296e:	00080663          	beqz	a6,2040297a <_printf_i+0x1ee>
20402972:	c308                	sw	a0,0(a4)
20402974:	439c                	lw	a5,0(a5)
20402976:	c38c                	sw	a1,0(a5)
20402978:	a801                	j	20402988 <_printf_i+0x1fc>
2040297a:	c308                	sw	a0,0(a4)
2040297c:	04067613          	andi	a2,a2,64
20402980:	439c                	lw	a5,0(a5)
20402982:	da75                	beqz	a2,20402976 <_printf_i+0x1ea>
20402984:	00b79023          	sh	a1,0(a5)
20402988:	00042823          	sw	zero,16(s0)
2040298c:	8ab6                	mv	s5,a3
2040298e:	b791                	j	204028d2 <_printf_i+0x146>
20402990:	431c                	lw	a5,0(a4)
20402992:	41d0                	lw	a2,4(a1)
20402994:	4581                	li	a1,0
20402996:	00478693          	addi	a3,a5,4
2040299a:	c314                	sw	a3,0(a4)
2040299c:	0007aa83          	lw	s5,0(a5)
204029a0:	8556                	mv	a0,s5
204029a2:	31d1                	jal	20402666 <memchr>
204029a4:	c501                	beqz	a0,204029ac <_printf_i+0x220>
204029a6:	41550533          	sub	a0,a0,s5
204029aa:	c048                	sw	a0,4(s0)
204029ac:	405c                	lw	a5,4(s0)
204029ae:	c81c                	sw	a5,16(s0)
204029b0:	040401a3          	sb	zero,67(s0)
204029b4:	bf39                	j	204028d2 <_printf_i+0x146>
204029b6:	4814                	lw	a3,16(s0)
204029b8:	8656                	mv	a2,s5
204029ba:	85ca                	mv	a1,s2
204029bc:	8526                	mv	a0,s1
204029be:	9982                	jalr	s3
204029c0:	f34502e3          	beq	a0,s4,204028e4 <_printf_i+0x158>
204029c4:	401c                	lw	a5,0(s0)
204029c6:	8b89                	andi	a5,a5,2
204029c8:	e78d                	bnez	a5,204029f2 <_printf_i+0x266>
204029ca:	47b2                	lw	a5,12(sp)
204029cc:	4448                	lw	a0,12(s0)
204029ce:	f0f55ce3          	bge	a0,a5,204028e6 <_printf_i+0x15a>
204029d2:	853e                	mv	a0,a5
204029d4:	bf09                	j	204028e6 <_printf_i+0x15a>
204029d6:	4685                	li	a3,1
204029d8:	8656                	mv	a2,s5
204029da:	85ca                	mv	a1,s2
204029dc:	8526                	mv	a0,s1
204029de:	9982                	jalr	s3
204029e0:	f16502e3          	beq	a0,s6,204028e4 <_printf_i+0x158>
204029e4:	0a05                	addi	s4,s4,1
204029e6:	445c                	lw	a5,12(s0)
204029e8:	4732                	lw	a4,12(sp)
204029ea:	8f99                	sub	a5,a5,a4
204029ec:	fefa45e3          	blt	s4,a5,204029d6 <_printf_i+0x24a>
204029f0:	bfe9                	j	204029ca <_printf_i+0x23e>
204029f2:	4a01                	li	s4,0
204029f4:	01940a93          	addi	s5,s0,25
204029f8:	5b7d                	li	s6,-1
204029fa:	b7f5                	j	204029e6 <_printf_i+0x25a>

204029fc <_read_r>:
_read_r():
204029fc:	1141                	addi	sp,sp,-16
204029fe:	c422                	sw	s0,8(sp)
20402a00:	842a                	mv	s0,a0
20402a02:	852e                	mv	a0,a1
20402a04:	85b2                	mv	a1,a2
20402a06:	8636                	mv	a2,a3
20402a08:	5fbfe797          	auipc	a5,0x5fbfe
20402a0c:	dc07a423          	sw	zero,-568(a5) # 800007d0 <errno>
20402a10:	c606                	sw	ra,12(sp)
20402a12:	207d                	jal	20402ac0 <_read>
20402a14:	57fd                	li	a5,-1
20402a16:	00f51863          	bne	a0,a5,20402a26 <_read_r+0x2a>
20402a1a:	5fbfe797          	auipc	a5,0x5fbfe
20402a1e:	db67a783          	lw	a5,-586(a5) # 800007d0 <errno>
20402a22:	c391                	beqz	a5,20402a26 <_read_r+0x2a>
20402a24:	c01c                	sw	a5,0(s0)
20402a26:	40b2                	lw	ra,12(sp)
20402a28:	4422                	lw	s0,8(sp)
20402a2a:	0141                	addi	sp,sp,16
20402a2c:	8082                	ret

20402a2e <_close>:
_close():
C:/wsFreedomStudio/kernel/freedom-metal/gloss/sys_close.c:3
20402a2e:	1101                	addi	sp,sp,-32
20402a30:	ce06                	sw	ra,28(sp)
20402a32:	cc22                	sw	s0,24(sp)
20402a34:	1000                	addi	s0,sp,32
20402a36:	fea42623          	sw	a0,-20(s0)
C:/wsFreedomStudio/kernel/freedom-metal/gloss/sys_close.c:4
20402a3a:	260d                	jal	20402d5c <__errno>
20402a3c:	872a                	mv	a4,a0
20402a3e:	05800793          	li	a5,88
20402a42:	c31c                	sw	a5,0(a4)
C:/wsFreedomStudio/kernel/freedom-metal/gloss/sys_close.c:5
20402a44:	57fd                	li	a5,-1
C:/wsFreedomStudio/kernel/freedom-metal/gloss/sys_close.c:6
20402a46:	853e                	mv	a0,a5
20402a48:	40f2                	lw	ra,28(sp)
20402a4a:	4462                	lw	s0,24(sp)
20402a4c:	6105                	addi	sp,sp,32
20402a4e:	8082                	ret

20402a50 <_fstat>:
_fstat():
C:/wsFreedomStudio/kernel/freedom-metal/gloss/sys_fstat.c:4
20402a50:	1101                	addi	sp,sp,-32
20402a52:	ce06                	sw	ra,28(sp)
20402a54:	cc22                	sw	s0,24(sp)
20402a56:	1000                	addi	s0,sp,32
20402a58:	fea42623          	sw	a0,-20(s0)
20402a5c:	feb42423          	sw	a1,-24(s0)
C:/wsFreedomStudio/kernel/freedom-metal/gloss/sys_fstat.c:5
20402a60:	2cf5                	jal	20402d5c <__errno>
20402a62:	872a                	mv	a4,a0
20402a64:	fa800793          	li	a5,-88
20402a68:	c31c                	sw	a5,0(a4)
C:/wsFreedomStudio/kernel/freedom-metal/gloss/sys_fstat.c:6
20402a6a:	57fd                	li	a5,-1
C:/wsFreedomStudio/kernel/freedom-metal/gloss/sys_fstat.c:7
20402a6c:	853e                	mv	a0,a5
20402a6e:	40f2                	lw	ra,28(sp)
20402a70:	4462                	lw	s0,24(sp)
20402a72:	6105                	addi	sp,sp,32
20402a74:	8082                	ret

20402a76 <_isatty>:
_isatty():
C:/wsFreedomStudio/kernel/freedom-metal/gloss/sys_isatty.c:3
20402a76:	1101                	addi	sp,sp,-32
20402a78:	ce22                	sw	s0,28(sp)
20402a7a:	1000                	addi	s0,sp,32
20402a7c:	fea42623          	sw	a0,-20(s0)
20402a80:	fec42783          	lw	a5,-20(s0)
20402a84:	17fd                	addi	a5,a5,-1
20402a86:	0017b793          	seqz	a5,a5
20402a8a:	0ff7f793          	zext.b	a5,a5
20402a8e:	853e                	mv	a0,a5
20402a90:	4472                	lw	s0,28(sp)
20402a92:	6105                	addi	sp,sp,32
20402a94:	8082                	ret

20402a96 <_lseek>:
_lseek():
C:/wsFreedomStudio/kernel/freedom-metal/gloss/sys_lseek.c:4
20402a96:	1101                	addi	sp,sp,-32
20402a98:	ce06                	sw	ra,28(sp)
20402a9a:	cc22                	sw	s0,24(sp)
20402a9c:	1000                	addi	s0,sp,32
20402a9e:	fea42623          	sw	a0,-20(s0)
20402aa2:	feb42423          	sw	a1,-24(s0)
20402aa6:	fec42223          	sw	a2,-28(s0)
C:/wsFreedomStudio/kernel/freedom-metal/gloss/sys_lseek.c:5
20402aaa:	2c4d                	jal	20402d5c <__errno>
20402aac:	872a                	mv	a4,a0
20402aae:	05800793          	li	a5,88
20402ab2:	c31c                	sw	a5,0(a4)
C:/wsFreedomStudio/kernel/freedom-metal/gloss/sys_lseek.c:6
20402ab4:	57fd                	li	a5,-1
C:/wsFreedomStudio/kernel/freedom-metal/gloss/sys_lseek.c:7
20402ab6:	853e                	mv	a0,a5
20402ab8:	40f2                	lw	ra,28(sp)
20402aba:	4462                	lw	s0,24(sp)
20402abc:	6105                	addi	sp,sp,32
20402abe:	8082                	ret

20402ac0 <_read>:
_read():
C:/wsFreedomStudio/kernel/freedom-metal/gloss/sys_read.c:4
20402ac0:	1101                	addi	sp,sp,-32
20402ac2:	ce06                	sw	ra,28(sp)
20402ac4:	cc22                	sw	s0,24(sp)
20402ac6:	1000                	addi	s0,sp,32
20402ac8:	fea42623          	sw	a0,-20(s0)
20402acc:	feb42423          	sw	a1,-24(s0)
20402ad0:	fec42223          	sw	a2,-28(s0)
C:/wsFreedomStudio/kernel/freedom-metal/gloss/sys_read.c:5
20402ad4:	2461                	jal	20402d5c <__errno>
20402ad6:	872a                	mv	a4,a0
20402ad8:	05800793          	li	a5,88
20402adc:	c31c                	sw	a5,0(a4)
C:/wsFreedomStudio/kernel/freedom-metal/gloss/sys_read.c:6
20402ade:	57fd                	li	a5,-1
C:/wsFreedomStudio/kernel/freedom-metal/gloss/sys_read.c:7
20402ae0:	853e                	mv	a0,a5
20402ae2:	40f2                	lw	ra,28(sp)
20402ae4:	4462                	lw	s0,24(sp)
20402ae6:	6105                	addi	sp,sp,32
20402ae8:	8082                	ret

20402aea <_sbrk>:
_sbrk():
C:/wsFreedomStudio/kernel/freedom-metal/gloss/sys_sbrk.c:24
20402aea:	7179                	addi	sp,sp,-48
20402aec:	d606                	sw	ra,44(sp)
20402aee:	d422                	sw	s0,40(sp)
20402af0:	1800                	addi	s0,sp,48
20402af2:	fca42e23          	sw	a0,-36(s0)
C:/wsFreedomStudio/kernel/freedom-metal/gloss/sys_sbrk.c:25
20402af6:	800007b7          	lui	a5,0x80000
20402afa:	7a47a783          	lw	a5,1956(a5) # 800007a4 <metal_segment_heap_target_end+0xffffecd4>
20402afe:	fef42623          	sw	a5,-20(s0)
C:/wsFreedomStudio/kernel/freedom-metal/gloss/sys_sbrk.c:28
20402b02:	33018713          	addi	a4,gp,816 # 800012d0 <_sp>
20402b06:	800027b7          	lui	a5,0x80002
20402b0a:	ad078793          	addi	a5,a5,-1328 # 80001ad0 <metal_segment_heap_target_end+0x0>
20402b0e:	00f71463          	bne	a4,a5,20402b16 <_sbrk+0x2c>
C:/wsFreedomStudio/kernel/freedom-metal/gloss/sys_sbrk.c:29
20402b12:	57fd                	li	a5,-1
20402b14:	a899                	j	20402b6a <_sbrk+0x80>
C:/wsFreedomStudio/kernel/freedom-metal/gloss/sys_sbrk.c:33
20402b16:	800007b7          	lui	a5,0x80000
20402b1a:	7a47a703          	lw	a4,1956(a5) # 800007a4 <metal_segment_heap_target_end+0xffffecd4>
20402b1e:	fdc42783          	lw	a5,-36(s0)
20402b22:	973e                	add	a4,a4,a5
20402b24:	800027b7          	lui	a5,0x80002
20402b28:	ad078793          	addi	a5,a5,-1328 # 80001ad0 <metal_segment_heap_target_end+0x0>
20402b2c:	02f77663          	bgeu	a4,a5,20402b58 <_sbrk+0x6e>
C:/wsFreedomStudio/kernel/freedom-metal/gloss/sys_sbrk.c:34
20402b30:	800007b7          	lui	a5,0x80000
20402b34:	7a47a703          	lw	a4,1956(a5) # 800007a4 <metal_segment_heap_target_end+0xffffecd4>
20402b38:	fdc42783          	lw	a5,-36(s0)
20402b3c:	973e                	add	a4,a4,a5
20402b3e:	800007b7          	lui	a5,0x80000
20402b42:	7ae7a223          	sw	a4,1956(a5) # 800007a4 <metal_segment_heap_target_end+0xffffecd4>
C:/wsFreedomStudio/kernel/freedom-metal/gloss/sys_sbrk.c:40
20402b46:	fdc42583          	lw	a1,-36(s0)
20402b4a:	fec42503          	lw	a0,-20(s0)
20402b4e:	d3cfd0ef          	jal	ra,2040008a <metal_mem_scrub>
C:/wsFreedomStudio/kernel/freedom-metal/gloss/sys_sbrk.c:42
20402b52:	fec42783          	lw	a5,-20(s0)
20402b56:	a811                	j	20402b6a <_sbrk+0x80>
C:/wsFreedomStudio/kernel/freedom-metal/gloss/sys_sbrk.c:36
20402b58:	800007b7          	lui	a5,0x80000
20402b5c:	80002737          	lui	a4,0x80002
20402b60:	ad070713          	addi	a4,a4,-1328 # 80001ad0 <metal_segment_heap_target_end+0x0>
20402b64:	7ae7a223          	sw	a4,1956(a5) # 800007a4 <metal_segment_heap_target_end+0xffffecd4>
C:/wsFreedomStudio/kernel/freedom-metal/gloss/sys_sbrk.c:37
20402b68:	57fd                	li	a5,-1
C:/wsFreedomStudio/kernel/freedom-metal/gloss/sys_sbrk.c:43
20402b6a:	853e                	mv	a0,a5
20402b6c:	50b2                	lw	ra,44(sp)
20402b6e:	5422                	lw	s0,40(sp)
20402b70:	6145                	addi	sp,sp,48
20402b72:	8082                	ret

20402b74 <muldiv>:
muldiv():
C:/wsFreedomStudio/kernel/freedom-metal/gloss/sys_times.c:27
20402b74:	7139                	addi	sp,sp,-64
20402b76:	de06                	sw	ra,60(sp)
20402b78:	dc22                	sw	s0,56(sp)
20402b7a:	da4a                	sw	s2,52(sp)
20402b7c:	d84e                	sw	s3,48(sp)
20402b7e:	d652                	sw	s4,44(sp)
20402b80:	d456                	sw	s5,40(sp)
20402b82:	0080                	addi	s0,sp,64
20402b84:	fca42c23          	sw	a0,-40(s0)
20402b88:	fcb42e23          	sw	a1,-36(s0)
20402b8c:	fcc42823          	sw	a2,-48(s0)
20402b90:	fcd42a23          	sw	a3,-44(s0)
20402b94:	fce42423          	sw	a4,-56(s0)
20402b98:	fcf42623          	sw	a5,-52(s0)
C:/wsFreedomStudio/kernel/freedom-metal/gloss/sys_times.c:28
20402b9c:	fd842703          	lw	a4,-40(s0)
20402ba0:	fdc42783          	lw	a5,-36(s0)
20402ba4:	fc842603          	lw	a2,-56(s0)
20402ba8:	fcc42683          	lw	a3,-52(s0)
20402bac:	853a                	mv	a0,a4
20402bae:	85be                	mv	a1,a5
20402bb0:	2f21                	jal	204032c8 <__umoddi3>
20402bb2:	872a                	mv	a4,a0
20402bb4:	87ae                	mv	a5,a1
20402bb6:	fd042683          	lw	a3,-48(s0)
20402bba:	02f68633          	mul	a2,a3,a5
20402bbe:	fd442683          	lw	a3,-44(s0)
20402bc2:	02e686b3          	mul	a3,a3,a4
20402bc6:	9636                	add	a2,a2,a3
20402bc8:	fd042683          	lw	a3,-48(s0)
20402bcc:	02e685b3          	mul	a1,a3,a4
20402bd0:	02e6bab3          	mulhu	s5,a3,a4
20402bd4:	8a2e                	mv	s4,a1
20402bd6:	015607b3          	add	a5,a2,s5
20402bda:	8abe                	mv	s5,a5
20402bdc:	fc842603          	lw	a2,-56(s0)
20402be0:	fcc42683          	lw	a3,-52(s0)
20402be4:	8552                	mv	a0,s4
20402be6:	85d6                	mv	a1,s5
20402be8:	2641                	jal	20402f68 <__udivdi3>
20402bea:	872a                	mv	a4,a0
20402bec:	87ae                	mv	a5,a1
20402bee:	8a3a                	mv	s4,a4
20402bf0:	8abe                	mv	s5,a5
20402bf2:	fc842603          	lw	a2,-56(s0)
20402bf6:	fcc42683          	lw	a3,-52(s0)
20402bfa:	fd842503          	lw	a0,-40(s0)
20402bfe:	fdc42583          	lw	a1,-36(s0)
20402c02:	269d                	jal	20402f68 <__udivdi3>
20402c04:	872a                	mv	a4,a0
20402c06:	87ae                	mv	a5,a1
20402c08:	fd042683          	lw	a3,-48(s0)
20402c0c:	02f68633          	mul	a2,a3,a5
20402c10:	fd442683          	lw	a3,-44(s0)
20402c14:	02e686b3          	mul	a3,a3,a4
20402c18:	9636                	add	a2,a2,a3
20402c1a:	fd042683          	lw	a3,-48(s0)
20402c1e:	02e685b3          	mul	a1,a3,a4
20402c22:	02e6b9b3          	mulhu	s3,a3,a4
20402c26:	892e                	mv	s2,a1
20402c28:	013607b3          	add	a5,a2,s3
20402c2c:	89be                	mv	s3,a5
20402c2e:	012a0733          	add	a4,s4,s2
20402c32:	86ba                	mv	a3,a4
20402c34:	0146b6b3          	sltu	a3,a3,s4
20402c38:	013a87b3          	add	a5,s5,s3
20402c3c:	96be                	add	a3,a3,a5
20402c3e:	87b6                	mv	a5,a3
C:/wsFreedomStudio/kernel/freedom-metal/gloss/sys_times.c:29
20402c40:	853a                	mv	a0,a4
20402c42:	85be                	mv	a1,a5
20402c44:	50f2                	lw	ra,60(sp)
20402c46:	5462                	lw	s0,56(sp)
20402c48:	5952                	lw	s2,52(sp)
20402c4a:	59c2                	lw	s3,48(sp)
20402c4c:	5a32                	lw	s4,44(sp)
20402c4e:	5aa2                	lw	s5,40(sp)
20402c50:	6121                	addi	sp,sp,64
20402c52:	8082                	ret

20402c54 <_times>:
_times():
C:/wsFreedomStudio/kernel/freedom-metal/gloss/sys_times.c:43
20402c54:	7139                	addi	sp,sp,-64
20402c56:	de06                	sw	ra,60(sp)
20402c58:	dc22                	sw	s0,56(sp)
20402c5a:	0080                	addi	s0,sp,64
20402c5c:	fca42623          	sw	a0,-52(s0)
C:/wsFreedomStudio/kernel/freedom-metal/gloss/sys_times.c:46
20402c60:	251000ef          	jal	ra,204036b0 <metal_cpu_get_current_hartid>
20402c64:	fea42623          	sw	a0,-20(s0)
C:/wsFreedomStudio/kernel/freedom-metal/gloss/sys_times.c:48
20402c68:	fd840793          	addi	a5,s0,-40
20402c6c:	85be                	mv	a1,a5
20402c6e:	fec42503          	lw	a0,-20(s0)
20402c72:	3b5000ef          	jal	ra,20403826 <metal_timer_get_timebase_frequency>
C:/wsFreedomStudio/kernel/freedom-metal/gloss/sys_times.c:49
20402c76:	fe040793          	addi	a5,s0,-32
20402c7a:	85be                	mv	a1,a5
20402c7c:	fec42503          	lw	a0,-20(s0)
20402c80:	363000ef          	jal	ra,204037e2 <metal_timer_get_cyclecount>
C:/wsFreedomStudio/kernel/freedom-metal/gloss/sys_times.c:59
20402c84:	fe042503          	lw	a0,-32(s0)
20402c88:	fe442583          	lw	a1,-28(s0)
20402c8c:	fd842703          	lw	a4,-40(s0)
20402c90:	fdc42783          	lw	a5,-36(s0)
20402c94:	000f4637          	lui	a2,0xf4
20402c98:	24060613          	addi	a2,a2,576 # f4240 <__heap_size+0xf3a40>
20402c9c:	4681                	li	a3,0
20402c9e:	3dd9                	jal	20402b74 <muldiv>
20402ca0:	872a                	mv	a4,a0
20402ca2:	87ae                	mv	a5,a1
20402ca4:	fee42023          	sw	a4,-32(s0)
20402ca8:	fef42223          	sw	a5,-28(s0)
C:/wsFreedomStudio/kernel/freedom-metal/gloss/sys_times.c:61
20402cac:	fcc42783          	lw	a5,-52(s0)
20402cb0:	0007a223          	sw	zero,4(a5)
C:/wsFreedomStudio/kernel/freedom-metal/gloss/sys_times.c:62
20402cb4:	fcc42783          	lw	a5,-52(s0)
20402cb8:	0007a423          	sw	zero,8(a5)
C:/wsFreedomStudio/kernel/freedom-metal/gloss/sys_times.c:63
20402cbc:	fcc42783          	lw	a5,-52(s0)
20402cc0:	0007a623          	sw	zero,12(a5)
C:/wsFreedomStudio/kernel/freedom-metal/gloss/sys_times.c:64
20402cc4:	fe042703          	lw	a4,-32(s0)
20402cc8:	fe442783          	lw	a5,-28(s0)
20402ccc:	fcc42783          	lw	a5,-52(s0)
20402cd0:	c398                	sw	a4,0(a5)
20402cd2:	fcc42783          	lw	a5,-52(s0)
20402cd6:	439c                	lw	a5,0(a5)
C:/wsFreedomStudio/kernel/freedom-metal/gloss/sys_times.c:65
20402cd8:	853e                	mv	a0,a5
20402cda:	50f2                	lw	ra,60(sp)
20402cdc:	5462                	lw	s0,56(sp)
20402cde:	6121                	addi	sp,sp,64
20402ce0:	8082                	ret

20402ce2 <_write>:
_write():
C:/wsFreedomStudio/kernel/freedom-metal/gloss/sys_write.c:7
20402ce2:	7179                	addi	sp,sp,-48
20402ce4:	d606                	sw	ra,44(sp)
20402ce6:	d422                	sw	s0,40(sp)
20402ce8:	1800                	addi	s0,sp,48
20402cea:	fca42e23          	sw	a0,-36(s0)
20402cee:	fcb42c23          	sw	a1,-40(s0)
20402cf2:	fcc42a23          	sw	a2,-44(s0)
C:/wsFreedomStudio/kernel/freedom-metal/gloss/sys_write.c:8
20402cf6:	fdc42703          	lw	a4,-36(s0)
20402cfa:	4785                	li	a5,1
20402cfc:	00f70963          	beq	a4,a5,20402d0e <_write+0x2c>
C:/wsFreedomStudio/kernel/freedom-metal/gloss/sys_write.c:9
20402d00:	28b1                	jal	20402d5c <__errno>
20402d02:	872a                	mv	a4,a0
20402d04:	05800793          	li	a5,88
20402d08:	c31c                	sw	a5,0(a4)
C:/wsFreedomStudio/kernel/freedom-metal/gloss/sys_write.c:10
20402d0a:	57fd                	li	a5,-1
20402d0c:	a835                	j	20402d48 <_write+0x66>
C:/wsFreedomStudio/kernel/freedom-metal/gloss/sys_write.c:13
20402d0e:	fd842783          	lw	a5,-40(s0)
20402d12:	fef42423          	sw	a5,-24(s0)
C:/wsFreedomStudio/kernel/freedom-metal/gloss/sys_write.c:14
20402d16:	fe042623          	sw	zero,-20(s0)
20402d1a:	a005                	j	20402d3a <_write+0x58>
C:/wsFreedomStudio/kernel/freedom-metal/gloss/sys_write.c:15 (discriminator 3)
20402d1c:	fe842703          	lw	a4,-24(s0)
20402d20:	fec42783          	lw	a5,-20(s0)
20402d24:	97ba                	add	a5,a5,a4
20402d26:	0007c783          	lbu	a5,0(a5)
20402d2a:	853e                	mv	a0,a5
20402d2c:	33f000ef          	jal	ra,2040386a <metal_tty_putc>
C:/wsFreedomStudio/kernel/freedom-metal/gloss/sys_write.c:14 (discriminator 3)
20402d30:	fec42783          	lw	a5,-20(s0)
20402d34:	0785                	addi	a5,a5,1
20402d36:	fef42623          	sw	a5,-20(s0)
C:/wsFreedomStudio/kernel/freedom-metal/gloss/sys_write.c:14 (discriminator 1)
20402d3a:	fec42703          	lw	a4,-20(s0)
20402d3e:	fd442783          	lw	a5,-44(s0)
20402d42:	fcf76de3          	bltu	a4,a5,20402d1c <_write+0x3a>
C:/wsFreedomStudio/kernel/freedom-metal/gloss/sys_write.c:16
20402d46:	4781                	li	a5,0
C:/wsFreedomStudio/kernel/freedom-metal/gloss/sys_write.c:17
20402d48:	853e                	mv	a0,a5
20402d4a:	50b2                	lw	ra,44(sp)
20402d4c:	5422                	lw	s0,40(sp)
20402d4e:	6145                	addi	sp,sp,48
20402d50:	8082                	ret

20402d52 <atexit>:
atexit():
20402d52:	85aa                	mv	a1,a0
20402d54:	4681                	li	a3,0
20402d56:	4601                	li	a2,0
20402d58:	4501                	li	a0,0
20402d5a:	a0e9                	j	20402e24 <__register_exitproc>

20402d5c <__errno>:
__errno():
20402d5c:	5fbfe517          	auipc	a0,0x5fbfe
20402d60:	a4452503          	lw	a0,-1468(a0) # 800007a0 <_impure_ptr>
20402d64:	8082                	ret

20402d66 <exit>:
exit():
20402d66:	1141                	addi	sp,sp,-16
20402d68:	c422                	sw	s0,8(sp)
20402d6a:	c606                	sw	ra,12(sp)
20402d6c:	00000797          	auipc	a5,0x0
20402d70:	13478793          	addi	a5,a5,308 # 20402ea0 <__call_exitprocs>
20402d74:	842a                	mv	s0,a0
20402d76:	c399                	beqz	a5,20402d7c <exit+0x16>
20402d78:	4581                	li	a1,0
20402d7a:	221d                	jal	20402ea0 <__call_exitprocs>
20402d7c:	ffffe517          	auipc	a0,0xffffe
20402d80:	37452503          	lw	a0,884(a0) # 204010f0 <_global_impure_ptr>
20402d84:	551c                	lw	a5,40(a0)
20402d86:	c391                	beqz	a5,20402d8a <exit+0x24>
20402d88:	9782                	jalr	a5
20402d8a:	8522                	mv	a0,s0
20402d8c:	21a050ef          	jal	ra,20407fa6 <_exit>

20402d90 <__libc_fini_array>:
__libc_fini_array():
20402d90:	1141                	addi	sp,sp,-16
20402d92:	c422                	sw	s0,8(sp)
20402d94:	c226                	sw	s1,4(sp)
20402d96:	ffffd417          	auipc	s0,0xffffd
20402d9a:	55a40413          	addi	s0,s0,1370 # 204002f0 <__fini_array_end>
20402d9e:	ffffd497          	auipc	s1,0xffffd
20402da2:	55248493          	addi	s1,s1,1362 # 204002f0 <__fini_array_end>
20402da6:	8c05                	sub	s0,s0,s1
20402da8:	c606                	sw	ra,12(sp)
20402daa:	8409                	srai	s0,s0,0x2
20402dac:	e411                	bnez	s0,20402db8 <__libc_fini_array+0x28>
20402dae:	40b2                	lw	ra,12(sp)
20402db0:	4422                	lw	s0,8(sp)
20402db2:	4492                	lw	s1,4(sp)
20402db4:	0141                	addi	sp,sp,16
20402db6:	8082                	ret
20402db8:	147d                	addi	s0,s0,-1
20402dba:	00241793          	slli	a5,s0,0x2
20402dbe:	97a6                	add	a5,a5,s1
20402dc0:	439c                	lw	a5,0(a5)
20402dc2:	9782                	jalr	a5
20402dc4:	b7e5                	j	20402dac <__libc_fini_array+0x1c>

20402dc6 <__libc_init_array>:
__libc_init_array():
20402dc6:	1141                	addi	sp,sp,-16
20402dc8:	c422                	sw	s0,8(sp)
20402dca:	c226                	sw	s1,4(sp)
20402dcc:	ffffd417          	auipc	s0,0xffffd
20402dd0:	51440413          	addi	s0,s0,1300 # 204002e0 <_metal_tty_init_ptr>
20402dd4:	ffffd497          	auipc	s1,0xffffd
20402dd8:	50c48493          	addi	s1,s1,1292 # 204002e0 <_metal_tty_init_ptr>
20402ddc:	8c81                	sub	s1,s1,s0
20402dde:	c04a                	sw	s2,0(sp)
20402de0:	c606                	sw	ra,12(sp)
20402de2:	8489                	srai	s1,s1,0x2
20402de4:	4901                	li	s2,0
20402de6:	02991563          	bne	s2,s1,20402e10 <__libc_init_array+0x4a>
20402dea:	ffffd417          	auipc	s0,0xffffd
20402dee:	4f640413          	addi	s0,s0,1270 # 204002e0 <_metal_tty_init_ptr>
20402df2:	ffffd497          	auipc	s1,0xffffd
20402df6:	4ee48493          	addi	s1,s1,1262 # 204002e0 <_metal_tty_init_ptr>
20402dfa:	8c81                	sub	s1,s1,s0
20402dfc:	8489                	srai	s1,s1,0x2
20402dfe:	4901                	li	s2,0
20402e00:	00991d63          	bne	s2,s1,20402e1a <__libc_init_array+0x54>
20402e04:	40b2                	lw	ra,12(sp)
20402e06:	4422                	lw	s0,8(sp)
20402e08:	4492                	lw	s1,4(sp)
20402e0a:	4902                	lw	s2,0(sp)
20402e0c:	0141                	addi	sp,sp,16
20402e0e:	8082                	ret
20402e10:	401c                	lw	a5,0(s0)
20402e12:	0905                	addi	s2,s2,1
20402e14:	0411                	addi	s0,s0,4
20402e16:	9782                	jalr	a5
20402e18:	b7f9                	j	20402de6 <__libc_init_array+0x20>
20402e1a:	401c                	lw	a5,0(s0)
20402e1c:	0905                	addi	s2,s2,1
20402e1e:	0411                	addi	s0,s0,4
20402e20:	9782                	jalr	a5
20402e22:	bff9                	j	20402e00 <__libc_init_array+0x3a>

20402e24 <__register_exitproc>:
__register_exitproc():
20402e24:	88aa                	mv	a7,a0
20402e26:	5fbfe517          	auipc	a0,0x5fbfe
20402e2a:	9ae50513          	addi	a0,a0,-1618 # 800007d4 <_global_atexit>
20402e2e:	411c                	lw	a5,0(a0)
20402e30:	ef91                	bnez	a5,20402e4c <__register_exitproc+0x28>
20402e32:	5fbfe717          	auipc	a4,0x5fbfe
20402e36:	9ae70713          	addi	a4,a4,-1618 # 800007e0 <_global_atexit0>
20402e3a:	c118                	sw	a4,0(a0)
20402e3c:	00000513          	li	a0,0
20402e40:	87ba                	mv	a5,a4
20402e42:	c509                	beqz	a0,20402e4c <__register_exitproc+0x28>
20402e44:	411c                	lw	a5,0(a0)
20402e46:	08f72423          	sw	a5,136(a4)
20402e4a:	87ba                	mv	a5,a4
20402e4c:	43d8                	lw	a4,4(a5)
20402e4e:	487d                	li	a6,31
20402e50:	557d                	li	a0,-1
20402e52:	04e84663          	blt	a6,a4,20402e9e <__register_exitproc+0x7a>
20402e56:	02088d63          	beqz	a7,20402e90 <__register_exitproc+0x6c>
20402e5a:	0887a803          	lw	a6,136(a5)
20402e5e:	04080063          	beqz	a6,20402e9e <__register_exitproc+0x7a>
20402e62:	00271513          	slli	a0,a4,0x2
20402e66:	9542                	add	a0,a0,a6
20402e68:	c110                	sw	a2,0(a0)
20402e6a:	10082303          	lw	t1,256(a6)
20402e6e:	4605                	li	a2,1
20402e70:	00e61633          	sll	a2,a2,a4
20402e74:	00c36333          	or	t1,t1,a2
20402e78:	10682023          	sw	t1,256(a6)
20402e7c:	08d52023          	sw	a3,128(a0)
20402e80:	4689                	li	a3,2
20402e82:	00d89763          	bne	a7,a3,20402e90 <__register_exitproc+0x6c>
20402e86:	10482683          	lw	a3,260(a6)
20402e8a:	8e55                	or	a2,a2,a3
20402e8c:	10c82223          	sw	a2,260(a6)
20402e90:	00170693          	addi	a3,a4,1
20402e94:	070a                	slli	a4,a4,0x2
20402e96:	c3d4                	sw	a3,4(a5)
20402e98:	97ba                	add	a5,a5,a4
20402e9a:	c78c                	sw	a1,8(a5)
20402e9c:	4501                	li	a0,0
20402e9e:	8082                	ret

20402ea0 <__call_exitprocs>:
__call_exitprocs():
20402ea0:	7179                	addi	sp,sp,-48
20402ea2:	ca56                	sw	s5,20(sp)
20402ea4:	c85a                	sw	s6,16(sp)
20402ea6:	c65e                	sw	s7,12(sp)
20402ea8:	c462                	sw	s8,8(sp)
20402eaa:	d606                	sw	ra,44(sp)
20402eac:	d422                	sw	s0,40(sp)
20402eae:	d226                	sw	s1,36(sp)
20402eb0:	d04a                	sw	s2,32(sp)
20402eb2:	ce4e                	sw	s3,28(sp)
20402eb4:	cc52                	sw	s4,24(sp)
20402eb6:	c266                	sw	s9,4(sp)
20402eb8:	8b2a                	mv	s6,a0
20402eba:	8aae                	mv	s5,a1
20402ebc:	5fbfeb97          	auipc	s7,0x5fbfe
20402ec0:	918b8b93          	addi	s7,s7,-1768 # 800007d4 <_global_atexit>
20402ec4:	4c05                	li	s8,1
20402ec6:	000ba483          	lw	s1,0(s7)
20402eca:	cc81                	beqz	s1,20402ee2 <__call_exitprocs+0x42>
20402ecc:	40c0                	lw	s0,4(s1)
20402ece:	0884a983          	lw	s3,136(s1)
20402ed2:	fff40913          	addi	s2,s0,-1
20402ed6:	040a                	slli	s0,s0,0x2
20402ed8:	00898a33          	add	s4,s3,s0
20402edc:	9426                	add	s0,s0,s1
20402ede:	00095f63          	bgez	s2,20402efc <__call_exitprocs+0x5c>
20402ee2:	50b2                	lw	ra,44(sp)
20402ee4:	5422                	lw	s0,40(sp)
20402ee6:	5492                	lw	s1,36(sp)
20402ee8:	5902                	lw	s2,32(sp)
20402eea:	49f2                	lw	s3,28(sp)
20402eec:	4a62                	lw	s4,24(sp)
20402eee:	4ad2                	lw	s5,20(sp)
20402ef0:	4b42                	lw	s6,16(sp)
20402ef2:	4bb2                	lw	s7,12(sp)
20402ef4:	4c22                	lw	s8,8(sp)
20402ef6:	4c92                	lw	s9,4(sp)
20402ef8:	6145                	addi	sp,sp,48
20402efa:	8082                	ret
20402efc:	000a8c63          	beqz	s5,20402f14 <__call_exitprocs+0x74>
20402f00:	00099663          	bnez	s3,20402f0c <__call_exitprocs+0x6c>
20402f04:	197d                	addi	s2,s2,-1
20402f06:	1a71                	addi	s4,s4,-4
20402f08:	1471                	addi	s0,s0,-4
20402f0a:	bfd1                	j	20402ede <__call_exitprocs+0x3e>
20402f0c:	07ca2783          	lw	a5,124(s4)
20402f10:	ff579ae3          	bne	a5,s5,20402f04 <__call_exitprocs+0x64>
20402f14:	40d8                	lw	a4,4(s1)
20402f16:	405c                	lw	a5,4(s0)
20402f18:	177d                	addi	a4,a4,-1
20402f1a:	03271863          	bne	a4,s2,20402f4a <__call_exitprocs+0xaa>
20402f1e:	0124a223          	sw	s2,4(s1)
20402f22:	d3ed                	beqz	a5,20402f04 <__call_exitprocs+0x64>
20402f24:	0044ac83          	lw	s9,4(s1)
20402f28:	00098863          	beqz	s3,20402f38 <__call_exitprocs+0x98>
20402f2c:	1009a683          	lw	a3,256(s3)
20402f30:	012c1733          	sll	a4,s8,s2
20402f34:	8ef9                	and	a3,a3,a4
20402f36:	ee89                	bnez	a3,20402f50 <__call_exitprocs+0xb0>
20402f38:	9782                	jalr	a5
20402f3a:	40d8                	lw	a4,4(s1)
20402f3c:	000ba783          	lw	a5,0(s7)
20402f40:	f99713e3          	bne	a4,s9,20402ec6 <__call_exitprocs+0x26>
20402f44:	fcf480e3          	beq	s1,a5,20402f04 <__call_exitprocs+0x64>
20402f48:	bfbd                	j	20402ec6 <__call_exitprocs+0x26>
20402f4a:	00042223          	sw	zero,4(s0)
20402f4e:	bfd1                	j	20402f22 <__call_exitprocs+0x82>
20402f50:	1049a683          	lw	a3,260(s3)
20402f54:	ffca2583          	lw	a1,-4(s4)
20402f58:	8f75                	and	a4,a4,a3
20402f5a:	e701                	bnez	a4,20402f62 <__call_exitprocs+0xc2>
20402f5c:	855a                	mv	a0,s6
20402f5e:	9782                	jalr	a5
20402f60:	bfe9                	j	20402f3a <__call_exitprocs+0x9a>
20402f62:	852e                	mv	a0,a1
20402f64:	9782                	jalr	a5
20402f66:	bfd1                	j	20402f3a <__call_exitprocs+0x9a>

20402f68 <__udivdi3>:
__udivdi3():
/scratch/jenkins/workspace/tpp-freedom-tools/tpp03--build-binary-packages--parameterized/obj/x86_64-w64-mingw32/build/riscv64-unknown-elf-gcc/build-gcc-stage2/riscv64-unknown-elf/rv32imac/ilp32/libgcc/../../../../../riscv-gcc/libgcc/libgcc2.c:1319
20402f68:	88aa                	mv	a7,a0
20402f6a:	87ae                	mv	a5,a1
__udivmoddi4():
/scratch/jenkins/workspace/tpp-freedom-tools/tpp03--build-binary-packages--parameterized/obj/x86_64-w64-mingw32/build/riscv64-unknown-elf-gcc/build-gcc-stage2/riscv64-unknown-elf/rv32imac/ilp32/libgcc/../../../../../riscv-gcc/libgcc/libgcc2.c:1024
20402f6c:	8832                	mv	a6,a2
/scratch/jenkins/workspace/tpp-freedom-tools/tpp03--build-binary-packages--parameterized/obj/x86_64-w64-mingw32/build/riscv64-unknown-elf-gcc/build-gcc-stage2/riscv64-unknown-elf/rv32imac/ilp32/libgcc/../../../../../riscv-gcc/libgcc/libgcc2.c:1025
20402f6e:	8536                	mv	a0,a3
/scratch/jenkins/workspace/tpp-freedom-tools/tpp03--build-binary-packages--parameterized/obj/x86_64-w64-mingw32/build/riscv64-unknown-elf-gcc/build-gcc-stage2/riscv64-unknown-elf/rv32imac/ilp32/libgcc/../../../../../riscv-gcc/libgcc/libgcc2.c:1026
20402f70:	8346                	mv	t1,a7
/scratch/jenkins/workspace/tpp-freedom-tools/tpp03--build-binary-packages--parameterized/obj/x86_64-w64-mingw32/build/riscv64-unknown-elf-gcc/build-gcc-stage2/riscv64-unknown-elf/rv32imac/ilp32/libgcc/../../../../../riscv-gcc/libgcc/libgcc2.c:1064
20402f72:	20069663          	bnez	a3,2040317e <__udivdi3+0x216>
/scratch/jenkins/workspace/tpp-freedom-tools/tpp03--build-binary-packages--parameterized/obj/x86_64-w64-mingw32/build/riscv64-unknown-elf-gcc/build-gcc-stage2/riscv64-unknown-elf/rv32imac/ilp32/libgcc/../../../../../riscv-gcc/libgcc/libgcc2.c:1066
20402f76:	ffffd697          	auipc	a3,0xffffd
20402f7a:	53e68693          	addi	a3,a3,1342 # 204004b4 <__clz_tab>
20402f7e:	0ac5ff63          	bgeu	a1,a2,2040303c <__udivdi3+0xd4>
/scratch/jenkins/workspace/tpp-freedom-tools/tpp03--build-binary-packages--parameterized/obj/x86_64-w64-mingw32/build/riscv64-unknown-elf-gcc/build-gcc-stage2/riscv64-unknown-elf/rv32imac/ilp32/libgcc/../../../../../riscv-gcc/libgcc/libgcc2.c:1070
20402f82:	6741                	lui	a4,0x10
20402f84:	0ae67563          	bgeu	a2,a4,2040302e <__udivdi3+0xc6>
20402f88:	0ff00713          	li	a4,255
20402f8c:	00c73733          	sltu	a4,a4,a2
20402f90:	070e                	slli	a4,a4,0x3
20402f92:	00e65533          	srl	a0,a2,a4
20402f96:	96aa                	add	a3,a3,a0
20402f98:	0006c683          	lbu	a3,0(a3)
20402f9c:	02000513          	li	a0,32
20402fa0:	9736                	add	a4,a4,a3
20402fa2:	40e506b3          	sub	a3,a0,a4
/scratch/jenkins/workspace/tpp-freedom-tools/tpp03--build-binary-packages--parameterized/obj/x86_64-w64-mingw32/build/riscv64-unknown-elf-gcc/build-gcc-stage2/riscv64-unknown-elf/rv32imac/ilp32/libgcc/../../../../../riscv-gcc/libgcc/libgcc2.c:1072
20402fa6:	00e50b63          	beq	a0,a4,20402fbc <__udivdi3+0x54>
/scratch/jenkins/workspace/tpp-freedom-tools/tpp03--build-binary-packages--parameterized/obj/x86_64-w64-mingw32/build/riscv64-unknown-elf-gcc/build-gcc-stage2/riscv64-unknown-elf/rv32imac/ilp32/libgcc/../../../../../riscv-gcc/libgcc/libgcc2.c:1078
20402faa:	00d795b3          	sll	a1,a5,a3
20402fae:	00e8d733          	srl	a4,a7,a4
/scratch/jenkins/workspace/tpp-freedom-tools/tpp03--build-binary-packages--parameterized/obj/x86_64-w64-mingw32/build/riscv64-unknown-elf-gcc/build-gcc-stage2/riscv64-unknown-elf/rv32imac/ilp32/libgcc/../../../../../riscv-gcc/libgcc/libgcc2.c:1077
20402fb2:	00d61833          	sll	a6,a2,a3
/scratch/jenkins/workspace/tpp-freedom-tools/tpp03--build-binary-packages--parameterized/obj/x86_64-w64-mingw32/build/riscv64-unknown-elf-gcc/build-gcc-stage2/riscv64-unknown-elf/rv32imac/ilp32/libgcc/../../../../../riscv-gcc/libgcc/libgcc2.c:1078
20402fb6:	8dd9                	or	a1,a1,a4
/scratch/jenkins/workspace/tpp-freedom-tools/tpp03--build-binary-packages--parameterized/obj/x86_64-w64-mingw32/build/riscv64-unknown-elf-gcc/build-gcc-stage2/riscv64-unknown-elf/rv32imac/ilp32/libgcc/../../../../../riscv-gcc/libgcc/libgcc2.c:1079
20402fb8:	00d89333          	sll	t1,a7,a3
/scratch/jenkins/workspace/tpp-freedom-tools/tpp03--build-binary-packages--parameterized/obj/x86_64-w64-mingw32/build/riscv64-unknown-elf-gcc/build-gcc-stage2/riscv64-unknown-elf/rv32imac/ilp32/libgcc/../../../../../riscv-gcc/libgcc/libgcc2.c:1082
20402fbc:	01085893          	srli	a7,a6,0x10
20402fc0:	0315d6b3          	divu	a3,a1,a7
20402fc4:	01081613          	slli	a2,a6,0x10
20402fc8:	8241                	srli	a2,a2,0x10
20402fca:	01035793          	srli	a5,t1,0x10
20402fce:	0315f733          	remu	a4,a1,a7
20402fd2:	8536                	mv	a0,a3
20402fd4:	02d605b3          	mul	a1,a2,a3
20402fd8:	0742                	slli	a4,a4,0x10
20402fda:	8fd9                	or	a5,a5,a4
20402fdc:	00b7fc63          	bgeu	a5,a1,20402ff4 <__udivdi3+0x8c>
20402fe0:	97c2                	add	a5,a5,a6
20402fe2:	fff68513          	addi	a0,a3,-1
20402fe6:	0107e763          	bltu	a5,a6,20402ff4 <__udivdi3+0x8c>
20402fea:	00b7f563          	bgeu	a5,a1,20402ff4 <__udivdi3+0x8c>
20402fee:	ffe68513          	addi	a0,a3,-2
20402ff2:	97c2                	add	a5,a5,a6
20402ff4:	8f8d                	sub	a5,a5,a1
20402ff6:	0317f733          	remu	a4,a5,a7
20402ffa:	0342                	slli	t1,t1,0x10
20402ffc:	01035313          	srli	t1,t1,0x10
20403000:	0317d7b3          	divu	a5,a5,a7
20403004:	0742                	slli	a4,a4,0x10
20403006:	00676333          	or	t1,a4,t1
2040300a:	02f606b3          	mul	a3,a2,a5
2040300e:	863e                	mv	a2,a5
20403010:	00d37b63          	bgeu	t1,a3,20403026 <__udivdi3+0xbe>
20403014:	9342                	add	t1,t1,a6
20403016:	fff78613          	addi	a2,a5,-1
2040301a:	01036663          	bltu	t1,a6,20403026 <__udivdi3+0xbe>
2040301e:	00d37463          	bgeu	t1,a3,20403026 <__udivdi3+0xbe>
20403022:	ffe78613          	addi	a2,a5,-2
20403026:	0542                	slli	a0,a0,0x10
20403028:	8d51                	or	a0,a0,a2
/scratch/jenkins/workspace/tpp-freedom-tools/tpp03--build-binary-packages--parameterized/obj/x86_64-w64-mingw32/build/riscv64-unknown-elf-gcc/build-gcc-stage2/riscv64-unknown-elf/rv32imac/ilp32/libgcc/../../../../../riscv-gcc/libgcc/libgcc2.c:1209
2040302a:	4581                	li	a1,0
2040302c:	a85d                	j	204030e2 <__udivdi3+0x17a>
/scratch/jenkins/workspace/tpp-freedom-tools/tpp03--build-binary-packages--parameterized/obj/x86_64-w64-mingw32/build/riscv64-unknown-elf-gcc/build-gcc-stage2/riscv64-unknown-elf/rv32imac/ilp32/libgcc/../../../../../riscv-gcc/libgcc/libgcc2.c:1070
2040302e:	01000537          	lui	a0,0x1000
20403032:	4741                	li	a4,16
20403034:	f4a66fe3          	bltu	a2,a0,20402f92 <__udivdi3+0x2a>
20403038:	4761                	li	a4,24
2040303a:	bfa1                	j	20402f92 <__udivdi3+0x2a>
/scratch/jenkins/workspace/tpp-freedom-tools/tpp03--build-binary-packages--parameterized/obj/x86_64-w64-mingw32/build/riscv64-unknown-elf-gcc/build-gcc-stage2/riscv64-unknown-elf/rv32imac/ilp32/libgcc/../../../../../riscv-gcc/libgcc/libgcc2.c:1091
2040303c:	e601                	bnez	a2,20403044 <__udivdi3+0xdc>
/scratch/jenkins/workspace/tpp-freedom-tools/tpp03--build-binary-packages--parameterized/obj/x86_64-w64-mingw32/build/riscv64-unknown-elf-gcc/build-gcc-stage2/riscv64-unknown-elf/rv32imac/ilp32/libgcc/../../../../../riscv-gcc/libgcc/libgcc2.c:1092
2040303e:	4705                	li	a4,1
20403040:	02c75833          	divu	a6,a4,a2
/scratch/jenkins/workspace/tpp-freedom-tools/tpp03--build-binary-packages--parameterized/obj/x86_64-w64-mingw32/build/riscv64-unknown-elf-gcc/build-gcc-stage2/riscv64-unknown-elf/rv32imac/ilp32/libgcc/../../../../../riscv-gcc/libgcc/libgcc2.c:1094
20403044:	6741                	lui	a4,0x10
20403046:	08e87f63          	bgeu	a6,a4,204030e4 <__udivdi3+0x17c>
2040304a:	0ff00713          	li	a4,255
2040304e:	01077363          	bgeu	a4,a6,20403054 <__udivdi3+0xec>
20403052:	4521                	li	a0,8
20403054:	00a85733          	srl	a4,a6,a0
20403058:	96ba                	add	a3,a3,a4
2040305a:	0006c703          	lbu	a4,0(a3)
2040305e:	02000613          	li	a2,32
20403062:	972a                	add	a4,a4,a0
20403064:	40e606b3          	sub	a3,a2,a4
/scratch/jenkins/workspace/tpp-freedom-tools/tpp03--build-binary-packages--parameterized/obj/x86_64-w64-mingw32/build/riscv64-unknown-elf-gcc/build-gcc-stage2/riscv64-unknown-elf/rv32imac/ilp32/libgcc/../../../../../riscv-gcc/libgcc/libgcc2.c:1096
20403068:	08e61563          	bne	a2,a4,204030f2 <__udivdi3+0x18a>
/scratch/jenkins/workspace/tpp-freedom-tools/tpp03--build-binary-packages--parameterized/obj/x86_64-w64-mingw32/build/riscv64-unknown-elf-gcc/build-gcc-stage2/riscv64-unknown-elf/rv32imac/ilp32/libgcc/../../../../../riscv-gcc/libgcc/libgcc2.c:1105
2040306c:	410787b3          	sub	a5,a5,a6
/scratch/jenkins/workspace/tpp-freedom-tools/tpp03--build-binary-packages--parameterized/obj/x86_64-w64-mingw32/build/riscv64-unknown-elf-gcc/build-gcc-stage2/riscv64-unknown-elf/rv32imac/ilp32/libgcc/../../../../../riscv-gcc/libgcc/libgcc2.c:1106
20403070:	4585                	li	a1,1
/scratch/jenkins/workspace/tpp-freedom-tools/tpp03--build-binary-packages--parameterized/obj/x86_64-w64-mingw32/build/riscv64-unknown-elf-gcc/build-gcc-stage2/riscv64-unknown-elf/rv32imac/ilp32/libgcc/../../../../../riscv-gcc/libgcc/libgcc2.c:1124
20403072:	01085893          	srli	a7,a6,0x10
20403076:	01081613          	slli	a2,a6,0x10
2040307a:	8241                	srli	a2,a2,0x10
2040307c:	01035713          	srli	a4,t1,0x10
20403080:	0317f6b3          	remu	a3,a5,a7
20403084:	0317d7b3          	divu	a5,a5,a7
20403088:	06c2                	slli	a3,a3,0x10
2040308a:	8f55                	or	a4,a4,a3
2040308c:	02f60e33          	mul	t3,a2,a5
20403090:	853e                	mv	a0,a5
20403092:	01c77c63          	bgeu	a4,t3,204030aa <__udivdi3+0x142>
20403096:	9742                	add	a4,a4,a6
20403098:	fff78513          	addi	a0,a5,-1
2040309c:	01076763          	bltu	a4,a6,204030aa <__udivdi3+0x142>
204030a0:	01c77563          	bgeu	a4,t3,204030aa <__udivdi3+0x142>
204030a4:	ffe78513          	addi	a0,a5,-2
204030a8:	9742                	add	a4,a4,a6
204030aa:	41c70733          	sub	a4,a4,t3
204030ae:	031777b3          	remu	a5,a4,a7
204030b2:	0342                	slli	t1,t1,0x10
204030b4:	01035313          	srli	t1,t1,0x10
204030b8:	03175733          	divu	a4,a4,a7
204030bc:	07c2                	slli	a5,a5,0x10
204030be:	0067e333          	or	t1,a5,t1
204030c2:	02e606b3          	mul	a3,a2,a4
204030c6:	863a                	mv	a2,a4
204030c8:	00d37b63          	bgeu	t1,a3,204030de <__udivdi3+0x176>
204030cc:	9342                	add	t1,t1,a6
204030ce:	fff70613          	addi	a2,a4,-1 # ffff <__heap_size+0xf7ff>
204030d2:	01036663          	bltu	t1,a6,204030de <__udivdi3+0x176>
204030d6:	00d37463          	bgeu	t1,a3,204030de <__udivdi3+0x176>
204030da:	ffe70613          	addi	a2,a4,-2
204030de:	0542                	slli	a0,a0,0x10
204030e0:	8d51                	or	a0,a0,a2
__udivdi3():
/scratch/jenkins/workspace/tpp-freedom-tools/tpp03--build-binary-packages--parameterized/obj/x86_64-w64-mingw32/build/riscv64-unknown-elf-gcc/build-gcc-stage2/riscv64-unknown-elf/rv32imac/ilp32/libgcc/../../../../../riscv-gcc/libgcc/libgcc2.c:1321
204030e2:	8082                	ret
__udivmoddi4():
/scratch/jenkins/workspace/tpp-freedom-tools/tpp03--build-binary-packages--parameterized/obj/x86_64-w64-mingw32/build/riscv64-unknown-elf-gcc/build-gcc-stage2/riscv64-unknown-elf/rv32imac/ilp32/libgcc/../../../../../riscv-gcc/libgcc/libgcc2.c:1094
204030e4:	01000737          	lui	a4,0x1000
204030e8:	4541                	li	a0,16
204030ea:	f6e865e3          	bltu	a6,a4,20403054 <__udivdi3+0xec>
204030ee:	4561                	li	a0,24
204030f0:	b795                	j	20403054 <__udivdi3+0xec>
/scratch/jenkins/workspace/tpp-freedom-tools/tpp03--build-binary-packages--parameterized/obj/x86_64-w64-mingw32/build/riscv64-unknown-elf-gcc/build-gcc-stage2/riscv64-unknown-elf/rv32imac/ilp32/libgcc/../../../../../riscv-gcc/libgcc/libgcc2.c:1114
204030f2:	00d81833          	sll	a6,a6,a3
/scratch/jenkins/workspace/tpp-freedom-tools/tpp03--build-binary-packages--parameterized/obj/x86_64-w64-mingw32/build/riscv64-unknown-elf-gcc/build-gcc-stage2/riscv64-unknown-elf/rv32imac/ilp32/libgcc/../../../../../riscv-gcc/libgcc/libgcc2.c:1115
204030f6:	00e7d533          	srl	a0,a5,a4
/scratch/jenkins/workspace/tpp-freedom-tools/tpp03--build-binary-packages--parameterized/obj/x86_64-w64-mingw32/build/riscv64-unknown-elf-gcc/build-gcc-stage2/riscv64-unknown-elf/rv32imac/ilp32/libgcc/../../../../../riscv-gcc/libgcc/libgcc2.c:1117
204030fa:	00d89333          	sll	t1,a7,a3
/scratch/jenkins/workspace/tpp-freedom-tools/tpp03--build-binary-packages--parameterized/obj/x86_64-w64-mingw32/build/riscv64-unknown-elf-gcc/build-gcc-stage2/riscv64-unknown-elf/rv32imac/ilp32/libgcc/../../../../../riscv-gcc/libgcc/libgcc2.c:1116
204030fe:	00d797b3          	sll	a5,a5,a3
20403102:	00e8d733          	srl	a4,a7,a4
/scratch/jenkins/workspace/tpp-freedom-tools/tpp03--build-binary-packages--parameterized/obj/x86_64-w64-mingw32/build/riscv64-unknown-elf-gcc/build-gcc-stage2/riscv64-unknown-elf/rv32imac/ilp32/libgcc/../../../../../riscv-gcc/libgcc/libgcc2.c:1119
20403106:	01085893          	srli	a7,a6,0x10
/scratch/jenkins/workspace/tpp-freedom-tools/tpp03--build-binary-packages--parameterized/obj/x86_64-w64-mingw32/build/riscv64-unknown-elf-gcc/build-gcc-stage2/riscv64-unknown-elf/rv32imac/ilp32/libgcc/../../../../../riscv-gcc/libgcc/libgcc2.c:1116
2040310a:	00f76633          	or	a2,a4,a5
/scratch/jenkins/workspace/tpp-freedom-tools/tpp03--build-binary-packages--parameterized/obj/x86_64-w64-mingw32/build/riscv64-unknown-elf-gcc/build-gcc-stage2/riscv64-unknown-elf/rv32imac/ilp32/libgcc/../../../../../riscv-gcc/libgcc/libgcc2.c:1119
2040310e:	03157733          	remu	a4,a0,a7
20403112:	01081793          	slli	a5,a6,0x10
20403116:	83c1                	srli	a5,a5,0x10
20403118:	01065593          	srli	a1,a2,0x10
2040311c:	03155533          	divu	a0,a0,a7
20403120:	0742                	slli	a4,a4,0x10
20403122:	8f4d                	or	a4,a4,a1
20403124:	02a786b3          	mul	a3,a5,a0
20403128:	85aa                	mv	a1,a0
2040312a:	00d77c63          	bgeu	a4,a3,20403142 <__udivdi3+0x1da>
2040312e:	9742                	add	a4,a4,a6
20403130:	fff50593          	addi	a1,a0,-1 # ffffff <__heap_size+0xfff7ff>
20403134:	01076763          	bltu	a4,a6,20403142 <__udivdi3+0x1da>
20403138:	00d77563          	bgeu	a4,a3,20403142 <__udivdi3+0x1da>
2040313c:	ffe50593          	addi	a1,a0,-2
20403140:	9742                	add	a4,a4,a6
20403142:	40d706b3          	sub	a3,a4,a3
20403146:	0316f733          	remu	a4,a3,a7
2040314a:	0642                	slli	a2,a2,0x10
2040314c:	8241                	srli	a2,a2,0x10
2040314e:	0316d6b3          	divu	a3,a3,a7
20403152:	0742                	slli	a4,a4,0x10
20403154:	02d78533          	mul	a0,a5,a3
20403158:	00c767b3          	or	a5,a4,a2
2040315c:	8736                	mv	a4,a3
2040315e:	00a7fc63          	bgeu	a5,a0,20403176 <__udivdi3+0x20e>
20403162:	97c2                	add	a5,a5,a6
20403164:	fff68713          	addi	a4,a3,-1
20403168:	0107e763          	bltu	a5,a6,20403176 <__udivdi3+0x20e>
2040316c:	00a7f563          	bgeu	a5,a0,20403176 <__udivdi3+0x20e>
20403170:	ffe68713          	addi	a4,a3,-2
20403174:	97c2                	add	a5,a5,a6
20403176:	05c2                	slli	a1,a1,0x10
20403178:	8f89                	sub	a5,a5,a0
2040317a:	8dd9                	or	a1,a1,a4
2040317c:	bddd                	j	20403072 <__udivdi3+0x10a>
/scratch/jenkins/workspace/tpp-freedom-tools/tpp03--build-binary-packages--parameterized/obj/x86_64-w64-mingw32/build/riscv64-unknown-elf-gcc/build-gcc-stage2/riscv64-unknown-elf/rv32imac/ilp32/libgcc/../../../../../riscv-gcc/libgcc/libgcc2.c:1140
2040317e:	14d5e263          	bltu	a1,a3,204032c2 <__udivdi3+0x35a>
/scratch/jenkins/workspace/tpp-freedom-tools/tpp03--build-binary-packages--parameterized/obj/x86_64-w64-mingw32/build/riscv64-unknown-elf-gcc/build-gcc-stage2/riscv64-unknown-elf/rv32imac/ilp32/libgcc/../../../../../riscv-gcc/libgcc/libgcc2.c:1159
20403182:	6741                	lui	a4,0x10
20403184:	02e6ff63          	bgeu	a3,a4,204031c2 <__udivdi3+0x25a>
20403188:	0ff00713          	li	a4,255
2040318c:	00d735b3          	sltu	a1,a4,a3
20403190:	058e                	slli	a1,a1,0x3
20403192:	00b6d533          	srl	a0,a3,a1
20403196:	ffffd717          	auipc	a4,0xffffd
2040319a:	31e70713          	addi	a4,a4,798 # 204004b4 <__clz_tab>
2040319e:	972a                	add	a4,a4,a0
204031a0:	00074703          	lbu	a4,0(a4)
204031a4:	02000513          	li	a0,32
204031a8:	972e                	add	a4,a4,a1
204031aa:	40e505b3          	sub	a1,a0,a4
/scratch/jenkins/workspace/tpp-freedom-tools/tpp03--build-binary-packages--parameterized/obj/x86_64-w64-mingw32/build/riscv64-unknown-elf-gcc/build-gcc-stage2/riscv64-unknown-elf/rv32imac/ilp32/libgcc/../../../../../riscv-gcc/libgcc/libgcc2.c:1160
204031ae:	02e51163          	bne	a0,a4,204031d0 <__udivdi3+0x268>
/scratch/jenkins/workspace/tpp-freedom-tools/tpp03--build-binary-packages--parameterized/obj/x86_64-w64-mingw32/build/riscv64-unknown-elf-gcc/build-gcc-stage2/riscv64-unknown-elf/rv32imac/ilp32/libgcc/../../../../../riscv-gcc/libgcc/libgcc2.c:1172
204031b2:	4505                	li	a0,1
/scratch/jenkins/workspace/tpp-freedom-tools/tpp03--build-binary-packages--parameterized/obj/x86_64-w64-mingw32/build/riscv64-unknown-elf-gcc/build-gcc-stage2/riscv64-unknown-elf/rv32imac/ilp32/libgcc/../../../../../riscv-gcc/libgcc/libgcc2.c:1170
204031b4:	f2f6e7e3          	bltu	a3,a5,204030e2 <__udivdi3+0x17a>
204031b8:	00c8b533          	sltu	a0,a7,a2
204031bc:	00154513          	xori	a0,a0,1
204031c0:	b70d                	j	204030e2 <__udivdi3+0x17a>
/scratch/jenkins/workspace/tpp-freedom-tools/tpp03--build-binary-packages--parameterized/obj/x86_64-w64-mingw32/build/riscv64-unknown-elf-gcc/build-gcc-stage2/riscv64-unknown-elf/rv32imac/ilp32/libgcc/../../../../../riscv-gcc/libgcc/libgcc2.c:1159
204031c2:	01000737          	lui	a4,0x1000
204031c6:	45c1                	li	a1,16
204031c8:	fce6e5e3          	bltu	a3,a4,20403192 <__udivdi3+0x22a>
204031cc:	45e1                	li	a1,24
204031ce:	b7d1                	j	20403192 <__udivdi3+0x22a>
/scratch/jenkins/workspace/tpp-freedom-tools/tpp03--build-binary-packages--parameterized/obj/x86_64-w64-mingw32/build/riscv64-unknown-elf-gcc/build-gcc-stage2/riscv64-unknown-elf/rv32imac/ilp32/libgcc/../../../../../riscv-gcc/libgcc/libgcc2.c:1194
204031d0:	00e65833          	srl	a6,a2,a4
204031d4:	00b696b3          	sll	a3,a3,a1
204031d8:	00d86833          	or	a6,a6,a3
/scratch/jenkins/workspace/tpp-freedom-tools/tpp03--build-binary-packages--parameterized/obj/x86_64-w64-mingw32/build/riscv64-unknown-elf-gcc/build-gcc-stage2/riscv64-unknown-elf/rv32imac/ilp32/libgcc/../../../../../riscv-gcc/libgcc/libgcc2.c:1196
204031dc:	00e7d333          	srl	t1,a5,a4
/scratch/jenkins/workspace/tpp-freedom-tools/tpp03--build-binary-packages--parameterized/obj/x86_64-w64-mingw32/build/riscv64-unknown-elf-gcc/build-gcc-stage2/riscv64-unknown-elf/rv32imac/ilp32/libgcc/../../../../../riscv-gcc/libgcc/libgcc2.c:1200
204031e0:	01085e93          	srli	t4,a6,0x10
204031e4:	03d376b3          	remu	a3,t1,t4
/scratch/jenkins/workspace/tpp-freedom-tools/tpp03--build-binary-packages--parameterized/obj/x86_64-w64-mingw32/build/riscv64-unknown-elf-gcc/build-gcc-stage2/riscv64-unknown-elf/rv32imac/ilp32/libgcc/../../../../../riscv-gcc/libgcc/libgcc2.c:1197
204031e8:	00b797b3          	sll	a5,a5,a1
204031ec:	00e8d733          	srl	a4,a7,a4
/scratch/jenkins/workspace/tpp-freedom-tools/tpp03--build-binary-packages--parameterized/obj/x86_64-w64-mingw32/build/riscv64-unknown-elf-gcc/build-gcc-stage2/riscv64-unknown-elf/rv32imac/ilp32/libgcc/../../../../../riscv-gcc/libgcc/libgcc2.c:1195
204031f0:	00b61e33          	sll	t3,a2,a1
/scratch/jenkins/workspace/tpp-freedom-tools/tpp03--build-binary-packages--parameterized/obj/x86_64-w64-mingw32/build/riscv64-unknown-elf-gcc/build-gcc-stage2/riscv64-unknown-elf/rv32imac/ilp32/libgcc/../../../../../riscv-gcc/libgcc/libgcc2.c:1197
204031f4:	00f76633          	or	a2,a4,a5
/scratch/jenkins/workspace/tpp-freedom-tools/tpp03--build-binary-packages--parameterized/obj/x86_64-w64-mingw32/build/riscv64-unknown-elf-gcc/build-gcc-stage2/riscv64-unknown-elf/rv32imac/ilp32/libgcc/../../../../../riscv-gcc/libgcc/libgcc2.c:1200
204031f8:	01081793          	slli	a5,a6,0x10
204031fc:	83c1                	srli	a5,a5,0x10
204031fe:	01065713          	srli	a4,a2,0x10
20403202:	03d35333          	divu	t1,t1,t4
20403206:	06c2                	slli	a3,a3,0x10
20403208:	8f55                	or	a4,a4,a3
2040320a:	02678f33          	mul	t5,a5,t1
2040320e:	851a                	mv	a0,t1
20403210:	01e77c63          	bgeu	a4,t5,20403228 <__udivdi3+0x2c0>
20403214:	9742                	add	a4,a4,a6
20403216:	fff30513          	addi	a0,t1,-1
2040321a:	01076763          	bltu	a4,a6,20403228 <__udivdi3+0x2c0>
2040321e:	01e77563          	bgeu	a4,t5,20403228 <__udivdi3+0x2c0>
20403222:	ffe30513          	addi	a0,t1,-2
20403226:	9742                	add	a4,a4,a6
20403228:	41e70733          	sub	a4,a4,t5
2040322c:	03d776b3          	remu	a3,a4,t4
20403230:	03d75733          	divu	a4,a4,t4
20403234:	06c2                	slli	a3,a3,0x10
20403236:	02e78333          	mul	t1,a5,a4
2040323a:	01061793          	slli	a5,a2,0x10
2040323e:	83c1                	srli	a5,a5,0x10
20403240:	8fd5                	or	a5,a5,a3
20403242:	863a                	mv	a2,a4
20403244:	0067fc63          	bgeu	a5,t1,2040325c <__udivdi3+0x2f4>
20403248:	97c2                	add	a5,a5,a6
2040324a:	fff70613          	addi	a2,a4,-1 # ffffff <__heap_size+0xfff7ff>
2040324e:	0107e763          	bltu	a5,a6,2040325c <__udivdi3+0x2f4>
20403252:	0067f563          	bgeu	a5,t1,2040325c <__udivdi3+0x2f4>
20403256:	ffe70613          	addi	a2,a4,-2
2040325a:	97c2                	add	a5,a5,a6
2040325c:	0542                	slli	a0,a0,0x10
/scratch/jenkins/workspace/tpp-freedom-tools/tpp03--build-binary-packages--parameterized/obj/x86_64-w64-mingw32/build/riscv64-unknown-elf-gcc/build-gcc-stage2/riscv64-unknown-elf/rv32imac/ilp32/libgcc/../../../../../riscv-gcc/libgcc/libgcc2.c:1201
2040325e:	6ec1                	lui	t4,0x10
/scratch/jenkins/workspace/tpp-freedom-tools/tpp03--build-binary-packages--parameterized/obj/x86_64-w64-mingw32/build/riscv64-unknown-elf-gcc/build-gcc-stage2/riscv64-unknown-elf/rv32imac/ilp32/libgcc/../../../../../riscv-gcc/libgcc/libgcc2.c:1200
20403260:	8d51                	or	a0,a0,a2
/scratch/jenkins/workspace/tpp-freedom-tools/tpp03--build-binary-packages--parameterized/obj/x86_64-w64-mingw32/build/riscv64-unknown-elf-gcc/build-gcc-stage2/riscv64-unknown-elf/rv32imac/ilp32/libgcc/../../../../../riscv-gcc/libgcc/libgcc2.c:1201
20403262:	fffe8693          	addi	a3,t4,-1 # ffff <__heap_size+0xf7ff>
20403266:	010e5613          	srli	a2,t3,0x10
2040326a:	01055813          	srli	a6,a0,0x10
/scratch/jenkins/workspace/tpp-freedom-tools/tpp03--build-binary-packages--parameterized/obj/x86_64-w64-mingw32/build/riscv64-unknown-elf-gcc/build-gcc-stage2/riscv64-unknown-elf/rv32imac/ilp32/libgcc/../../../../../riscv-gcc/libgcc/libgcc2.c:1200
2040326e:	406787b3          	sub	a5,a5,t1
/scratch/jenkins/workspace/tpp-freedom-tools/tpp03--build-binary-packages--parameterized/obj/x86_64-w64-mingw32/build/riscv64-unknown-elf-gcc/build-gcc-stage2/riscv64-unknown-elf/rv32imac/ilp32/libgcc/../../../../../riscv-gcc/libgcc/libgcc2.c:1201
20403272:	00d57333          	and	t1,a0,a3
20403276:	00de76b3          	and	a3,t3,a3
2040327a:	02d30e33          	mul	t3,t1,a3
2040327e:	02d806b3          	mul	a3,a6,a3
20403282:	010e5713          	srli	a4,t3,0x10
20403286:	02c30333          	mul	t1,t1,a2
2040328a:	9336                	add	t1,t1,a3
2040328c:	971a                	add	a4,a4,t1
2040328e:	02c80833          	mul	a6,a6,a2
20403292:	00d77363          	bgeu	a4,a3,20403298 <__udivdi3+0x330>
20403296:	9876                	add	a6,a6,t4
20403298:	01075693          	srli	a3,a4,0x10
2040329c:	9836                	add	a6,a6,a3
/scratch/jenkins/workspace/tpp-freedom-tools/tpp03--build-binary-packages--parameterized/obj/x86_64-w64-mingw32/build/riscv64-unknown-elf-gcc/build-gcc-stage2/riscv64-unknown-elf/rv32imac/ilp32/libgcc/../../../../../riscv-gcc/libgcc/libgcc2.c:1203
2040329e:	0307e063          	bltu	a5,a6,204032be <__udivdi3+0x356>
204032a2:	d90794e3          	bne	a5,a6,2040302a <__udivdi3+0xc2>
/scratch/jenkins/workspace/tpp-freedom-tools/tpp03--build-binary-packages--parameterized/obj/x86_64-w64-mingw32/build/riscv64-unknown-elf-gcc/build-gcc-stage2/riscv64-unknown-elf/rv32imac/ilp32/libgcc/../../../../../riscv-gcc/libgcc/libgcc2.c:1201
204032a6:	67c1                	lui	a5,0x10
204032a8:	17fd                	addi	a5,a5,-1
204032aa:	8f7d                	and	a4,a4,a5
204032ac:	0742                	slli	a4,a4,0x10
204032ae:	00fe7e33          	and	t3,t3,a5
/scratch/jenkins/workspace/tpp-freedom-tools/tpp03--build-binary-packages--parameterized/obj/x86_64-w64-mingw32/build/riscv64-unknown-elf-gcc/build-gcc-stage2/riscv64-unknown-elf/rv32imac/ilp32/libgcc/../../../../../riscv-gcc/libgcc/libgcc2.c:1198
204032b2:	00b898b3          	sll	a7,a7,a1
/scratch/jenkins/workspace/tpp-freedom-tools/tpp03--build-binary-packages--parameterized/obj/x86_64-w64-mingw32/build/riscv64-unknown-elf-gcc/build-gcc-stage2/riscv64-unknown-elf/rv32imac/ilp32/libgcc/../../../../../riscv-gcc/libgcc/libgcc2.c:1201
204032b6:	9772                	add	a4,a4,t3
/scratch/jenkins/workspace/tpp-freedom-tools/tpp03--build-binary-packages--parameterized/obj/x86_64-w64-mingw32/build/riscv64-unknown-elf-gcc/build-gcc-stage2/riscv64-unknown-elf/rv32imac/ilp32/libgcc/../../../../../riscv-gcc/libgcc/libgcc2.c:1209
204032b8:	4581                	li	a1,0
/scratch/jenkins/workspace/tpp-freedom-tools/tpp03--build-binary-packages--parameterized/obj/x86_64-w64-mingw32/build/riscv64-unknown-elf-gcc/build-gcc-stage2/riscv64-unknown-elf/rv32imac/ilp32/libgcc/../../../../../riscv-gcc/libgcc/libgcc2.c:1203
204032ba:	e2e8f4e3          	bgeu	a7,a4,204030e2 <__udivdi3+0x17a>
/scratch/jenkins/workspace/tpp-freedom-tools/tpp03--build-binary-packages--parameterized/obj/x86_64-w64-mingw32/build/riscv64-unknown-elf-gcc/build-gcc-stage2/riscv64-unknown-elf/rv32imac/ilp32/libgcc/../../../../../riscv-gcc/libgcc/libgcc2.c:1205
204032be:	157d                	addi	a0,a0,-1
__udivdi3():
/scratch/jenkins/workspace/tpp-freedom-tools/tpp03--build-binary-packages--parameterized/obj/x86_64-w64-mingw32/build/riscv64-unknown-elf-gcc/build-gcc-stage2/riscv64-unknown-elf/rv32imac/ilp32/libgcc/../../../../../riscv-gcc/libgcc/libgcc2.c:1206
204032c0:	b3ad                	j	2040302a <__udivdi3+0xc2>
__udivmoddi4():
/scratch/jenkins/workspace/tpp-freedom-tools/tpp03--build-binary-packages--parameterized/obj/x86_64-w64-mingw32/build/riscv64-unknown-elf-gcc/build-gcc-stage2/riscv64-unknown-elf/rv32imac/ilp32/libgcc/../../../../../riscv-gcc/libgcc/libgcc2.c:1145
204032c2:	4581                	li	a1,0
/scratch/jenkins/workspace/tpp-freedom-tools/tpp03--build-binary-packages--parameterized/obj/x86_64-w64-mingw32/build/riscv64-unknown-elf-gcc/build-gcc-stage2/riscv64-unknown-elf/rv32imac/ilp32/libgcc/../../../../../riscv-gcc/libgcc/libgcc2.c:1144
204032c4:	4501                	li	a0,0
204032c6:	bd31                	j	204030e2 <__udivdi3+0x17a>

204032c8 <__umoddi3>:
__umoddi3():
/scratch/jenkins/workspace/tpp-freedom-tools/tpp03--build-binary-packages--parameterized/obj/x86_64-w64-mingw32/build/riscv64-unknown-elf-gcc/build-gcc-stage2/riscv64-unknown-elf/rv32imac/ilp32/libgcc/../../../../../riscv-gcc/libgcc/libgcc2.c:1307
204032c8:	832a                	mv	t1,a0
__udivmoddi4():
/scratch/jenkins/workspace/tpp-freedom-tools/tpp03--build-binary-packages--parameterized/obj/x86_64-w64-mingw32/build/riscv64-unknown-elf-gcc/build-gcc-stage2/riscv64-unknown-elf/rv32imac/ilp32/libgcc/../../../../../riscv-gcc/libgcc/libgcc2.c:1024
204032ca:	8832                	mv	a6,a2
/scratch/jenkins/workspace/tpp-freedom-tools/tpp03--build-binary-packages--parameterized/obj/x86_64-w64-mingw32/build/riscv64-unknown-elf-gcc/build-gcc-stage2/riscv64-unknown-elf/rv32imac/ilp32/libgcc/../../../../../riscv-gcc/libgcc/libgcc2.c:1025
204032cc:	87b6                	mv	a5,a3
/scratch/jenkins/workspace/tpp-freedom-tools/tpp03--build-binary-packages--parameterized/obj/x86_64-w64-mingw32/build/riscv64-unknown-elf-gcc/build-gcc-stage2/riscv64-unknown-elf/rv32imac/ilp32/libgcc/../../../../../riscv-gcc/libgcc/libgcc2.c:1027
204032ce:	872e                	mv	a4,a1
/scratch/jenkins/workspace/tpp-freedom-tools/tpp03--build-binary-packages--parameterized/obj/x86_64-w64-mingw32/build/riscv64-unknown-elf-gcc/build-gcc-stage2/riscv64-unknown-elf/rv32imac/ilp32/libgcc/../../../../../riscv-gcc/libgcc/libgcc2.c:1064
204032d0:	1c069563          	bnez	a3,2040349a <__umoddi3+0x1d2>
/scratch/jenkins/workspace/tpp-freedom-tools/tpp03--build-binary-packages--parameterized/obj/x86_64-w64-mingw32/build/riscv64-unknown-elf-gcc/build-gcc-stage2/riscv64-unknown-elf/rv32imac/ilp32/libgcc/../../../../../riscv-gcc/libgcc/libgcc2.c:1066
204032d4:	ffffd697          	auipc	a3,0xffffd
204032d8:	1e068693          	addi	a3,a3,480 # 204004b4 <__clz_tab>
204032dc:	0ac5f663          	bgeu	a1,a2,20403388 <__umoddi3+0xc0>
/scratch/jenkins/workspace/tpp-freedom-tools/tpp03--build-binary-packages--parameterized/obj/x86_64-w64-mingw32/build/riscv64-unknown-elf-gcc/build-gcc-stage2/riscv64-unknown-elf/rv32imac/ilp32/libgcc/../../../../../riscv-gcc/libgcc/libgcc2.c:1070
204032e0:	68c1                	lui	a7,0x10
204032e2:	09167c63          	bgeu	a2,a7,2040337a <__umoddi3+0xb2>
204032e6:	0ff00893          	li	a7,255
204032ea:	00c8f363          	bgeu	a7,a2,204032f0 <__umoddi3+0x28>
204032ee:	47a1                	li	a5,8
204032f0:	00f658b3          	srl	a7,a2,a5
204032f4:	96c6                	add	a3,a3,a7
204032f6:	0006c683          	lbu	a3,0(a3)
204032fa:	97b6                	add	a5,a5,a3
204032fc:	02000693          	li	a3,32
20403300:	40f688b3          	sub	a7,a3,a5
/scratch/jenkins/workspace/tpp-freedom-tools/tpp03--build-binary-packages--parameterized/obj/x86_64-w64-mingw32/build/riscv64-unknown-elf-gcc/build-gcc-stage2/riscv64-unknown-elf/rv32imac/ilp32/libgcc/../../../../../riscv-gcc/libgcc/libgcc2.c:1072
20403304:	00f68c63          	beq	a3,a5,2040331c <__umoddi3+0x54>
/scratch/jenkins/workspace/tpp-freedom-tools/tpp03--build-binary-packages--parameterized/obj/x86_64-w64-mingw32/build/riscv64-unknown-elf-gcc/build-gcc-stage2/riscv64-unknown-elf/rv32imac/ilp32/libgcc/../../../../../riscv-gcc/libgcc/libgcc2.c:1078
20403308:	011595b3          	sll	a1,a1,a7
2040330c:	00f357b3          	srl	a5,t1,a5
/scratch/jenkins/workspace/tpp-freedom-tools/tpp03--build-binary-packages--parameterized/obj/x86_64-w64-mingw32/build/riscv64-unknown-elf-gcc/build-gcc-stage2/riscv64-unknown-elf/rv32imac/ilp32/libgcc/../../../../../riscv-gcc/libgcc/libgcc2.c:1077
20403310:	01161833          	sll	a6,a2,a7
/scratch/jenkins/workspace/tpp-freedom-tools/tpp03--build-binary-packages--parameterized/obj/x86_64-w64-mingw32/build/riscv64-unknown-elf-gcc/build-gcc-stage2/riscv64-unknown-elf/rv32imac/ilp32/libgcc/../../../../../riscv-gcc/libgcc/libgcc2.c:1078
20403314:	00b7e733          	or	a4,a5,a1
/scratch/jenkins/workspace/tpp-freedom-tools/tpp03--build-binary-packages--parameterized/obj/x86_64-w64-mingw32/build/riscv64-unknown-elf-gcc/build-gcc-stage2/riscv64-unknown-elf/rv32imac/ilp32/libgcc/../../../../../riscv-gcc/libgcc/libgcc2.c:1079
20403318:	01131533          	sll	a0,t1,a7
/scratch/jenkins/workspace/tpp-freedom-tools/tpp03--build-binary-packages--parameterized/obj/x86_64-w64-mingw32/build/riscv64-unknown-elf-gcc/build-gcc-stage2/riscv64-unknown-elf/rv32imac/ilp32/libgcc/../../../../../riscv-gcc/libgcc/libgcc2.c:1082
2040331c:	01085593          	srli	a1,a6,0x10
20403320:	02b777b3          	remu	a5,a4,a1
20403324:	01081613          	slli	a2,a6,0x10
20403328:	8241                	srli	a2,a2,0x10
2040332a:	01055693          	srli	a3,a0,0x10
2040332e:	02b75733          	divu	a4,a4,a1
20403332:	07c2                	slli	a5,a5,0x10
20403334:	8edd                	or	a3,a3,a5
20403336:	02e60733          	mul	a4,a2,a4
2040333a:	00e6f863          	bgeu	a3,a4,2040334a <__umoddi3+0x82>
2040333e:	96c2                	add	a3,a3,a6
20403340:	0106e563          	bltu	a3,a6,2040334a <__umoddi3+0x82>
20403344:	00e6f363          	bgeu	a3,a4,2040334a <__umoddi3+0x82>
20403348:	96c2                	add	a3,a3,a6
2040334a:	8e99                	sub	a3,a3,a4
2040334c:	02b6f7b3          	remu	a5,a3,a1
20403350:	0542                	slli	a0,a0,0x10
20403352:	8141                	srli	a0,a0,0x10
20403354:	02b6d6b3          	divu	a3,a3,a1
20403358:	07c2                	slli	a5,a5,0x10
2040335a:	8d5d                	or	a0,a0,a5
2040335c:	02d606b3          	mul	a3,a2,a3
20403360:	00d57863          	bgeu	a0,a3,20403370 <__umoddi3+0xa8>
20403364:	9542                	add	a0,a0,a6
20403366:	01056563          	bltu	a0,a6,20403370 <__umoddi3+0xa8>
2040336a:	00d57363          	bgeu	a0,a3,20403370 <__umoddi3+0xa8>
2040336e:	9542                	add	a0,a0,a6
20403370:	8d15                	sub	a0,a0,a3
/scratch/jenkins/workspace/tpp-freedom-tools/tpp03--build-binary-packages--parameterized/obj/x86_64-w64-mingw32/build/riscv64-unknown-elf-gcc/build-gcc-stage2/riscv64-unknown-elf/rv32imac/ilp32/libgcc/../../../../../riscv-gcc/libgcc/libgcc2.c:1131
20403372:	01155533          	srl	a0,a0,a7
/scratch/jenkins/workspace/tpp-freedom-tools/tpp03--build-binary-packages--parameterized/obj/x86_64-w64-mingw32/build/riscv64-unknown-elf-gcc/build-gcc-stage2/riscv64-unknown-elf/rv32imac/ilp32/libgcc/../../../../../riscv-gcc/libgcc/libgcc2.c:1133
20403376:	4581                	li	a1,0
__umoddi3():
/scratch/jenkins/workspace/tpp-freedom-tools/tpp03--build-binary-packages--parameterized/obj/x86_64-w64-mingw32/build/riscv64-unknown-elf-gcc/build-gcc-stage2/riscv64-unknown-elf/rv32imac/ilp32/libgcc/../../../../../riscv-gcc/libgcc/libgcc2.c:1313
20403378:	8082                	ret
__udivmoddi4():
/scratch/jenkins/workspace/tpp-freedom-tools/tpp03--build-binary-packages--parameterized/obj/x86_64-w64-mingw32/build/riscv64-unknown-elf-gcc/build-gcc-stage2/riscv64-unknown-elf/rv32imac/ilp32/libgcc/../../../../../riscv-gcc/libgcc/libgcc2.c:1070
2040337a:	010008b7          	lui	a7,0x1000
2040337e:	47c1                	li	a5,16
20403380:	f71668e3          	bltu	a2,a7,204032f0 <__umoddi3+0x28>
20403384:	47e1                	li	a5,24
20403386:	b7ad                	j	204032f0 <__umoddi3+0x28>
/scratch/jenkins/workspace/tpp-freedom-tools/tpp03--build-binary-packages--parameterized/obj/x86_64-w64-mingw32/build/riscv64-unknown-elf-gcc/build-gcc-stage2/riscv64-unknown-elf/rv32imac/ilp32/libgcc/../../../../../riscv-gcc/libgcc/libgcc2.c:1091
20403388:	e601                	bnez	a2,20403390 <__umoddi3+0xc8>
/scratch/jenkins/workspace/tpp-freedom-tools/tpp03--build-binary-packages--parameterized/obj/x86_64-w64-mingw32/build/riscv64-unknown-elf-gcc/build-gcc-stage2/riscv64-unknown-elf/rv32imac/ilp32/libgcc/../../../../../riscv-gcc/libgcc/libgcc2.c:1092
2040338a:	4705                	li	a4,1
2040338c:	02c75833          	divu	a6,a4,a2
/scratch/jenkins/workspace/tpp-freedom-tools/tpp03--build-binary-packages--parameterized/obj/x86_64-w64-mingw32/build/riscv64-unknown-elf-gcc/build-gcc-stage2/riscv64-unknown-elf/rv32imac/ilp32/libgcc/../../../../../riscv-gcc/libgcc/libgcc2.c:1094
20403390:	6741                	lui	a4,0x10
20403392:	08e87363          	bgeu	a6,a4,20403418 <__umoddi3+0x150>
20403396:	0ff00713          	li	a4,255
2040339a:	01077363          	bgeu	a4,a6,204033a0 <__umoddi3+0xd8>
2040339e:	47a1                	li	a5,8
204033a0:	00f85733          	srl	a4,a6,a5
204033a4:	96ba                	add	a3,a3,a4
204033a6:	0006c603          	lbu	a2,0(a3)
204033aa:	963e                	add	a2,a2,a5
204033ac:	02000793          	li	a5,32
204033b0:	40c788b3          	sub	a7,a5,a2
/scratch/jenkins/workspace/tpp-freedom-tools/tpp03--build-binary-packages--parameterized/obj/x86_64-w64-mingw32/build/riscv64-unknown-elf-gcc/build-gcc-stage2/riscv64-unknown-elf/rv32imac/ilp32/libgcc/../../../../../riscv-gcc/libgcc/libgcc2.c:1096
204033b4:	06c79963          	bne	a5,a2,20403426 <__umoddi3+0x15e>
/scratch/jenkins/workspace/tpp-freedom-tools/tpp03--build-binary-packages--parameterized/obj/x86_64-w64-mingw32/build/riscv64-unknown-elf-gcc/build-gcc-stage2/riscv64-unknown-elf/rv32imac/ilp32/libgcc/../../../../../riscv-gcc/libgcc/libgcc2.c:1105
204033b8:	410585b3          	sub	a1,a1,a6
/scratch/jenkins/workspace/tpp-freedom-tools/tpp03--build-binary-packages--parameterized/obj/x86_64-w64-mingw32/build/riscv64-unknown-elf-gcc/build-gcc-stage2/riscv64-unknown-elf/rv32imac/ilp32/libgcc/../../../../../riscv-gcc/libgcc/libgcc2.c:1124
204033bc:	01085693          	srli	a3,a6,0x10
204033c0:	01081793          	slli	a5,a6,0x10
204033c4:	83c1                	srli	a5,a5,0x10
204033c6:	01055613          	srli	a2,a0,0x10
204033ca:	02d5f733          	remu	a4,a1,a3
204033ce:	02d5d5b3          	divu	a1,a1,a3
204033d2:	0742                	slli	a4,a4,0x10
204033d4:	8f51                	or	a4,a4,a2
204033d6:	02b785b3          	mul	a1,a5,a1
204033da:	00b77863          	bgeu	a4,a1,204033ea <__umoddi3+0x122>
204033de:	9742                	add	a4,a4,a6
204033e0:	01076563          	bltu	a4,a6,204033ea <__umoddi3+0x122>
204033e4:	00b77363          	bgeu	a4,a1,204033ea <__umoddi3+0x122>
204033e8:	9742                	add	a4,a4,a6
204033ea:	40b705b3          	sub	a1,a4,a1
204033ee:	02d5f733          	remu	a4,a1,a3
204033f2:	0542                	slli	a0,a0,0x10
204033f4:	8141                	srli	a0,a0,0x10
204033f6:	02d5d5b3          	divu	a1,a1,a3
204033fa:	02b785b3          	mul	a1,a5,a1
204033fe:	01071793          	slli	a5,a4,0x10
20403402:	8d5d                	or	a0,a0,a5
20403404:	00b57863          	bgeu	a0,a1,20403414 <__umoddi3+0x14c>
20403408:	9542                	add	a0,a0,a6
2040340a:	01056563          	bltu	a0,a6,20403414 <__umoddi3+0x14c>
2040340e:	00b57363          	bgeu	a0,a1,20403414 <__umoddi3+0x14c>
20403412:	9542                	add	a0,a0,a6
20403414:	8d0d                	sub	a0,a0,a1
20403416:	bfb1                	j	20403372 <__umoddi3+0xaa>
/scratch/jenkins/workspace/tpp-freedom-tools/tpp03--build-binary-packages--parameterized/obj/x86_64-w64-mingw32/build/riscv64-unknown-elf-gcc/build-gcc-stage2/riscv64-unknown-elf/rv32imac/ilp32/libgcc/../../../../../riscv-gcc/libgcc/libgcc2.c:1094
20403418:	01000737          	lui	a4,0x1000
2040341c:	47c1                	li	a5,16
2040341e:	f8e861e3          	bltu	a6,a4,204033a0 <__umoddi3+0xd8>
20403422:	47e1                	li	a5,24
20403424:	bfb5                	j	204033a0 <__umoddi3+0xd8>
/scratch/jenkins/workspace/tpp-freedom-tools/tpp03--build-binary-packages--parameterized/obj/x86_64-w64-mingw32/build/riscv64-unknown-elf-gcc/build-gcc-stage2/riscv64-unknown-elf/rv32imac/ilp32/libgcc/../../../../../riscv-gcc/libgcc/libgcc2.c:1114
20403426:	01181833          	sll	a6,a6,a7
/scratch/jenkins/workspace/tpp-freedom-tools/tpp03--build-binary-packages--parameterized/obj/x86_64-w64-mingw32/build/riscv64-unknown-elf-gcc/build-gcc-stage2/riscv64-unknown-elf/rv32imac/ilp32/libgcc/../../../../../riscv-gcc/libgcc/libgcc2.c:1115
2040342a:	00c5d6b3          	srl	a3,a1,a2
/scratch/jenkins/workspace/tpp-freedom-tools/tpp03--build-binary-packages--parameterized/obj/x86_64-w64-mingw32/build/riscv64-unknown-elf-gcc/build-gcc-stage2/riscv64-unknown-elf/rv32imac/ilp32/libgcc/../../../../../riscv-gcc/libgcc/libgcc2.c:1119
2040342e:	01085793          	srli	a5,a6,0x10
20403432:	02f6f733          	remu	a4,a3,a5
/scratch/jenkins/workspace/tpp-freedom-tools/tpp03--build-binary-packages--parameterized/obj/x86_64-w64-mingw32/build/riscv64-unknown-elf-gcc/build-gcc-stage2/riscv64-unknown-elf/rv32imac/ilp32/libgcc/../../../../../riscv-gcc/libgcc/libgcc2.c:1116
20403436:	011595b3          	sll	a1,a1,a7
2040343a:	00c35633          	srl	a2,t1,a2
2040343e:	8e4d                	or	a2,a2,a1
/scratch/jenkins/workspace/tpp-freedom-tools/tpp03--build-binary-packages--parameterized/obj/x86_64-w64-mingw32/build/riscv64-unknown-elf-gcc/build-gcc-stage2/riscv64-unknown-elf/rv32imac/ilp32/libgcc/../../../../../riscv-gcc/libgcc/libgcc2.c:1119
20403440:	01081593          	slli	a1,a6,0x10
20403444:	81c1                	srli	a1,a1,0x10
/scratch/jenkins/workspace/tpp-freedom-tools/tpp03--build-binary-packages--parameterized/obj/x86_64-w64-mingw32/build/riscv64-unknown-elf-gcc/build-gcc-stage2/riscv64-unknown-elf/rv32imac/ilp32/libgcc/../../../../../riscv-gcc/libgcc/libgcc2.c:1117
20403446:	01131533          	sll	a0,t1,a7
/scratch/jenkins/workspace/tpp-freedom-tools/tpp03--build-binary-packages--parameterized/obj/x86_64-w64-mingw32/build/riscv64-unknown-elf-gcc/build-gcc-stage2/riscv64-unknown-elf/rv32imac/ilp32/libgcc/../../../../../riscv-gcc/libgcc/libgcc2.c:1119
2040344a:	01065313          	srli	t1,a2,0x10
2040344e:	02f6d6b3          	divu	a3,a3,a5
20403452:	0742                	slli	a4,a4,0x10
20403454:	00676733          	or	a4,a4,t1
20403458:	02d586b3          	mul	a3,a1,a3
2040345c:	00d77863          	bgeu	a4,a3,2040346c <__umoddi3+0x1a4>
20403460:	9742                	add	a4,a4,a6
20403462:	01076563          	bltu	a4,a6,2040346c <__umoddi3+0x1a4>
20403466:	00d77363          	bgeu	a4,a3,2040346c <__umoddi3+0x1a4>
2040346a:	9742                	add	a4,a4,a6
2040346c:	40d706b3          	sub	a3,a4,a3
20403470:	02f6f733          	remu	a4,a3,a5
20403474:	0642                	slli	a2,a2,0x10
20403476:	8241                	srli	a2,a2,0x10
20403478:	02f6d6b3          	divu	a3,a3,a5
2040347c:	0742                	slli	a4,a4,0x10
2040347e:	02d586b3          	mul	a3,a1,a3
20403482:	00c765b3          	or	a1,a4,a2
20403486:	00d5f863          	bgeu	a1,a3,20403496 <__umoddi3+0x1ce>
2040348a:	95c2                	add	a1,a1,a6
2040348c:	0105e563          	bltu	a1,a6,20403496 <__umoddi3+0x1ce>
20403490:	00d5f363          	bgeu	a1,a3,20403496 <__umoddi3+0x1ce>
20403494:	95c2                	add	a1,a1,a6
20403496:	8d95                	sub	a1,a1,a3
20403498:	b715                	j	204033bc <__umoddi3+0xf4>
/scratch/jenkins/workspace/tpp-freedom-tools/tpp03--build-binary-packages--parameterized/obj/x86_64-w64-mingw32/build/riscv64-unknown-elf-gcc/build-gcc-stage2/riscv64-unknown-elf/rv32imac/ilp32/libgcc/../../../../../riscv-gcc/libgcc/libgcc2.c:1140
2040349a:	ecd5efe3          	bltu	a1,a3,20403378 <__umoddi3+0xb0>
/scratch/jenkins/workspace/tpp-freedom-tools/tpp03--build-binary-packages--parameterized/obj/x86_64-w64-mingw32/build/riscv64-unknown-elf-gcc/build-gcc-stage2/riscv64-unknown-elf/rv32imac/ilp32/libgcc/../../../../../riscv-gcc/libgcc/libgcc2.c:1159
2040349e:	67c1                	lui	a5,0x10
204034a0:	04f6f463          	bgeu	a3,a5,204034e8 <__umoddi3+0x220>
204034a4:	0ff00893          	li	a7,255
204034a8:	00d8b7b3          	sltu	a5,a7,a3
204034ac:	078e                	slli	a5,a5,0x3
204034ae:	00f6d8b3          	srl	a7,a3,a5
204034b2:	ffffd817          	auipc	a6,0xffffd
204034b6:	00280813          	addi	a6,a6,2 # 204004b4 <__clz_tab>
204034ba:	9846                	add	a6,a6,a7
204034bc:	00084883          	lbu	a7,0(a6)
204034c0:	98be                	add	a7,a7,a5
204034c2:	02000793          	li	a5,32
204034c6:	41178833          	sub	a6,a5,a7
/scratch/jenkins/workspace/tpp-freedom-tools/tpp03--build-binary-packages--parameterized/obj/x86_64-w64-mingw32/build/riscv64-unknown-elf-gcc/build-gcc-stage2/riscv64-unknown-elf/rv32imac/ilp32/libgcc/../../../../../riscv-gcc/libgcc/libgcc2.c:1160
204034ca:	03179663          	bne	a5,a7,204034f6 <__umoddi3+0x22e>
/scratch/jenkins/workspace/tpp-freedom-tools/tpp03--build-binary-packages--parameterized/obj/x86_64-w64-mingw32/build/riscv64-unknown-elf-gcc/build-gcc-stage2/riscv64-unknown-elf/rv32imac/ilp32/libgcc/../../../../../riscv-gcc/libgcc/libgcc2.c:1170
204034ce:	00b6e463          	bltu	a3,a1,204034d6 <__umoddi3+0x20e>
204034d2:	00c36963          	bltu	t1,a2,204034e4 <__umoddi3+0x21c>
/scratch/jenkins/workspace/tpp-freedom-tools/tpp03--build-binary-packages--parameterized/obj/x86_64-w64-mingw32/build/riscv64-unknown-elf-gcc/build-gcc-stage2/riscv64-unknown-elf/rv32imac/ilp32/libgcc/../../../../../riscv-gcc/libgcc/libgcc2.c:1173
204034d6:	40c30533          	sub	a0,t1,a2
204034da:	8d95                	sub	a1,a1,a3
204034dc:	00a33733          	sltu	a4,t1,a0
204034e0:	40e58733          	sub	a4,a1,a4
/scratch/jenkins/workspace/tpp-freedom-tools/tpp03--build-binary-packages--parameterized/obj/x86_64-w64-mingw32/build/riscv64-unknown-elf-gcc/build-gcc-stage2/riscv64-unknown-elf/rv32imac/ilp32/libgcc/../../../../../riscv-gcc/libgcc/libgcc2.c:1184
204034e4:	85ba                	mv	a1,a4
204034e6:	bd49                	j	20403378 <__umoddi3+0xb0>
/scratch/jenkins/workspace/tpp-freedom-tools/tpp03--build-binary-packages--parameterized/obj/x86_64-w64-mingw32/build/riscv64-unknown-elf-gcc/build-gcc-stage2/riscv64-unknown-elf/rv32imac/ilp32/libgcc/../../../../../riscv-gcc/libgcc/libgcc2.c:1159
204034e8:	01000837          	lui	a6,0x1000
204034ec:	47c1                	li	a5,16
204034ee:	fd06e0e3          	bltu	a3,a6,204034ae <__umoddi3+0x1e6>
204034f2:	47e1                	li	a5,24
204034f4:	bf6d                	j	204034ae <__umoddi3+0x1e6>
/scratch/jenkins/workspace/tpp-freedom-tools/tpp03--build-binary-packages--parameterized/obj/x86_64-w64-mingw32/build/riscv64-unknown-elf-gcc/build-gcc-stage2/riscv64-unknown-elf/rv32imac/ilp32/libgcc/../../../../../riscv-gcc/libgcc/libgcc2.c:1194
204034f6:	011657b3          	srl	a5,a2,a7
204034fa:	010696b3          	sll	a3,a3,a6
204034fe:	00d7ee33          	or	t3,a5,a3
/scratch/jenkins/workspace/tpp-freedom-tools/tpp03--build-binary-packages--parameterized/obj/x86_64-w64-mingw32/build/riscv64-unknown-elf-gcc/build-gcc-stage2/riscv64-unknown-elf/rv32imac/ilp32/libgcc/../../../../../riscv-gcc/libgcc/libgcc2.c:1196
20403502:	0115d733          	srl	a4,a1,a7
/scratch/jenkins/workspace/tpp-freedom-tools/tpp03--build-binary-packages--parameterized/obj/x86_64-w64-mingw32/build/riscv64-unknown-elf-gcc/build-gcc-stage2/riscv64-unknown-elf/rv32imac/ilp32/libgcc/../../../../../riscv-gcc/libgcc/libgcc2.c:1200
20403506:	010e5f13          	srli	t5,t3,0x10
/scratch/jenkins/workspace/tpp-freedom-tools/tpp03--build-binary-packages--parameterized/obj/x86_64-w64-mingw32/build/riscv64-unknown-elf-gcc/build-gcc-stage2/riscv64-unknown-elf/rv32imac/ilp32/libgcc/../../../../../riscv-gcc/libgcc/libgcc2.c:1195
2040350a:	01061eb3          	sll	t4,a2,a6
/scratch/jenkins/workspace/tpp-freedom-tools/tpp03--build-binary-packages--parameterized/obj/x86_64-w64-mingw32/build/riscv64-unknown-elf-gcc/build-gcc-stage2/riscv64-unknown-elf/rv32imac/ilp32/libgcc/../../../../../riscv-gcc/libgcc/libgcc2.c:1200
2040350e:	03e77633          	remu	a2,a4,t5
/scratch/jenkins/workspace/tpp-freedom-tools/tpp03--build-binary-packages--parameterized/obj/x86_64-w64-mingw32/build/riscv64-unknown-elf-gcc/build-gcc-stage2/riscv64-unknown-elf/rv32imac/ilp32/libgcc/../../../../../riscv-gcc/libgcc/libgcc2.c:1197
20403512:	010595b3          	sll	a1,a1,a6
20403516:	011357b3          	srl	a5,t1,a7
2040351a:	8fcd                	or	a5,a5,a1
/scratch/jenkins/workspace/tpp-freedom-tools/tpp03--build-binary-packages--parameterized/obj/x86_64-w64-mingw32/build/riscv64-unknown-elf-gcc/build-gcc-stage2/riscv64-unknown-elf/rv32imac/ilp32/libgcc/../../../../../riscv-gcc/libgcc/libgcc2.c:1200
2040351c:	010e1593          	slli	a1,t3,0x10
20403520:	81c1                	srli	a1,a1,0x10
/scratch/jenkins/workspace/tpp-freedom-tools/tpp03--build-binary-packages--parameterized/obj/x86_64-w64-mingw32/build/riscv64-unknown-elf-gcc/build-gcc-stage2/riscv64-unknown-elf/rv32imac/ilp32/libgcc/../../../../../riscv-gcc/libgcc/libgcc2.c:1198
20403522:	01031533          	sll	a0,t1,a6
/scratch/jenkins/workspace/tpp-freedom-tools/tpp03--build-binary-packages--parameterized/obj/x86_64-w64-mingw32/build/riscv64-unknown-elf-gcc/build-gcc-stage2/riscv64-unknown-elf/rv32imac/ilp32/libgcc/../../../../../riscv-gcc/libgcc/libgcc2.c:1200
20403526:	0107d693          	srli	a3,a5,0x10
2040352a:	03e75733          	divu	a4,a4,t5
2040352e:	0642                	slli	a2,a2,0x10
20403530:	8ed1                	or	a3,a3,a2
20403532:	02e58333          	mul	t1,a1,a4
20403536:	863a                	mv	a2,a4
20403538:	0066fc63          	bgeu	a3,t1,20403550 <__umoddi3+0x288>
2040353c:	96f2                	add	a3,a3,t3
2040353e:	fff70613          	addi	a2,a4,-1 # ffffff <__heap_size+0xfff7ff>
20403542:	01c6e763          	bltu	a3,t3,20403550 <__umoddi3+0x288>
20403546:	0066f563          	bgeu	a3,t1,20403550 <__umoddi3+0x288>
2040354a:	ffe70613          	addi	a2,a4,-2
2040354e:	96f2                	add	a3,a3,t3
20403550:	406686b3          	sub	a3,a3,t1
20403554:	03e6f333          	remu	t1,a3,t5
20403558:	03e6d6b3          	divu	a3,a3,t5
2040355c:	0342                	slli	t1,t1,0x10
2040355e:	02d58733          	mul	a4,a1,a3
20403562:	01079593          	slli	a1,a5,0x10
20403566:	81c1                	srli	a1,a1,0x10
20403568:	00b365b3          	or	a1,t1,a1
2040356c:	87b6                	mv	a5,a3
2040356e:	00e5fc63          	bgeu	a1,a4,20403586 <__umoddi3+0x2be>
20403572:	95f2                	add	a1,a1,t3
20403574:	fff68793          	addi	a5,a3,-1
20403578:	01c5e763          	bltu	a1,t3,20403586 <__umoddi3+0x2be>
2040357c:	00e5f563          	bgeu	a1,a4,20403586 <__umoddi3+0x2be>
20403580:	ffe68793          	addi	a5,a3,-2
20403584:	95f2                	add	a1,a1,t3
20403586:	0642                	slli	a2,a2,0x10
/scratch/jenkins/workspace/tpp-freedom-tools/tpp03--build-binary-packages--parameterized/obj/x86_64-w64-mingw32/build/riscv64-unknown-elf-gcc/build-gcc-stage2/riscv64-unknown-elf/rv32imac/ilp32/libgcc/../../../../../riscv-gcc/libgcc/libgcc2.c:1201
20403588:	6f41                	lui	t5,0x10
/scratch/jenkins/workspace/tpp-freedom-tools/tpp03--build-binary-packages--parameterized/obj/x86_64-w64-mingw32/build/riscv64-unknown-elf-gcc/build-gcc-stage2/riscv64-unknown-elf/rv32imac/ilp32/libgcc/../../../../../riscv-gcc/libgcc/libgcc2.c:1200
2040358a:	8e5d                	or	a2,a2,a5
/scratch/jenkins/workspace/tpp-freedom-tools/tpp03--build-binary-packages--parameterized/obj/x86_64-w64-mingw32/build/riscv64-unknown-elf-gcc/build-gcc-stage2/riscv64-unknown-elf/rv32imac/ilp32/libgcc/../../../../../riscv-gcc/libgcc/libgcc2.c:1201
2040358c:	ffff0693          	addi	a3,t5,-1 # ffff <__heap_size+0xf7ff>
20403590:	00d67333          	and	t1,a2,a3
/scratch/jenkins/workspace/tpp-freedom-tools/tpp03--build-binary-packages--parameterized/obj/x86_64-w64-mingw32/build/riscv64-unknown-elf-gcc/build-gcc-stage2/riscv64-unknown-elf/rv32imac/ilp32/libgcc/../../../../../riscv-gcc/libgcc/libgcc2.c:1200
20403594:	8d99                	sub	a1,a1,a4
/scratch/jenkins/workspace/tpp-freedom-tools/tpp03--build-binary-packages--parameterized/obj/x86_64-w64-mingw32/build/riscv64-unknown-elf-gcc/build-gcc-stage2/riscv64-unknown-elf/rv32imac/ilp32/libgcc/../../../../../riscv-gcc/libgcc/libgcc2.c:1201
20403596:	8241                	srli	a2,a2,0x10
20403598:	010ed713          	srli	a4,t4,0x10
2040359c:	00def6b3          	and	a3,t4,a3
204035a0:	02d307b3          	mul	a5,t1,a3
204035a4:	02d606b3          	mul	a3,a2,a3
204035a8:	02e30333          	mul	t1,t1,a4
204035ac:	02e60633          	mul	a2,a2,a4
204035b0:	9336                	add	t1,t1,a3
204035b2:	0107d713          	srli	a4,a5,0x10
204035b6:	971a                	add	a4,a4,t1
204035b8:	00d77363          	bgeu	a4,a3,204035be <__umoddi3+0x2f6>
204035bc:	967a                	add	a2,a2,t5
204035be:	01075693          	srli	a3,a4,0x10
204035c2:	96b2                	add	a3,a3,a2
204035c4:	6641                	lui	a2,0x10
204035c6:	167d                	addi	a2,a2,-1
204035c8:	8f71                	and	a4,a4,a2
204035ca:	0742                	slli	a4,a4,0x10
204035cc:	8ff1                	and	a5,a5,a2
204035ce:	97ba                	add	a5,a5,a4
/scratch/jenkins/workspace/tpp-freedom-tools/tpp03--build-binary-packages--parameterized/obj/x86_64-w64-mingw32/build/riscv64-unknown-elf-gcc/build-gcc-stage2/riscv64-unknown-elf/rv32imac/ilp32/libgcc/../../../../../riscv-gcc/libgcc/libgcc2.c:1203
204035d0:	00d5e663          	bltu	a1,a3,204035dc <__umoddi3+0x314>
204035d4:	00d59b63          	bne	a1,a3,204035ea <__umoddi3+0x322>
204035d8:	00f57963          	bgeu	a0,a5,204035ea <__umoddi3+0x322>
/scratch/jenkins/workspace/tpp-freedom-tools/tpp03--build-binary-packages--parameterized/obj/x86_64-w64-mingw32/build/riscv64-unknown-elf-gcc/build-gcc-stage2/riscv64-unknown-elf/rv32imac/ilp32/libgcc/../../../../../riscv-gcc/libgcc/libgcc2.c:1206
204035dc:	41d78633          	sub	a2,a5,t4
204035e0:	00c7b7b3          	sltu	a5,a5,a2
204035e4:	97f2                	add	a5,a5,t3
204035e6:	8e9d                	sub	a3,a3,a5
204035e8:	87b2                	mv	a5,a2
/scratch/jenkins/workspace/tpp-freedom-tools/tpp03--build-binary-packages--parameterized/obj/x86_64-w64-mingw32/build/riscv64-unknown-elf-gcc/build-gcc-stage2/riscv64-unknown-elf/rv32imac/ilp32/libgcc/../../../../../riscv-gcc/libgcc/libgcc2.c:1214
204035ea:	40f507b3          	sub	a5,a0,a5
204035ee:	00f53533          	sltu	a0,a0,a5
204035f2:	8d95                	sub	a1,a1,a3
204035f4:	8d89                	sub	a1,a1,a0
/scratch/jenkins/workspace/tpp-freedom-tools/tpp03--build-binary-packages--parameterized/obj/x86_64-w64-mingw32/build/riscv64-unknown-elf-gcc/build-gcc-stage2/riscv64-unknown-elf/rv32imac/ilp32/libgcc/../../../../../riscv-gcc/libgcc/libgcc2.c:1215
204035f6:	011598b3          	sll	a7,a1,a7
204035fa:	0107d533          	srl	a0,a5,a6
/scratch/jenkins/workspace/tpp-freedom-tools/tpp03--build-binary-packages--parameterized/obj/x86_64-w64-mingw32/build/riscv64-unknown-elf-gcc/build-gcc-stage2/riscv64-unknown-elf/rv32imac/ilp32/libgcc/../../../../../riscv-gcc/libgcc/libgcc2.c:1217
204035fe:	00a8e533          	or	a0,a7,a0
20403602:	0105d5b3          	srl	a1,a1,a6
20403606:	bb8d                	j	20403378 <__umoddi3+0xb0>

20403608 <metal_cpu_get_timer>:
metal_cpu_get_timer():
C:/wsFreedomStudio/kernel/freedom-metal/metal/cpu.h:73
20403608:	1101                	addi	sp,sp,-32
2040360a:	ce06                	sw	ra,28(sp)
2040360c:	cc22                	sw	s0,24(sp)
2040360e:	1000                	addi	s0,sp,32
20403610:	fea42623          	sw	a0,-20(s0)
C:/wsFreedomStudio/kernel/freedom-metal/metal/cpu.h:74
20403614:	fec42783          	lw	a5,-20(s0)
20403618:	439c                	lw	a5,0(a5)
2040361a:	439c                	lw	a5,0(a5)
2040361c:	fec42503          	lw	a0,-20(s0)
20403620:	9782                	jalr	a5
20403622:	872a                	mv	a4,a0
20403624:	87ae                	mv	a5,a1
C:/wsFreedomStudio/kernel/freedom-metal/metal/cpu.h:75
20403626:	853a                	mv	a0,a4
20403628:	85be                	mv	a1,a5
2040362a:	40f2                	lw	ra,28(sp)
2040362c:	4462                	lw	s0,24(sp)
2040362e:	6105                	addi	sp,sp,32
20403630:	8082                	ret

20403632 <metal_cpu_get_timebase>:
metal_cpu_get_timebase():
C:/wsFreedomStudio/kernel/freedom-metal/metal/cpu.h:84
20403632:	1101                	addi	sp,sp,-32
20403634:	ce06                	sw	ra,28(sp)
20403636:	cc22                	sw	s0,24(sp)
20403638:	1000                	addi	s0,sp,32
2040363a:	fea42623          	sw	a0,-20(s0)
C:/wsFreedomStudio/kernel/freedom-metal/metal/cpu.h:85
2040363e:	fec42783          	lw	a5,-20(s0)
20403642:	439c                	lw	a5,0(a5)
20403644:	43dc                	lw	a5,4(a5)
20403646:	fec42503          	lw	a0,-20(s0)
2040364a:	9782                	jalr	a5
2040364c:	872a                	mv	a4,a0
2040364e:	87ae                	mv	a5,a1
C:/wsFreedomStudio/kernel/freedom-metal/metal/cpu.h:86
20403650:	853a                	mv	a0,a4
20403652:	85be                	mv	a1,a5
20403654:	40f2                	lw	ra,28(sp)
20403656:	4462                	lw	s0,24(sp)
20403658:	6105                	addi	sp,sp,32
2040365a:	8082                	ret

2040365c <metal_cpu_interrupt_controller>:
metal_cpu_interrupt_controller():
C:/wsFreedomStudio/kernel/freedom-metal/metal/cpu.h:224
2040365c:	1101                	addi	sp,sp,-32
2040365e:	ce06                	sw	ra,28(sp)
20403660:	cc22                	sw	s0,24(sp)
20403662:	1000                	addi	s0,sp,32
20403664:	fea42623          	sw	a0,-20(s0)
C:/wsFreedomStudio/kernel/freedom-metal/metal/cpu.h:225
20403668:	fec42783          	lw	a5,-20(s0)
2040366c:	439c                	lw	a5,0(a5)
2040366e:	57dc                	lw	a5,44(a5)
20403670:	fec42503          	lw	a0,-20(s0)
20403674:	9782                	jalr	a5
20403676:	87aa                	mv	a5,a0
C:/wsFreedomStudio/kernel/freedom-metal/metal/cpu.h:226
20403678:	853e                	mv	a0,a5
2040367a:	40f2                	lw	ra,28(sp)
2040367c:	4462                	lw	s0,24(sp)
2040367e:	6105                	addi	sp,sp,32
20403680:	8082                	ret

20403682 <metal_cpu_get>:
metal_cpu_get():
C:/wsFreedomStudio/kernel/freedom-metal/src/cpu.c:7
20403682:	1101                	addi	sp,sp,-32
20403684:	ce22                	sw	s0,28(sp)
20403686:	1000                	addi	s0,sp,32
20403688:	fea42623          	sw	a0,-20(s0)
C:/wsFreedomStudio/kernel/freedom-metal/src/cpu.c:8
2040368c:	fec42783          	lw	a5,-20(s0)
20403690:	eb99                	bnez	a5,204036a6 <metal_cpu_get+0x24>
C:/wsFreedomStudio/kernel/freedom-metal/src/cpu.c:9
20403692:	800007b7          	lui	a5,0x80000
20403696:	fec42703          	lw	a4,-20(s0)
2040369a:	070a                	slli	a4,a4,0x2
2040369c:	7a878793          	addi	a5,a5,1960 # 800007a8 <metal_segment_heap_target_end+0xffffecd8>
204036a0:	97ba                	add	a5,a5,a4
204036a2:	439c                	lw	a5,0(a5)
204036a4:	a011                	j	204036a8 <metal_cpu_get+0x26>
C:/wsFreedomStudio/kernel/freedom-metal/src/cpu.c:11
204036a6:	4781                	li	a5,0
C:/wsFreedomStudio/kernel/freedom-metal/src/cpu.c:12
204036a8:	853e                	mv	a0,a5
204036aa:	4472                	lw	s0,28(sp)
204036ac:	6105                	addi	sp,sp,32
204036ae:	8082                	ret

204036b0 <metal_cpu_get_current_hartid>:
metal_cpu_get_current_hartid():
C:/wsFreedomStudio/kernel/freedom-metal/src/cpu.c:14
204036b0:	1101                	addi	sp,sp,-32
204036b2:	ce22                	sw	s0,28(sp)
204036b4:	1000                	addi	s0,sp,32
C:/wsFreedomStudio/kernel/freedom-metal/src/cpu.c:17
204036b6:	f14027f3          	csrr	a5,mhartid
204036ba:	fef42623          	sw	a5,-20(s0)
C:/wsFreedomStudio/kernel/freedom-metal/src/cpu.c:18
204036be:	fec42783          	lw	a5,-20(s0)
C:/wsFreedomStudio/kernel/freedom-metal/src/cpu.c:20
204036c2:	853e                	mv	a0,a5
204036c4:	4472                	lw	s0,28(sp)
204036c6:	6105                	addi	sp,sp,32
204036c8:	8082                	ret

204036ca <metal_init>:
metal_init():
C:/wsFreedomStudio/kernel/freedom-metal/src/init.c:17
204036ca:	1101                	addi	sp,sp,-32
204036cc:	ce06                	sw	ra,28(sp)
204036ce:	cc22                	sw	s0,24(sp)
204036d0:	1000                	addi	s0,sp,32
C:/wsFreedomStudio/kernel/freedom-metal/src/init.c:20
204036d2:	800007b7          	lui	a5,0x80000
204036d6:	7d87a783          	lw	a5,2008(a5) # 800007d8 <metal_segment_heap_target_end+0xffffed08>
204036da:	efa9                	bnez	a5,20403734 <metal_init+0x6a>
C:/wsFreedomStudio/kernel/freedom-metal/src/init.c:23
204036dc:	800007b7          	lui	a5,0x80000
204036e0:	4705                	li	a4,1
204036e2:	7ce7ac23          	sw	a4,2008(a5) # 800007d8 <metal_segment_heap_target_end+0xffffed08>
C:/wsFreedomStudio/kernel/freedom-metal/src/init.c:25
204036e6:	204007b7          	lui	a5,0x20400
204036ea:	2ec78713          	addi	a4,a5,748 # 204002ec <metal_tty_init>
204036ee:	204007b7          	lui	a5,0x20400
204036f2:	2e078793          	addi	a5,a5,736 # 204002e0 <_metal_tty_init_ptr>
204036f6:	04e7f163          	bgeu	a5,a4,20403738 <metal_init+0x6e>
C:/wsFreedomStudio/kernel/freedom-metal/src/init.c:29
204036fa:	204007b7          	lui	a5,0x20400
204036fe:	2e078793          	addi	a5,a5,736 # 204002e0 <_metal_tty_init_ptr>
20403702:	fef42623          	sw	a5,-20(s0)
C:/wsFreedomStudio/kernel/freedom-metal/src/init.c:30
20403706:	a831                	j	20403722 <metal_init+0x58>
C:/wsFreedomStudio/kernel/freedom-metal/src/init.c:31
20403708:	fec42783          	lw	a5,-20(s0)
2040370c:	439c                	lw	a5,0(a5)
2040370e:	fef42423          	sw	a5,-24(s0)
C:/wsFreedomStudio/kernel/freedom-metal/src/init.c:33
20403712:	fe842783          	lw	a5,-24(s0)
20403716:	9782                	jalr	a5
C:/wsFreedomStudio/kernel/freedom-metal/src/init.c:35
20403718:	fec42783          	lw	a5,-20(s0)
2040371c:	0791                	addi	a5,a5,4
2040371e:	fef42623          	sw	a5,-20(s0)
C:/wsFreedomStudio/kernel/freedom-metal/src/init.c:30
20403722:	fec42703          	lw	a4,-20(s0)
20403726:	204007b7          	lui	a5,0x20400
2040372a:	2ec78793          	addi	a5,a5,748 # 204002ec <metal_tty_init>
2040372e:	fcf71de3          	bne	a4,a5,20403708 <metal_init+0x3e>
20403732:	a021                	j	2040373a <metal_init+0x70>
C:/wsFreedomStudio/kernel/freedom-metal/src/init.c:21
20403734:	0001                	nop
20403736:	a011                	j	2040373a <metal_init+0x70>
C:/wsFreedomStudio/kernel/freedom-metal/src/init.c:26
20403738:	0001                	nop
C:/wsFreedomStudio/kernel/freedom-metal/src/init.c:37
2040373a:	40f2                	lw	ra,28(sp)
2040373c:	4462                	lw	s0,24(sp)
2040373e:	6105                	addi	sp,sp,32
20403740:	8082                	ret

20403742 <metal_fini>:
metal_fini():
C:/wsFreedomStudio/kernel/freedom-metal/src/init.c:39
20403742:	1101                	addi	sp,sp,-32
20403744:	ce06                	sw	ra,28(sp)
20403746:	cc22                	sw	s0,24(sp)
20403748:	1000                	addi	s0,sp,32
C:/wsFreedomStudio/kernel/freedom-metal/src/init.c:42
2040374a:	800007b7          	lui	a5,0x80000
2040374e:	7dc7a783          	lw	a5,2012(a5) # 800007dc <metal_segment_heap_target_end+0xffffed0c>
20403752:	efa9                	bnez	a5,204037ac <metal_fini+0x6a>
C:/wsFreedomStudio/kernel/freedom-metal/src/init.c:45
20403754:	800007b7          	lui	a5,0x80000
20403758:	4705                	li	a4,1
2040375a:	7ce7ae23          	sw	a4,2012(a5) # 800007dc <metal_segment_heap_target_end+0xffffed0c>
C:/wsFreedomStudio/kernel/freedom-metal/src/init.c:47
2040375e:	204007b7          	lui	a5,0x20400
20403762:	2f078713          	addi	a4,a5,752 # 204002f0 <__fini_array_end>
20403766:	204007b7          	lui	a5,0x20400
2040376a:	2f078793          	addi	a5,a5,752 # 204002f0 <__fini_array_end>
2040376e:	04e7f163          	bgeu	a5,a4,204037b0 <metal_fini+0x6e>
C:/wsFreedomStudio/kernel/freedom-metal/src/init.c:51
20403772:	204007b7          	lui	a5,0x20400
20403776:	2f078793          	addi	a5,a5,752 # 204002f0 <__fini_array_end>
2040377a:	fef42623          	sw	a5,-20(s0)
C:/wsFreedomStudio/kernel/freedom-metal/src/init.c:52
2040377e:	a831                	j	2040379a <metal_fini+0x58>
C:/wsFreedomStudio/kernel/freedom-metal/src/init.c:53
20403780:	fec42783          	lw	a5,-20(s0)
20403784:	439c                	lw	a5,0(a5)
20403786:	fef42423          	sw	a5,-24(s0)
C:/wsFreedomStudio/kernel/freedom-metal/src/init.c:55
2040378a:	fe842783          	lw	a5,-24(s0)
2040378e:	9782                	jalr	a5
C:/wsFreedomStudio/kernel/freedom-metal/src/init.c:57
20403790:	fec42783          	lw	a5,-20(s0)
20403794:	0791                	addi	a5,a5,4
20403796:	fef42623          	sw	a5,-20(s0)
C:/wsFreedomStudio/kernel/freedom-metal/src/init.c:52
2040379a:	fec42703          	lw	a4,-20(s0)
2040379e:	204007b7          	lui	a5,0x20400
204037a2:	2f078793          	addi	a5,a5,752 # 204002f0 <__fini_array_end>
204037a6:	fcf71de3          	bne	a4,a5,20403780 <metal_fini+0x3e>
204037aa:	a021                	j	204037b2 <metal_fini+0x70>
C:/wsFreedomStudio/kernel/freedom-metal/src/init.c:43
204037ac:	0001                	nop
204037ae:	a011                	j	204037b2 <metal_fini+0x70>
C:/wsFreedomStudio/kernel/freedom-metal/src/init.c:48
204037b0:	0001                	nop
C:/wsFreedomStudio/kernel/freedom-metal/src/init.c:59
204037b2:	40f2                	lw	ra,28(sp)
204037b4:	4462                	lw	s0,24(sp)
204037b6:	6105                	addi	sp,sp,32
204037b8:	8082                	ret

204037ba <metal_init_run>:
metal_init_run():
C:/wsFreedomStudio/kernel/freedom-metal/src/init.c:69
204037ba:	1141                	addi	sp,sp,-16
204037bc:	c606                	sw	ra,12(sp)
204037be:	c422                	sw	s0,8(sp)
204037c0:	0800                	addi	s0,sp,16
204037c2:	3721                	jal	204036ca <metal_init>
204037c4:	0001                	nop
204037c6:	40b2                	lw	ra,12(sp)
204037c8:	4422                	lw	s0,8(sp)
204037ca:	0141                	addi	sp,sp,16
204037cc:	8082                	ret

204037ce <metal_fini_run>:
metal_fini_run():
C:/wsFreedomStudio/kernel/freedom-metal/src/init.c:72
204037ce:	1141                	addi	sp,sp,-16
204037d0:	c606                	sw	ra,12(sp)
204037d2:	c422                	sw	s0,8(sp)
204037d4:	0800                	addi	s0,sp,16
204037d6:	37b5                	jal	20403742 <metal_fini>
204037d8:	0001                	nop
204037da:	40b2                	lw	ra,12(sp)
204037dc:	4422                	lw	s0,8(sp)
204037de:	0141                	addi	sp,sp,16
204037e0:	8082                	ret

204037e2 <metal_timer_get_cyclecount>:
metal_timer_get_cyclecount():
C:/wsFreedomStudio/kernel/freedom-metal/src/timer.c:15
204037e2:	7179                	addi	sp,sp,-48
204037e4:	d606                	sw	ra,44(sp)
204037e6:	d422                	sw	s0,40(sp)
204037e8:	1800                	addi	s0,sp,48
204037ea:	fca42e23          	sw	a0,-36(s0)
204037ee:	fcb42c23          	sw	a1,-40(s0)
C:/wsFreedomStudio/kernel/freedom-metal/src/timer.c:16
204037f2:	fdc42783          	lw	a5,-36(s0)
204037f6:	853e                	mv	a0,a5
204037f8:	3569                	jal	20403682 <metal_cpu_get>
204037fa:	fea42623          	sw	a0,-20(s0)
C:/wsFreedomStudio/kernel/freedom-metal/src/timer.c:18
204037fe:	fec42783          	lw	a5,-20(s0)
20403802:	cf81                	beqz	a5,2040381a <metal_timer_get_cyclecount+0x38>
C:/wsFreedomStudio/kernel/freedom-metal/src/timer.c:19
20403804:	fec42503          	lw	a0,-20(s0)
20403808:	3501                	jal	20403608 <metal_cpu_get_timer>
2040380a:	872a                	mv	a4,a0
2040380c:	87ae                	mv	a5,a1
2040380e:	fd842683          	lw	a3,-40(s0)
20403812:	c298                	sw	a4,0(a3)
20403814:	c2dc                	sw	a5,4(a3)
C:/wsFreedomStudio/kernel/freedom-metal/src/timer.c:20
20403816:	4781                	li	a5,0
20403818:	a011                	j	2040381c <metal_timer_get_cyclecount+0x3a>
C:/wsFreedomStudio/kernel/freedom-metal/src/timer.c:22
2040381a:	57fd                	li	a5,-1
C:/wsFreedomStudio/kernel/freedom-metal/src/timer.c:23
2040381c:	853e                	mv	a0,a5
2040381e:	50b2                	lw	ra,44(sp)
20403820:	5422                	lw	s0,40(sp)
20403822:	6145                	addi	sp,sp,48
20403824:	8082                	ret

20403826 <metal_timer_get_timebase_frequency>:
metal_timer_get_timebase_frequency():
C:/wsFreedomStudio/kernel/freedom-metal/src/timer.c:26
20403826:	7179                	addi	sp,sp,-48
20403828:	d606                	sw	ra,44(sp)
2040382a:	d422                	sw	s0,40(sp)
2040382c:	1800                	addi	s0,sp,48
2040382e:	fca42e23          	sw	a0,-36(s0)
20403832:	fcb42c23          	sw	a1,-40(s0)
C:/wsFreedomStudio/kernel/freedom-metal/src/timer.c:27
20403836:	fdc42783          	lw	a5,-36(s0)
2040383a:	853e                	mv	a0,a5
2040383c:	3599                	jal	20403682 <metal_cpu_get>
2040383e:	fea42623          	sw	a0,-20(s0)
C:/wsFreedomStudio/kernel/freedom-metal/src/timer.c:29
20403842:	fec42783          	lw	a5,-20(s0)
20403846:	cf81                	beqz	a5,2040385e <metal_timer_get_timebase_frequency+0x38>
C:/wsFreedomStudio/kernel/freedom-metal/src/timer.c:30
20403848:	fec42503          	lw	a0,-20(s0)
2040384c:	33dd                	jal	20403632 <metal_cpu_get_timebase>
2040384e:	872a                	mv	a4,a0
20403850:	87ae                	mv	a5,a1
20403852:	fd842683          	lw	a3,-40(s0)
20403856:	c298                	sw	a4,0(a3)
20403858:	c2dc                	sw	a5,4(a3)
C:/wsFreedomStudio/kernel/freedom-metal/src/timer.c:31
2040385a:	4781                	li	a5,0
2040385c:	a011                	j	20403860 <metal_timer_get_timebase_frequency+0x3a>
C:/wsFreedomStudio/kernel/freedom-metal/src/timer.c:33
2040385e:	57fd                	li	a5,-1
C:/wsFreedomStudio/kernel/freedom-metal/src/timer.c:34
20403860:	853e                	mv	a0,a5
20403862:	50b2                	lw	ra,44(sp)
20403864:	5422                	lw	s0,40(sp)
20403866:	6145                	addi	sp,sp,48
20403868:	8082                	ret

2040386a <metal_tty_putc>:
metal_tty_putc():
C:/wsFreedomStudio/kernel/freedom-metal/src/tty.c:12
2040386a:	1101                	addi	sp,sp,-32
2040386c:	ce06                	sw	ra,28(sp)
2040386e:	cc22                	sw	s0,24(sp)
20403870:	1000                	addi	s0,sp,32
20403872:	fea42623          	sw	a0,-20(s0)
C:/wsFreedomStudio/kernel/freedom-metal/src/tty.c:13
20403876:	fec42583          	lw	a1,-20(s0)
2040387a:	800007b7          	lui	a5,0x80000
2040387e:	75878513          	addi	a0,a5,1880 # 80000758 <metal_segment_heap_target_end+0xffffec88>
20403882:	282d                	jal	204038bc <metal_uart_putc>
20403884:	87aa                	mv	a5,a0
C:/wsFreedomStudio/kernel/freedom-metal/src/tty.c:14
20403886:	853e                	mv	a0,a5
20403888:	40f2                	lw	ra,28(sp)
2040388a:	4462                	lw	s0,24(sp)
2040388c:	6105                	addi	sp,sp,32
2040388e:	8082                	ret

20403890 <metal_uart_init>:
metal_uart_init():
C:/wsFreedomStudio/kernel/freedom-metal/metal/uart.h:59
20403890:	1101                	addi	sp,sp,-32
20403892:	ce06                	sw	ra,28(sp)
20403894:	cc22                	sw	s0,24(sp)
20403896:	1000                	addi	s0,sp,32
20403898:	fea42623          	sw	a0,-20(s0)
2040389c:	feb42423          	sw	a1,-24(s0)
C:/wsFreedomStudio/kernel/freedom-metal/metal/uart.h:60
204038a0:	fec42783          	lw	a5,-20(s0)
204038a4:	439c                	lw	a5,0(a5)
204038a6:	439c                	lw	a5,0(a5)
204038a8:	fe842583          	lw	a1,-24(s0)
204038ac:	fec42503          	lw	a0,-20(s0)
204038b0:	9782                	jalr	a5
C:/wsFreedomStudio/kernel/freedom-metal/metal/uart.h:61
204038b2:	0001                	nop
204038b4:	40f2                	lw	ra,28(sp)
204038b6:	4462                	lw	s0,24(sp)
204038b8:	6105                	addi	sp,sp,32
204038ba:	8082                	ret

204038bc <metal_uart_putc>:
metal_uart_putc():
C:/wsFreedomStudio/kernel/freedom-metal/metal/uart.h:69
204038bc:	1101                	addi	sp,sp,-32
204038be:	ce06                	sw	ra,28(sp)
204038c0:	cc22                	sw	s0,24(sp)
204038c2:	1000                	addi	s0,sp,32
204038c4:	fea42623          	sw	a0,-20(s0)
204038c8:	feb42423          	sw	a1,-24(s0)
C:/wsFreedomStudio/kernel/freedom-metal/metal/uart.h:70
204038cc:	fec42783          	lw	a5,-20(s0)
204038d0:	439c                	lw	a5,0(a5)
204038d2:	43dc                	lw	a5,4(a5)
204038d4:	fe842583          	lw	a1,-24(s0)
204038d8:	fec42503          	lw	a0,-20(s0)
204038dc:	9782                	jalr	a5
204038de:	87aa                	mv	a5,a0
C:/wsFreedomStudio/kernel/freedom-metal/metal/uart.h:71
204038e0:	853e                	mv	a0,a5
204038e2:	40f2                	lw	ra,28(sp)
204038e4:	4462                	lw	s0,24(sp)
204038e6:	6105                	addi	sp,sp,32
204038e8:	8082                	ret

204038ea <metal_uart_set_baud_rate>:
metal_uart_set_baud_rate():
C:/wsFreedomStudio/kernel/freedom-metal/metal/uart.h:111
204038ea:	1101                	addi	sp,sp,-32
204038ec:	ce06                	sw	ra,28(sp)
204038ee:	cc22                	sw	s0,24(sp)
204038f0:	1000                	addi	s0,sp,32
204038f2:	fea42623          	sw	a0,-20(s0)
204038f6:	feb42423          	sw	a1,-24(s0)
C:/wsFreedomStudio/kernel/freedom-metal/metal/uart.h:112
204038fa:	fec42783          	lw	a5,-20(s0)
204038fe:	439c                	lw	a5,0(a5)
20403900:	4bdc                	lw	a5,20(a5)
20403902:	fe842583          	lw	a1,-24(s0)
20403906:	fec42503          	lw	a0,-20(s0)
2040390a:	9782                	jalr	a5
2040390c:	87aa                	mv	a5,a0
C:/wsFreedomStudio/kernel/freedom-metal/metal/uart.h:113
2040390e:	853e                	mv	a0,a5
20403910:	40f2                	lw	ra,28(sp)
20403912:	4462                	lw	s0,24(sp)
20403914:	6105                	addi	sp,sp,32
20403916:	8082                	ret

20403918 <__metal_driver_sifive_clint0_control_base>:
__metal_driver_sifive_clint0_control_base():
C:\wsFreedomStudio\kernel\bsp\build\debug/./metal/machine.h:202
20403918:	1101                	addi	sp,sp,-32
2040391a:	ce22                	sw	s0,28(sp)
2040391c:	1000                	addi	s0,sp,32
2040391e:	fea42623          	sw	a0,-20(s0)
C:\wsFreedomStudio\kernel\bsp\build\debug/./metal/machine.h:203
20403922:	fec42703          	lw	a4,-20(s0)
20403926:	800007b7          	lui	a5,0x80000
2040392a:	7ac78793          	addi	a5,a5,1964 # 800007ac <metal_segment_heap_target_end+0xffffecdc>
2040392e:	00f71563          	bne	a4,a5,20403938 <__metal_driver_sifive_clint0_control_base+0x20>
C:\wsFreedomStudio\kernel\bsp\build\debug/./metal/machine.h:204
20403932:	020007b7          	lui	a5,0x2000
20403936:	a011                	j	2040393a <__metal_driver_sifive_clint0_control_base+0x22>
C:\wsFreedomStudio\kernel\bsp\build\debug/./metal/machine.h:207
20403938:	4781                	li	a5,0
C:\wsFreedomStudio\kernel\bsp\build\debug/./metal/machine.h:209
2040393a:	853e                	mv	a0,a5
2040393c:	4472                	lw	s0,28(sp)
2040393e:	6105                	addi	sp,sp,32
20403940:	8082                	ret

20403942 <__metal_driver_sifive_clint0_num_interrupts>:
__metal_driver_sifive_clint0_num_interrupts():
C:\wsFreedomStudio\kernel\bsp\build\debug/./metal/machine.h:222
20403942:	1101                	addi	sp,sp,-32
20403944:	ce22                	sw	s0,28(sp)
20403946:	1000                	addi	s0,sp,32
20403948:	fea42623          	sw	a0,-20(s0)
C:\wsFreedomStudio\kernel\bsp\build\debug/./metal/machine.h:223
2040394c:	fec42703          	lw	a4,-20(s0)
20403950:	800007b7          	lui	a5,0x80000
20403954:	7ac78793          	addi	a5,a5,1964 # 800007ac <metal_segment_heap_target_end+0xffffecdc>
20403958:	00f71463          	bne	a4,a5,20403960 <__metal_driver_sifive_clint0_num_interrupts+0x1e>
C:\wsFreedomStudio\kernel\bsp\build\debug/./metal/machine.h:224
2040395c:	4789                	li	a5,2
2040395e:	a011                	j	20403962 <__metal_driver_sifive_clint0_num_interrupts+0x20>
C:\wsFreedomStudio\kernel\bsp\build\debug/./metal/machine.h:227
20403960:	4781                	li	a5,0
C:\wsFreedomStudio\kernel\bsp\build\debug/./metal/machine.h:229
20403962:	853e                	mv	a0,a5
20403964:	4472                	lw	s0,28(sp)
20403966:	6105                	addi	sp,sp,32
20403968:	8082                	ret

2040396a <__metal_driver_sifive_clint0_interrupt_parents>:
__metal_driver_sifive_clint0_interrupt_parents():
C:\wsFreedomStudio\kernel\bsp\build\debug/./metal/machine.h:232
2040396a:	1101                	addi	sp,sp,-32
2040396c:	ce22                	sw	s0,28(sp)
2040396e:	1000                	addi	s0,sp,32
20403970:	fea42623          	sw	a0,-20(s0)
20403974:	feb42423          	sw	a1,-24(s0)
C:\wsFreedomStudio\kernel\bsp\build\debug/./metal/machine.h:233
20403978:	fe842783          	lw	a5,-24(s0)
2040397c:	e791                	bnez	a5,20403988 <__metal_driver_sifive_clint0_interrupt_parents+0x1e>
C:\wsFreedomStudio\kernel\bsp\build\debug/./metal/machine.h:234
2040397e:	800007b7          	lui	a5,0x80000
20403982:	08878793          	addi	a5,a5,136 # 80000088 <metal_segment_heap_target_end+0xffffe5b8>
20403986:	a821                	j	2040399e <__metal_driver_sifive_clint0_interrupt_parents+0x34>
C:\wsFreedomStudio\kernel\bsp\build\debug/./metal/machine.h:236
20403988:	fe842703          	lw	a4,-24(s0)
2040398c:	4785                	li	a5,1
2040398e:	00f71763          	bne	a4,a5,2040399c <__metal_driver_sifive_clint0_interrupt_parents+0x32>
C:\wsFreedomStudio\kernel\bsp\build\debug/./metal/machine.h:237
20403992:	800007b7          	lui	a5,0x80000
20403996:	08878793          	addi	a5,a5,136 # 80000088 <metal_segment_heap_target_end+0xffffe5b8>
2040399a:	a011                	j	2040399e <__metal_driver_sifive_clint0_interrupt_parents+0x34>
C:\wsFreedomStudio\kernel\bsp\build\debug/./metal/machine.h:240
2040399c:	4781                	li	a5,0
C:\wsFreedomStudio\kernel\bsp\build\debug/./metal/machine.h:242
2040399e:	853e                	mv	a0,a5
204039a0:	4472                	lw	s0,28(sp)
204039a2:	6105                	addi	sp,sp,32
204039a4:	8082                	ret

204039a6 <__metal_driver_sifive_clint0_interrupt_lines>:
__metal_driver_sifive_clint0_interrupt_lines():
C:\wsFreedomStudio\kernel\bsp\build\debug/./metal/machine.h:245
204039a6:	1101                	addi	sp,sp,-32
204039a8:	ce22                	sw	s0,28(sp)
204039aa:	1000                	addi	s0,sp,32
204039ac:	fea42623          	sw	a0,-20(s0)
204039b0:	feb42423          	sw	a1,-24(s0)
C:\wsFreedomStudio\kernel\bsp\build\debug/./metal/machine.h:246
204039b4:	fe842783          	lw	a5,-24(s0)
204039b8:	e399                	bnez	a5,204039be <__metal_driver_sifive_clint0_interrupt_lines+0x18>
C:\wsFreedomStudio\kernel\bsp\build\debug/./metal/machine.h:247
204039ba:	478d                	li	a5,3
204039bc:	a809                	j	204039ce <__metal_driver_sifive_clint0_interrupt_lines+0x28>
C:\wsFreedomStudio\kernel\bsp\build\debug/./metal/machine.h:249
204039be:	fe842703          	lw	a4,-24(s0)
204039c2:	4785                	li	a5,1
204039c4:	00f71463          	bne	a4,a5,204039cc <__metal_driver_sifive_clint0_interrupt_lines+0x26>
C:\wsFreedomStudio\kernel\bsp\build\debug/./metal/machine.h:250
204039c8:	479d                	li	a5,7
204039ca:	a011                	j	204039ce <__metal_driver_sifive_clint0_interrupt_lines+0x28>
C:\wsFreedomStudio\kernel\bsp\build\debug/./metal/machine.h:253
204039cc:	4781                	li	a5,0
C:\wsFreedomStudio\kernel\bsp\build\debug/./metal/machine.h:255
204039ce:	853e                	mv	a0,a5
204039d0:	4472                	lw	s0,28(sp)
204039d2:	6105                	addi	sp,sp,32
204039d4:	8082                	ret

204039d6 <__metal_clint0_mtime_get>:
__metal_clint0_mtime_get():
C:/wsFreedomStudio/kernel/freedom-metal/src/drivers/riscv_clint0.c:14
204039d6:	715d                	addi	sp,sp,-80
204039d8:	c686                	sw	ra,76(sp)
204039da:	c4a2                	sw	s0,72(sp)
204039dc:	c2ca                	sw	s2,68(sp)
204039de:	c0ce                	sw	s3,64(sp)
204039e0:	de52                	sw	s4,60(sp)
204039e2:	dc56                	sw	s5,56(sp)
204039e4:	da5a                	sw	s6,52(sp)
204039e6:	d85e                	sw	s7,48(sp)
204039e8:	d662                	sw	s8,44(sp)
204039ea:	d466                	sw	s9,40(sp)
204039ec:	0880                	addi	s0,sp,80
204039ee:	faa42e23          	sw	a0,-68(s0)
C:/wsFreedomStudio/kernel/freedom-metal/src/drivers/riscv_clint0.c:17
204039f2:	fbc42783          	lw	a5,-68(s0)
204039f6:	853e                	mv	a0,a5
204039f8:	3705                	jal	20403918 <__metal_driver_sifive_clint0_control_base>
204039fa:	fca42623          	sw	a0,-52(s0)
C:/wsFreedomStudio/kernel/freedom-metal/src/drivers/riscv_clint0.c:21 (discriminator 1)
204039fe:	fcc42703          	lw	a4,-52(s0)
20403a02:	67b1                	lui	a5,0xc
20403a04:	17f1                	addi	a5,a5,-4
20403a06:	97ba                	add	a5,a5,a4
20403a08:	439c                	lw	a5,0(a5)
20403a0a:	fcf42423          	sw	a5,-56(s0)
C:/wsFreedomStudio/kernel/freedom-metal/src/drivers/riscv_clint0.c:23 (discriminator 1)
20403a0e:	fcc42703          	lw	a4,-52(s0)
20403a12:	67b1                	lui	a5,0xc
20403a14:	17e1                	addi	a5,a5,-8
20403a16:	97ba                	add	a5,a5,a4
20403a18:	439c                	lw	a5,0(a5)
20403a1a:	fcf42223          	sw	a5,-60(s0)
C:/wsFreedomStudio/kernel/freedom-metal/src/drivers/riscv_clint0.c:25 (discriminator 1)
20403a1e:	fcc42703          	lw	a4,-52(s0)
20403a22:	67b1                	lui	a5,0xc
20403a24:	17f1                	addi	a5,a5,-4
20403a26:	97ba                	add	a5,a5,a4
20403a28:	439c                	lw	a5,0(a5)
20403a2a:	fc842703          	lw	a4,-56(s0)
20403a2e:	fcf718e3          	bne	a4,a5,204039fe <__metal_clint0_mtime_get+0x28>
C:/wsFreedomStudio/kernel/freedom-metal/src/drivers/riscv_clint0.c:29
20403a32:	fc842783          	lw	a5,-56(s0)
20403a36:	8c3e                	mv	s8,a5
20403a38:	4c81                	li	s9,0
20403a3a:	000c1993          	slli	s3,s8,0x0
20403a3e:	4901                	li	s2,0
20403a40:	fc442783          	lw	a5,-60(s0)
20403a44:	8a3e                	mv	s4,a5
20403a46:	4a81                	li	s5,0
20403a48:	01496b33          	or	s6,s2,s4
20403a4c:	0159ebb3          	or	s7,s3,s5
20403a50:	875a                	mv	a4,s6
20403a52:	87de                	mv	a5,s7
C:/wsFreedomStudio/kernel/freedom-metal/src/drivers/riscv_clint0.c:30
20403a54:	853a                	mv	a0,a4
20403a56:	85be                	mv	a1,a5
20403a58:	40b6                	lw	ra,76(sp)
20403a5a:	4426                	lw	s0,72(sp)
20403a5c:	4916                	lw	s2,68(sp)
20403a5e:	4986                	lw	s3,64(sp)
20403a60:	5a72                	lw	s4,60(sp)
20403a62:	5ae2                	lw	s5,56(sp)
20403a64:	5b52                	lw	s6,52(sp)
20403a66:	5bc2                	lw	s7,48(sp)
20403a68:	5c32                	lw	s8,44(sp)
20403a6a:	5ca2                	lw	s9,40(sp)
20403a6c:	6161                	addi	sp,sp,80
20403a6e:	8082                	ret

20403a70 <__metal_driver_riscv_clint0_mtimecmp_set>:
__metal_driver_riscv_clint0_mtimecmp_set():
C:/wsFreedomStudio/kernel/freedom-metal/src/drivers/riscv_clint0.c:34
20403a70:	7179                	addi	sp,sp,-48
20403a72:	d606                	sw	ra,44(sp)
20403a74:	d422                	sw	s0,40(sp)
20403a76:	d24a                	sw	s2,36(sp)
20403a78:	d04e                	sw	s3,32(sp)
20403a7a:	1800                	addi	s0,sp,48
20403a7c:	fca42e23          	sw	a0,-36(s0)
20403a80:	fcb42c23          	sw	a1,-40(s0)
20403a84:	fcc42823          	sw	a2,-48(s0)
20403a88:	fcd42a23          	sw	a3,-44(s0)
C:/wsFreedomStudio/kernel/freedom-metal/src/drivers/riscv_clint0.c:35
20403a8c:	fdc42783          	lw	a5,-36(s0)
20403a90:	fef42623          	sw	a5,-20(s0)
C:/wsFreedomStudio/kernel/freedom-metal/src/drivers/riscv_clint0.c:38
20403a94:	fec42783          	lw	a5,-20(s0)
20403a98:	853e                	mv	a0,a5
20403a9a:	3dbd                	jal	20403918 <__metal_driver_sifive_clint0_control_base>
20403a9c:	fea42423          	sw	a0,-24(s0)
C:/wsFreedomStudio/kernel/freedom-metal/src/drivers/riscv_clint0.c:45
20403aa0:	fd842783          	lw	a5,-40(s0)
20403aa4:	078e                	slli	a5,a5,0x3
20403aa6:	873e                	mv	a4,a5
20403aa8:	fe842783          	lw	a5,-24(s0)
20403aac:	973e                	add	a4,a4,a5
20403aae:	6791                	lui	a5,0x4
20403ab0:	0791                	addi	a5,a5,4
20403ab2:	97ba                	add	a5,a5,a4
20403ab4:	873e                	mv	a4,a5
C:/wsFreedomStudio/kernel/freedom-metal/src/drivers/riscv_clint0.c:47
20403ab6:	57fd                	li	a5,-1
20403ab8:	c31c                	sw	a5,0(a4)
C:/wsFreedomStudio/kernel/freedom-metal/src/drivers/riscv_clint0.c:48
20403aba:	fd842783          	lw	a5,-40(s0)
20403abe:	078e                	slli	a5,a5,0x3
20403ac0:	873e                	mv	a4,a5
20403ac2:	fe842783          	lw	a5,-24(s0)
20403ac6:	973e                	add	a4,a4,a5
20403ac8:	6791                	lui	a5,0x4
20403aca:	97ba                	add	a5,a5,a4
20403acc:	873e                	mv	a4,a5
C:/wsFreedomStudio/kernel/freedom-metal/src/drivers/riscv_clint0.c:50
20403ace:	fd042783          	lw	a5,-48(s0)
C:/wsFreedomStudio/kernel/freedom-metal/src/drivers/riscv_clint0.c:49
20403ad2:	c31c                	sw	a5,0(a4)
C:/wsFreedomStudio/kernel/freedom-metal/src/drivers/riscv_clint0.c:53
20403ad4:	fd442783          	lw	a5,-44(s0)
20403ad8:	0007d913          	srli	s2,a5,0x0
20403adc:	4981                	li	s3,0
C:/wsFreedomStudio/kernel/freedom-metal/src/drivers/riscv_clint0.c:51
20403ade:	fd842783          	lw	a5,-40(s0)
20403ae2:	078e                	slli	a5,a5,0x3
20403ae4:	873e                	mv	a4,a5
20403ae6:	fe842783          	lw	a5,-24(s0)
20403aea:	973e                	add	a4,a4,a5
20403aec:	6791                	lui	a5,0x4
20403aee:	0791                	addi	a5,a5,4
20403af0:	97ba                	add	a5,a5,a4
C:/wsFreedomStudio/kernel/freedom-metal/src/drivers/riscv_clint0.c:53
20403af2:	874a                	mv	a4,s2
20403af4:	c398                	sw	a4,0(a5)
C:/wsFreedomStudio/kernel/freedom-metal/src/drivers/riscv_clint0.c:54
20403af6:	4781                	li	a5,0
C:/wsFreedomStudio/kernel/freedom-metal/src/drivers/riscv_clint0.c:55
20403af8:	853e                	mv	a0,a5
20403afa:	50b2                	lw	ra,44(sp)
20403afc:	5422                	lw	s0,40(sp)
20403afe:	5912                	lw	s2,36(sp)
20403b00:	5982                	lw	s3,32(sp)
20403b02:	6145                	addi	sp,sp,48
20403b04:	8082                	ret

20403b06 <_get_cpu_intc>:
_get_cpu_intc():
C:/wsFreedomStudio/kernel/freedom-metal/src/drivers/riscv_clint0.c:57
20403b06:	1101                	addi	sp,sp,-32
20403b08:	ce06                	sw	ra,28(sp)
20403b0a:	cc22                	sw	s0,24(sp)
20403b0c:	1000                	addi	s0,sp,32
C:/wsFreedomStudio/kernel/freedom-metal/src/drivers/riscv_clint0.c:58
20403b0e:	fe042623          	sw	zero,-20(s0)
C:/wsFreedomStudio/kernel/freedom-metal/src/drivers/riscv_clint0.c:59
20403b12:	f14027f3          	csrr	a5,mhartid
20403b16:	fef42623          	sw	a5,-20(s0)
C:/wsFreedomStudio/kernel/freedom-metal/src/drivers/riscv_clint0.c:62
20403b1a:	fec42783          	lw	a5,-20(s0)
20403b1e:	853e                	mv	a0,a5
20403b20:	b63ff0ef          	jal	ra,20403682 <metal_cpu_get>
20403b24:	fea42423          	sw	a0,-24(s0)
C:/wsFreedomStudio/kernel/freedom-metal/src/drivers/riscv_clint0.c:64
20403b28:	fe842503          	lw	a0,-24(s0)
20403b2c:	b31ff0ef          	jal	ra,2040365c <metal_cpu_interrupt_controller>
20403b30:	87aa                	mv	a5,a0
C:/wsFreedomStudio/kernel/freedom-metal/src/drivers/riscv_clint0.c:65
20403b32:	853e                	mv	a0,a5
20403b34:	40f2                	lw	ra,28(sp)
20403b36:	4462                	lw	s0,24(sp)
20403b38:	6105                	addi	sp,sp,32
20403b3a:	8082                	ret

20403b3c <__metal_driver_riscv_clint0_init>:
__metal_driver_riscv_clint0_init():
C:/wsFreedomStudio/kernel/freedom-metal/src/drivers/riscv_clint0.c:67
20403b3c:	7139                	addi	sp,sp,-64
20403b3e:	de06                	sw	ra,60(sp)
20403b40:	dc22                	sw	s0,56(sp)
20403b42:	0080                	addi	s0,sp,64
20403b44:	fca42623          	sw	a0,-52(s0)
C:/wsFreedomStudio/kernel/freedom-metal/src/drivers/riscv_clint0.c:69
20403b48:	fcc42503          	lw	a0,-52(s0)
20403b4c:	3bdd                	jal	20403942 <__metal_driver_sifive_clint0_num_interrupts>
20403b4e:	fea42423          	sw	a0,-24(s0)
C:/wsFreedomStudio/kernel/freedom-metal/src/drivers/riscv_clint0.c:70
20403b52:	fcc42783          	lw	a5,-52(s0)
20403b56:	fef42223          	sw	a5,-28(s0)
C:/wsFreedomStudio/kernel/freedom-metal/src/drivers/riscv_clint0.c:73
20403b5a:	fe442783          	lw	a5,-28(s0)
20403b5e:	43dc                	lw	a5,4(a5)
20403b60:	efa9                	bnez	a5,20403bba <__metal_driver_riscv_clint0_init+0x7e>
C:/wsFreedomStudio/kernel/freedom-metal/src/drivers/riscv_clint0.c:76
20403b62:	fe042623          	sw	zero,-20(s0)
20403b66:	a081                	j	20403ba6 <__metal_driver_riscv_clint0_init+0x6a>
C:/wsFreedomStudio/kernel/freedom-metal/src/drivers/riscv_clint0.c:78 (discriminator 3)
20403b68:	fec42583          	lw	a1,-20(s0)
20403b6c:	fcc42503          	lw	a0,-52(s0)
20403b70:	3bed                	jal	2040396a <__metal_driver_sifive_clint0_interrupt_parents>
20403b72:	fea42023          	sw	a0,-32(s0)
C:/wsFreedomStudio/kernel/freedom-metal/src/drivers/riscv_clint0.c:80 (discriminator 3)
20403b76:	fec42583          	lw	a1,-20(s0)
20403b7a:	fcc42503          	lw	a0,-52(s0)
20403b7e:	3525                	jal	204039a6 <__metal_driver_sifive_clint0_interrupt_lines>
20403b80:	fca42e23          	sw	a0,-36(s0)
C:/wsFreedomStudio/kernel/freedom-metal/src/drivers/riscv_clint0.c:81 (discriminator 3)
20403b84:	fe042783          	lw	a5,-32(s0)
20403b88:	439c                	lw	a5,0(a5)
20403b8a:	4fdc                	lw	a5,28(a5)
20403b8c:	fcc42683          	lw	a3,-52(s0)
20403b90:	4601                	li	a2,0
20403b92:	fdc42583          	lw	a1,-36(s0)
20403b96:	fe042503          	lw	a0,-32(s0)
20403b9a:	9782                	jalr	a5
C:/wsFreedomStudio/kernel/freedom-metal/src/drivers/riscv_clint0.c:76 (discriminator 3)
20403b9c:	fec42783          	lw	a5,-20(s0)
20403ba0:	0785                	addi	a5,a5,1
20403ba2:	fef42623          	sw	a5,-20(s0)
C:/wsFreedomStudio/kernel/freedom-metal/src/drivers/riscv_clint0.c:76 (discriminator 1)
20403ba6:	fec42703          	lw	a4,-20(s0)
20403baa:	fe842783          	lw	a5,-24(s0)
20403bae:	faf74de3          	blt	a4,a5,20403b68 <__metal_driver_riscv_clint0_init+0x2c>
C:/wsFreedomStudio/kernel/freedom-metal/src/drivers/riscv_clint0.c:83
20403bb2:	fe442783          	lw	a5,-28(s0)
20403bb6:	4705                	li	a4,1
20403bb8:	c3d8                	sw	a4,4(a5)
C:/wsFreedomStudio/kernel/freedom-metal/src/drivers/riscv_clint0.c:85
20403bba:	0001                	nop
20403bbc:	50f2                	lw	ra,60(sp)
20403bbe:	5462                	lw	s0,56(sp)
20403bc0:	6121                	addi	sp,sp,64
20403bc2:	8082                	ret

20403bc4 <__metal_driver_riscv_clint0_register>:
__metal_driver_riscv_clint0_register():
C:/wsFreedomStudio/kernel/freedom-metal/src/drivers/riscv_clint0.c:89
20403bc4:	7139                	addi	sp,sp,-64
20403bc6:	de06                	sw	ra,60(sp)
20403bc8:	dc22                	sw	s0,56(sp)
20403bca:	0080                	addi	s0,sp,64
20403bcc:	fca42623          	sw	a0,-52(s0)
20403bd0:	fcb42423          	sw	a1,-56(s0)
20403bd4:	fcc42223          	sw	a2,-60(s0)
20403bd8:	fcd42023          	sw	a3,-64(s0)
C:/wsFreedomStudio/kernel/freedom-metal/src/drivers/riscv_clint0.c:90
20403bdc:	57fd                	li	a5,-1
20403bde:	fef42623          	sw	a5,-20(s0)
C:/wsFreedomStudio/kernel/freedom-metal/src/drivers/riscv_clint0.c:91
20403be2:	478010ef          	jal	ra,2040505a <__metal_controller_interrupt_vector_mode>
20403be6:	fea42023          	sw	a0,-32(s0)
C:/wsFreedomStudio/kernel/freedom-metal/src/drivers/riscv_clint0.c:92
20403bea:	fe042423          	sw	zero,-24(s0)
C:/wsFreedomStudio/kernel/freedom-metal/src/drivers/riscv_clint0.c:93
20403bee:	3f21                	jal	20403b06 <_get_cpu_intc>
20403bf0:	fca42e23          	sw	a0,-36(s0)
C:/wsFreedomStudio/kernel/freedom-metal/src/drivers/riscv_clint0.c:95
20403bf4:	fcc42503          	lw	a0,-52(s0)
20403bf8:	33a9                	jal	20403942 <__metal_driver_sifive_clint0_num_interrupts>
20403bfa:	fca42c23          	sw	a0,-40(s0)
C:/wsFreedomStudio/kernel/freedom-metal/src/drivers/riscv_clint0.c:97
20403bfe:	fe042703          	lw	a4,-32(s0)
20403c02:	4785                	li	a5,1
20403c04:	00f70863          	beq	a4,a5,20403c14 <__metal_driver_riscv_clint0_register+0x50>
C:/wsFreedomStudio/kernel/freedom-metal/src/drivers/riscv_clint0.c:97 (discriminator 1)
20403c08:	fe042783          	lw	a5,-32(s0)
20403c0c:	c781                	beqz	a5,20403c14 <__metal_driver_riscv_clint0_register+0x50>
C:/wsFreedomStudio/kernel/freedom-metal/src/drivers/riscv_clint0.c:98
20403c0e:	fec42783          	lw	a5,-20(s0)
20403c12:	a049                	j	20403c94 <__metal_driver_riscv_clint0_register+0xd0>
C:/wsFreedomStudio/kernel/freedom-metal/src/drivers/riscv_clint0.c:101
20403c14:	fe042223          	sw	zero,-28(s0)
20403c18:	a091                	j	20403c5c <__metal_driver_riscv_clint0_register+0x98>
C:/wsFreedomStudio/kernel/freedom-metal/src/drivers/riscv_clint0.c:102
20403c1a:	fe442583          	lw	a1,-28(s0)
20403c1e:	fcc42503          	lw	a0,-52(s0)
20403c22:	3351                	jal	204039a6 <__metal_driver_sifive_clint0_interrupt_lines>
20403c24:	fca42a23          	sw	a0,-44(s0)
C:/wsFreedomStudio/kernel/freedom-metal/src/drivers/riscv_clint0.c:103
20403c28:	fe442583          	lw	a1,-28(s0)
20403c2c:	fcc42503          	lw	a0,-52(s0)
20403c30:	3b2d                	jal	2040396a <__metal_driver_sifive_clint0_interrupt_parents>
20403c32:	fea42423          	sw	a0,-24(s0)
C:/wsFreedomStudio/kernel/freedom-metal/src/drivers/riscv_clint0.c:104
20403c36:	fdc42703          	lw	a4,-36(s0)
20403c3a:	fe842783          	lw	a5,-24(s0)
20403c3e:	00f71863          	bne	a4,a5,20403c4e <__metal_driver_riscv_clint0_register+0x8a>
C:/wsFreedomStudio/kernel/freedom-metal/src/drivers/riscv_clint0.c:104 (discriminator 1)
20403c42:	fc842703          	lw	a4,-56(s0)
20403c46:	fd442783          	lw	a5,-44(s0)
20403c4a:	02f70063          	beq	a4,a5,20403c6a <__metal_driver_riscv_clint0_register+0xa6>
C:/wsFreedomStudio/kernel/freedom-metal/src/drivers/riscv_clint0.c:107 (discriminator 2)
20403c4e:	fe042423          	sw	zero,-24(s0)
C:/wsFreedomStudio/kernel/freedom-metal/src/drivers/riscv_clint0.c:101 (discriminator 2)
20403c52:	fe442783          	lw	a5,-28(s0)
20403c56:	0785                	addi	a5,a5,1
20403c58:	fef42223          	sw	a5,-28(s0)
C:/wsFreedomStudio/kernel/freedom-metal/src/drivers/riscv_clint0.c:101 (discriminator 1)
20403c5c:	fe442703          	lw	a4,-28(s0)
20403c60:	fd842783          	lw	a5,-40(s0)
20403c64:	faf74be3          	blt	a4,a5,20403c1a <__metal_driver_riscv_clint0_register+0x56>
20403c68:	a011                	j	20403c6c <__metal_driver_riscv_clint0_register+0xa8>
C:/wsFreedomStudio/kernel/freedom-metal/src/drivers/riscv_clint0.c:105
20403c6a:	0001                	nop
C:/wsFreedomStudio/kernel/freedom-metal/src/drivers/riscv_clint0.c:111
20403c6c:	fe842783          	lw	a5,-24(s0)
20403c70:	c385                	beqz	a5,20403c90 <__metal_driver_riscv_clint0_register+0xcc>
C:/wsFreedomStudio/kernel/freedom-metal/src/drivers/riscv_clint0.c:112
20403c72:	fe842783          	lw	a5,-24(s0)
20403c76:	439c                	lw	a5,0(a5)
20403c78:	4fdc                	lw	a5,28(a5)
20403c7a:	fc042683          	lw	a3,-64(s0)
20403c7e:	fc442603          	lw	a2,-60(s0)
20403c82:	fc842583          	lw	a1,-56(s0)
20403c86:	fe842503          	lw	a0,-24(s0)
20403c8a:	9782                	jalr	a5
20403c8c:	fea42623          	sw	a0,-20(s0)
C:/wsFreedomStudio/kernel/freedom-metal/src/drivers/riscv_clint0.c:114
20403c90:	fec42783          	lw	a5,-20(s0)
C:/wsFreedomStudio/kernel/freedom-metal/src/drivers/riscv_clint0.c:115
20403c94:	853e                	mv	a0,a5
20403c96:	50f2                	lw	ra,60(sp)
20403c98:	5462                	lw	s0,56(sp)
20403c9a:	6121                	addi	sp,sp,64
20403c9c:	8082                	ret

20403c9e <__metal_driver_riscv_clint0_vector_register>:
__metal_driver_riscv_clint0_vector_register():
C:/wsFreedomStudio/kernel/freedom-metal/src/drivers/riscv_clint0.c:119
20403c9e:	7179                	addi	sp,sp,-48
20403ca0:	d622                	sw	s0,44(sp)
20403ca2:	1800                	addi	s0,sp,48
20403ca4:	fca42e23          	sw	a0,-36(s0)
20403ca8:	fcb42c23          	sw	a1,-40(s0)
20403cac:	fcc42a23          	sw	a2,-44(s0)
20403cb0:	fcd42823          	sw	a3,-48(s0)
C:/wsFreedomStudio/kernel/freedom-metal/src/drivers/riscv_clint0.c:121
20403cb4:	57fd                	li	a5,-1
20403cb6:	fef42623          	sw	a5,-20(s0)
C:/wsFreedomStudio/kernel/freedom-metal/src/drivers/riscv_clint0.c:122
20403cba:	fec42783          	lw	a5,-20(s0)
C:/wsFreedomStudio/kernel/freedom-metal/src/drivers/riscv_clint0.c:123
20403cbe:	853e                	mv	a0,a5
20403cc0:	5432                	lw	s0,44(sp)
20403cc2:	6145                	addi	sp,sp,48
20403cc4:	8082                	ret

20403cc6 <__metal_driver_riscv_clint0_get_vector_mode>:
__metal_driver_riscv_clint0_get_vector_mode():
C:/wsFreedomStudio/kernel/freedom-metal/src/drivers/riscv_clint0.c:126
20403cc6:	1101                	addi	sp,sp,-32
20403cc8:	ce06                	sw	ra,28(sp)
20403cca:	cc22                	sw	s0,24(sp)
20403ccc:	1000                	addi	s0,sp,32
20403cce:	fea42623          	sw	a0,-20(s0)
C:/wsFreedomStudio/kernel/freedom-metal/src/drivers/riscv_clint0.c:127
20403cd2:	388010ef          	jal	ra,2040505a <__metal_controller_interrupt_vector_mode>
20403cd6:	87aa                	mv	a5,a0
C:/wsFreedomStudio/kernel/freedom-metal/src/drivers/riscv_clint0.c:128
20403cd8:	853e                	mv	a0,a5
20403cda:	40f2                	lw	ra,28(sp)
20403cdc:	4462                	lw	s0,24(sp)
20403cde:	6105                	addi	sp,sp,32
20403ce0:	8082                	ret

20403ce2 <__metal_driver_riscv_clint0_set_vector_mode>:
__metal_driver_riscv_clint0_set_vector_mode():
C:/wsFreedomStudio/kernel/freedom-metal/src/drivers/riscv_clint0.c:131
20403ce2:	7179                	addi	sp,sp,-48
20403ce4:	d606                	sw	ra,44(sp)
20403ce6:	d422                	sw	s0,40(sp)
20403ce8:	1800                	addi	s0,sp,48
20403cea:	fca42e23          	sw	a0,-36(s0)
20403cee:	fcb42c23          	sw	a1,-40(s0)
C:/wsFreedomStudio/kernel/freedom-metal/src/drivers/riscv_clint0.c:132
20403cf2:	57fd                	li	a5,-1
20403cf4:	fef42623          	sw	a5,-20(s0)
C:/wsFreedomStudio/kernel/freedom-metal/src/drivers/riscv_clint0.c:133
20403cf8:	3539                	jal	20403b06 <_get_cpu_intc>
20403cfa:	fea42423          	sw	a0,-24(s0)
C:/wsFreedomStudio/kernel/freedom-metal/src/drivers/riscv_clint0.c:135
20403cfe:	fe842783          	lw	a5,-24(s0)
20403d02:	c395                	beqz	a5,20403d26 <__metal_driver_riscv_clint0_set_vector_mode+0x44>
C:/wsFreedomStudio/kernel/freedom-metal/src/drivers/riscv_clint0.c:138
20403d04:	fd842703          	lw	a4,-40(s0)
20403d08:	4785                	li	a5,1
20403d0a:	02e7e063          	bltu	a5,a4,20403d2a <__metal_driver_riscv_clint0_set_vector_mode+0x48>
C:/wsFreedomStudio/kernel/freedom-metal/src/drivers/riscv_clint0.c:141
20403d0e:	fe842783          	lw	a5,-24(s0)
20403d12:	439c                	lw	a5,0(a5)
20403d14:	43dc                	lw	a5,4(a5)
20403d16:	fd842583          	lw	a1,-40(s0)
20403d1a:	fe842503          	lw	a0,-24(s0)
20403d1e:	9782                	jalr	a5
20403d20:	fea42623          	sw	a0,-20(s0)
C:/wsFreedomStudio/kernel/freedom-metal/src/drivers/riscv_clint0.c:142
20403d24:	a021                	j	20403d2c <__metal_driver_riscv_clint0_set_vector_mode+0x4a>
C:/wsFreedomStudio/kernel/freedom-metal/src/drivers/riscv_clint0.c:146
20403d26:	0001                	nop
20403d28:	a011                	j	20403d2c <__metal_driver_riscv_clint0_set_vector_mode+0x4a>
C:/wsFreedomStudio/kernel/freedom-metal/src/drivers/riscv_clint0.c:144
20403d2a:	0001                	nop
C:/wsFreedomStudio/kernel/freedom-metal/src/drivers/riscv_clint0.c:147
20403d2c:	fec42783          	lw	a5,-20(s0)
C:/wsFreedomStudio/kernel/freedom-metal/src/drivers/riscv_clint0.c:148
20403d30:	853e                	mv	a0,a5
20403d32:	50b2                	lw	ra,44(sp)
20403d34:	5422                	lw	s0,40(sp)
20403d36:	6145                	addi	sp,sp,48
20403d38:	8082                	ret

20403d3a <__metal_driver_riscv_clint0_enable>:
__metal_driver_riscv_clint0_enable():
C:/wsFreedomStudio/kernel/freedom-metal/src/drivers/riscv_clint0.c:151
20403d3a:	7139                	addi	sp,sp,-64
20403d3c:	de06                	sw	ra,60(sp)
20403d3e:	dc22                	sw	s0,56(sp)
20403d40:	0080                	addi	s0,sp,64
20403d42:	fca42623          	sw	a0,-52(s0)
20403d46:	fcb42423          	sw	a1,-56(s0)
C:/wsFreedomStudio/kernel/freedom-metal/src/drivers/riscv_clint0.c:152
20403d4a:	57fd                	li	a5,-1
20403d4c:	fef42623          	sw	a5,-20(s0)
C:/wsFreedomStudio/kernel/freedom-metal/src/drivers/riscv_clint0.c:154
20403d50:	fc842783          	lw	a5,-56(s0)
20403d54:	c7d9                	beqz	a5,20403de2 <__metal_driver_riscv_clint0_enable+0xa8>
C:/wsFreedomStudio/kernel/freedom-metal/src/drivers/riscv_clint0.c:155
20403d56:	fe042423          	sw	zero,-24(s0)
C:/wsFreedomStudio/kernel/freedom-metal/src/drivers/riscv_clint0.c:156
20403d5a:	3375                	jal	20403b06 <_get_cpu_intc>
20403d5c:	fea42023          	sw	a0,-32(s0)
C:/wsFreedomStudio/kernel/freedom-metal/src/drivers/riscv_clint0.c:158
20403d60:	fcc42503          	lw	a0,-52(s0)
20403d64:	bdfff0ef          	jal	ra,20403942 <__metal_driver_sifive_clint0_num_interrupts>
20403d68:	fca42e23          	sw	a0,-36(s0)
C:/wsFreedomStudio/kernel/freedom-metal/src/drivers/riscv_clint0.c:160
20403d6c:	fe042223          	sw	zero,-28(s0)
20403d70:	a099                	j	20403db6 <__metal_driver_riscv_clint0_enable+0x7c>
C:/wsFreedomStudio/kernel/freedom-metal/src/drivers/riscv_clint0.c:162
20403d72:	fe442583          	lw	a1,-28(s0)
20403d76:	fcc42503          	lw	a0,-52(s0)
20403d7a:	3135                	jal	204039a6 <__metal_driver_sifive_clint0_interrupt_lines>
20403d7c:	fca42c23          	sw	a0,-40(s0)
C:/wsFreedomStudio/kernel/freedom-metal/src/drivers/riscv_clint0.c:164
20403d80:	fe442583          	lw	a1,-28(s0)
20403d84:	fcc42503          	lw	a0,-52(s0)
20403d88:	be3ff0ef          	jal	ra,2040396a <__metal_driver_sifive_clint0_interrupt_parents>
20403d8c:	fea42423          	sw	a0,-24(s0)
C:/wsFreedomStudio/kernel/freedom-metal/src/drivers/riscv_clint0.c:165
20403d90:	fe042703          	lw	a4,-32(s0)
20403d94:	fe842783          	lw	a5,-24(s0)
20403d98:	00f71863          	bne	a4,a5,20403da8 <__metal_driver_riscv_clint0_enable+0x6e>
C:/wsFreedomStudio/kernel/freedom-metal/src/drivers/riscv_clint0.c:165 (discriminator 1)
20403d9c:	fc842703          	lw	a4,-56(s0)
20403da0:	fd842783          	lw	a5,-40(s0)
20403da4:	02f70063          	beq	a4,a5,20403dc4 <__metal_driver_riscv_clint0_enable+0x8a>
C:/wsFreedomStudio/kernel/freedom-metal/src/drivers/riscv_clint0.c:168 (discriminator 2)
20403da8:	fe042423          	sw	zero,-24(s0)
C:/wsFreedomStudio/kernel/freedom-metal/src/drivers/riscv_clint0.c:160 (discriminator 2)
20403dac:	fe442783          	lw	a5,-28(s0)
20403db0:	0785                	addi	a5,a5,1
20403db2:	fef42223          	sw	a5,-28(s0)
C:/wsFreedomStudio/kernel/freedom-metal/src/drivers/riscv_clint0.c:160 (discriminator 1)
20403db6:	fe442703          	lw	a4,-28(s0)
20403dba:	fdc42783          	lw	a5,-36(s0)
20403dbe:	faf74ae3          	blt	a4,a5,20403d72 <__metal_driver_riscv_clint0_enable+0x38>
20403dc2:	a011                	j	20403dc6 <__metal_driver_riscv_clint0_enable+0x8c>
C:/wsFreedomStudio/kernel/freedom-metal/src/drivers/riscv_clint0.c:166
20403dc4:	0001                	nop
C:/wsFreedomStudio/kernel/freedom-metal/src/drivers/riscv_clint0.c:172
20403dc6:	fe842783          	lw	a5,-24(s0)
20403dca:	cf81                	beqz	a5,20403de2 <__metal_driver_riscv_clint0_enable+0xa8>
C:/wsFreedomStudio/kernel/freedom-metal/src/drivers/riscv_clint0.c:173
20403dcc:	fe842783          	lw	a5,-24(s0)
20403dd0:	439c                	lw	a5,0(a5)
20403dd2:	53dc                	lw	a5,36(a5)
20403dd4:	fc842583          	lw	a1,-56(s0)
20403dd8:	fe842503          	lw	a0,-24(s0)
20403ddc:	9782                	jalr	a5
20403dde:	fea42623          	sw	a0,-20(s0)
C:/wsFreedomStudio/kernel/freedom-metal/src/drivers/riscv_clint0.c:177
20403de2:	fec42783          	lw	a5,-20(s0)
C:/wsFreedomStudio/kernel/freedom-metal/src/drivers/riscv_clint0.c:178
20403de6:	853e                	mv	a0,a5
20403de8:	50f2                	lw	ra,60(sp)
20403dea:	5462                	lw	s0,56(sp)
20403dec:	6121                	addi	sp,sp,64
20403dee:	8082                	ret

20403df0 <__metal_driver_riscv_clint0_disable>:
__metal_driver_riscv_clint0_disable():
C:/wsFreedomStudio/kernel/freedom-metal/src/drivers/riscv_clint0.c:181
20403df0:	7139                	addi	sp,sp,-64
20403df2:	de06                	sw	ra,60(sp)
20403df4:	dc22                	sw	s0,56(sp)
20403df6:	0080                	addi	s0,sp,64
20403df8:	fca42623          	sw	a0,-52(s0)
20403dfc:	fcb42423          	sw	a1,-56(s0)
C:/wsFreedomStudio/kernel/freedom-metal/src/drivers/riscv_clint0.c:182
20403e00:	57fd                	li	a5,-1
20403e02:	fef42623          	sw	a5,-20(s0)
C:/wsFreedomStudio/kernel/freedom-metal/src/drivers/riscv_clint0.c:184
20403e06:	fc842783          	lw	a5,-56(s0)
20403e0a:	cbc1                	beqz	a5,20403e9a <__metal_driver_riscv_clint0_disable+0xaa>
C:/wsFreedomStudio/kernel/freedom-metal/src/drivers/riscv_clint0.c:185
20403e0c:	fe042423          	sw	zero,-24(s0)
C:/wsFreedomStudio/kernel/freedom-metal/src/drivers/riscv_clint0.c:186
20403e10:	39dd                	jal	20403b06 <_get_cpu_intc>
20403e12:	fea42023          	sw	a0,-32(s0)
C:/wsFreedomStudio/kernel/freedom-metal/src/drivers/riscv_clint0.c:188
20403e16:	fcc42503          	lw	a0,-52(s0)
20403e1a:	b29ff0ef          	jal	ra,20403942 <__metal_driver_sifive_clint0_num_interrupts>
20403e1e:	fca42e23          	sw	a0,-36(s0)
C:/wsFreedomStudio/kernel/freedom-metal/src/drivers/riscv_clint0.c:190
20403e22:	fe042223          	sw	zero,-28(s0)
20403e26:	a0a1                	j	20403e6e <__metal_driver_riscv_clint0_disable+0x7e>
C:/wsFreedomStudio/kernel/freedom-metal/src/drivers/riscv_clint0.c:192
20403e28:	fe442583          	lw	a1,-28(s0)
20403e2c:	fcc42503          	lw	a0,-52(s0)
20403e30:	b77ff0ef          	jal	ra,204039a6 <__metal_driver_sifive_clint0_interrupt_lines>
20403e34:	fca42c23          	sw	a0,-40(s0)
C:/wsFreedomStudio/kernel/freedom-metal/src/drivers/riscv_clint0.c:194
20403e38:	fe442583          	lw	a1,-28(s0)
20403e3c:	fcc42503          	lw	a0,-52(s0)
20403e40:	b2bff0ef          	jal	ra,2040396a <__metal_driver_sifive_clint0_interrupt_parents>
20403e44:	fea42423          	sw	a0,-24(s0)
C:/wsFreedomStudio/kernel/freedom-metal/src/drivers/riscv_clint0.c:195
20403e48:	fe042703          	lw	a4,-32(s0)
20403e4c:	fe842783          	lw	a5,-24(s0)
20403e50:	00f71863          	bne	a4,a5,20403e60 <__metal_driver_riscv_clint0_disable+0x70>
C:/wsFreedomStudio/kernel/freedom-metal/src/drivers/riscv_clint0.c:195 (discriminator 1)
20403e54:	fc842703          	lw	a4,-56(s0)
20403e58:	fd842783          	lw	a5,-40(s0)
20403e5c:	02f70063          	beq	a4,a5,20403e7c <__metal_driver_riscv_clint0_disable+0x8c>
C:/wsFreedomStudio/kernel/freedom-metal/src/drivers/riscv_clint0.c:198 (discriminator 2)
20403e60:	fe042423          	sw	zero,-24(s0)
C:/wsFreedomStudio/kernel/freedom-metal/src/drivers/riscv_clint0.c:190 (discriminator 2)
20403e64:	fe442783          	lw	a5,-28(s0)
20403e68:	0785                	addi	a5,a5,1
20403e6a:	fef42223          	sw	a5,-28(s0)
C:/wsFreedomStudio/kernel/freedom-metal/src/drivers/riscv_clint0.c:190 (discriminator 1)
20403e6e:	fe442703          	lw	a4,-28(s0)
20403e72:	fdc42783          	lw	a5,-36(s0)
20403e76:	faf749e3          	blt	a4,a5,20403e28 <__metal_driver_riscv_clint0_disable+0x38>
20403e7a:	a011                	j	20403e7e <__metal_driver_riscv_clint0_disable+0x8e>
C:/wsFreedomStudio/kernel/freedom-metal/src/drivers/riscv_clint0.c:196
20403e7c:	0001                	nop
C:/wsFreedomStudio/kernel/freedom-metal/src/drivers/riscv_clint0.c:202
20403e7e:	fe842783          	lw	a5,-24(s0)
20403e82:	cf81                	beqz	a5,20403e9a <__metal_driver_riscv_clint0_disable+0xaa>
C:/wsFreedomStudio/kernel/freedom-metal/src/drivers/riscv_clint0.c:203
20403e84:	fe842783          	lw	a5,-24(s0)
20403e88:	439c                	lw	a5,0(a5)
20403e8a:	579c                	lw	a5,40(a5)
20403e8c:	fc842583          	lw	a1,-56(s0)
20403e90:	fe842503          	lw	a0,-24(s0)
20403e94:	9782                	jalr	a5
20403e96:	fea42623          	sw	a0,-20(s0)
C:/wsFreedomStudio/kernel/freedom-metal/src/drivers/riscv_clint0.c:207
20403e9a:	fec42783          	lw	a5,-20(s0)
C:/wsFreedomStudio/kernel/freedom-metal/src/drivers/riscv_clint0.c:208
20403e9e:	853e                	mv	a0,a5
20403ea0:	50f2                	lw	ra,60(sp)
20403ea2:	5462                	lw	s0,56(sp)
20403ea4:	6121                	addi	sp,sp,64
20403ea6:	8082                	ret

20403ea8 <__metal_driver_riscv_clint0_command_request>:
__metal_driver_riscv_clint0_command_request():
C:/wsFreedomStudio/kernel/freedom-metal/src/drivers/riscv_clint0.c:211
20403ea8:	7179                	addi	sp,sp,-48
20403eaa:	d606                	sw	ra,44(sp)
20403eac:	d422                	sw	s0,40(sp)
20403eae:	1800                	addi	s0,sp,48
20403eb0:	fca42e23          	sw	a0,-36(s0)
20403eb4:	fcb42c23          	sw	a1,-40(s0)
20403eb8:	fcc42a23          	sw	a2,-44(s0)
C:/wsFreedomStudio/kernel/freedom-metal/src/drivers/riscv_clint0.c:213
20403ebc:	57fd                	li	a5,-1
20403ebe:	fef42623          	sw	a5,-20(s0)
C:/wsFreedomStudio/kernel/freedom-metal/src/drivers/riscv_clint0.c:214
20403ec2:	fdc42783          	lw	a5,-36(s0)
20403ec6:	fef42423          	sw	a5,-24(s0)
C:/wsFreedomStudio/kernel/freedom-metal/src/drivers/riscv_clint0.c:217
20403eca:	fdc42503          	lw	a0,-36(s0)
20403ece:	a4bff0ef          	jal	ra,20403918 <__metal_driver_sifive_clint0_control_base>
20403ed2:	fea42223          	sw	a0,-28(s0)
C:/wsFreedomStudio/kernel/freedom-metal/src/drivers/riscv_clint0.c:219
20403ed6:	fd842703          	lw	a4,-40(s0)
20403eda:	4791                	li	a5,4
20403edc:	0cf70163          	beq	a4,a5,20403f9e <__metal_driver_riscv_clint0_command_request+0xf6>
20403ee0:	fd842703          	lw	a4,-40(s0)
20403ee4:	4791                	li	a5,4
20403ee6:	0ee7c163          	blt	a5,a4,20403fc8 <__metal_driver_riscv_clint0_command_request+0x120>
20403eea:	fd842703          	lw	a4,-40(s0)
20403eee:	478d                	li	a5,3
20403ef0:	06f70663          	beq	a4,a5,20403f5c <__metal_driver_riscv_clint0_command_request+0xb4>
20403ef4:	fd842703          	lw	a4,-40(s0)
20403ef8:	478d                	li	a5,3
20403efa:	0ce7c763          	blt	a5,a4,20403fc8 <__metal_driver_riscv_clint0_command_request+0x120>
20403efe:	fd842703          	lw	a4,-40(s0)
20403f02:	4785                	li	a5,1
20403f04:	00f70863          	beq	a4,a5,20403f14 <__metal_driver_riscv_clint0_command_request+0x6c>
20403f08:	fd842703          	lw	a4,-40(s0)
20403f0c:	4789                	li	a5,2
20403f0e:	02f70363          	beq	a4,a5,20403f34 <__metal_driver_riscv_clint0_command_request+0x8c>
C:/wsFreedomStudio/kernel/freedom-metal/src/drivers/riscv_clint0.c:263
20403f12:	a85d                	j	20403fc8 <__metal_driver_riscv_clint0_command_request+0x120>
C:/wsFreedomStudio/kernel/freedom-metal/src/drivers/riscv_clint0.c:221
20403f14:	fd442783          	lw	a5,-44(s0)
20403f18:	cbd5                	beqz	a5,20403fcc <__metal_driver_riscv_clint0_command_request+0x124>
C:/wsFreedomStudio/kernel/freedom-metal/src/drivers/riscv_clint0.c:222
20403f1a:	fe842503          	lw	a0,-24(s0)
20403f1e:	ab9ff0ef          	jal	ra,204039d6 <__metal_clint0_mtime_get>
20403f22:	872a                	mv	a4,a0
20403f24:	87ae                	mv	a5,a1
20403f26:	fd442683          	lw	a3,-44(s0)
20403f2a:	c298                	sw	a4,0(a3)
20403f2c:	c2dc                	sw	a5,4(a3)
C:/wsFreedomStudio/kernel/freedom-metal/src/drivers/riscv_clint0.c:223
20403f2e:	fe042623          	sw	zero,-20(s0)
C:/wsFreedomStudio/kernel/freedom-metal/src/drivers/riscv_clint0.c:225
20403f32:	a869                	j	20403fcc <__metal_driver_riscv_clint0_command_request+0x124>
C:/wsFreedomStudio/kernel/freedom-metal/src/drivers/riscv_clint0.c:227
20403f34:	fd442783          	lw	a5,-44(s0)
20403f38:	cfc1                	beqz	a5,20403fd0 <__metal_driver_riscv_clint0_command_request+0x128>
C:/wsFreedomStudio/kernel/freedom-metal/src/drivers/riscv_clint0.c:228
20403f3a:	fd442783          	lw	a5,-44(s0)
20403f3e:	439c                	lw	a5,0(a5)
20403f40:	fef42023          	sw	a5,-32(s0)
C:/wsFreedomStudio/kernel/freedom-metal/src/drivers/riscv_clint0.c:229
20403f44:	fe042783          	lw	a5,-32(s0)
20403f48:	078a                	slli	a5,a5,0x2
20403f4a:	873e                	mv	a4,a5
20403f4c:	fe442783          	lw	a5,-28(s0)
20403f50:	97ba                	add	a5,a5,a4
C:/wsFreedomStudio/kernel/freedom-metal/src/drivers/riscv_clint0.c:230
20403f52:	0007a023          	sw	zero,0(a5) # 4000 <__heap_size+0x3800>
C:/wsFreedomStudio/kernel/freedom-metal/src/drivers/riscv_clint0.c:231
20403f56:	fe042623          	sw	zero,-20(s0)
C:/wsFreedomStudio/kernel/freedom-metal/src/drivers/riscv_clint0.c:233
20403f5a:	a89d                	j	20403fd0 <__metal_driver_riscv_clint0_command_request+0x128>
C:/wsFreedomStudio/kernel/freedom-metal/src/drivers/riscv_clint0.c:235
20403f5c:	fd442783          	lw	a5,-44(s0)
20403f60:	cbb5                	beqz	a5,20403fd4 <__metal_driver_riscv_clint0_command_request+0x12c>
C:/wsFreedomStudio/kernel/freedom-metal/src/drivers/riscv_clint0.c:236
20403f62:	fd442783          	lw	a5,-44(s0)
20403f66:	439c                	lw	a5,0(a5)
20403f68:	fef42023          	sw	a5,-32(s0)
C:/wsFreedomStudio/kernel/freedom-metal/src/drivers/riscv_clint0.c:237
20403f6c:	fe042783          	lw	a5,-32(s0)
20403f70:	078a                	slli	a5,a5,0x2
20403f72:	873e                	mv	a4,a5
20403f74:	fe442783          	lw	a5,-28(s0)
20403f78:	97ba                	add	a5,a5,a4
20403f7a:	873e                	mv	a4,a5
C:/wsFreedomStudio/kernel/freedom-metal/src/drivers/riscv_clint0.c:238
20403f7c:	4785                	li	a5,1
20403f7e:	c31c                	sw	a5,0(a4)
C:/wsFreedomStudio/kernel/freedom-metal/src/drivers/riscv_clint0.c:248
20403f80:	0480000f          	fence	o,i
C:/wsFreedomStudio/kernel/freedom-metal/src/drivers/riscv_clint0.c:249
20403f84:	fe042783          	lw	a5,-32(s0)
20403f88:	078a                	slli	a5,a5,0x2
20403f8a:	873e                	mv	a4,a5
20403f8c:	fe442783          	lw	a5,-28(s0)
20403f90:	97ba                	add	a5,a5,a4
20403f92:	439c                	lw	a5,0(a5)
20403f94:	fef42623          	sw	a5,-20(s0)
C:/wsFreedomStudio/kernel/freedom-metal/src/drivers/riscv_clint0.c:251
20403f98:	fe042623          	sw	zero,-20(s0)
C:/wsFreedomStudio/kernel/freedom-metal/src/drivers/riscv_clint0.c:253
20403f9c:	a825                	j	20403fd4 <__metal_driver_riscv_clint0_command_request+0x12c>
C:/wsFreedomStudio/kernel/freedom-metal/src/drivers/riscv_clint0.c:255
20403f9e:	fe042623          	sw	zero,-20(s0)
C:/wsFreedomStudio/kernel/freedom-metal/src/drivers/riscv_clint0.c:256
20403fa2:	fd442783          	lw	a5,-44(s0)
20403fa6:	cb8d                	beqz	a5,20403fd8 <__metal_driver_riscv_clint0_command_request+0x130>
C:/wsFreedomStudio/kernel/freedom-metal/src/drivers/riscv_clint0.c:257
20403fa8:	fd442783          	lw	a5,-44(s0)
20403fac:	439c                	lw	a5,0(a5)
20403fae:	fef42023          	sw	a5,-32(s0)
C:/wsFreedomStudio/kernel/freedom-metal/src/drivers/riscv_clint0.c:258
20403fb2:	fe042783          	lw	a5,-32(s0)
20403fb6:	078a                	slli	a5,a5,0x2
20403fb8:	873e                	mv	a4,a5
20403fba:	fe442783          	lw	a5,-28(s0)
20403fbe:	97ba                	add	a5,a5,a4
20403fc0:	439c                	lw	a5,0(a5)
20403fc2:	fef42623          	sw	a5,-20(s0)
C:/wsFreedomStudio/kernel/freedom-metal/src/drivers/riscv_clint0.c:261
20403fc6:	a809                	j	20403fd8 <__metal_driver_riscv_clint0_command_request+0x130>
C:/wsFreedomStudio/kernel/freedom-metal/src/drivers/riscv_clint0.c:263
20403fc8:	0001                	nop
20403fca:	a801                	j	20403fda <__metal_driver_riscv_clint0_command_request+0x132>
C:/wsFreedomStudio/kernel/freedom-metal/src/drivers/riscv_clint0.c:225
20403fcc:	0001                	nop
20403fce:	a031                	j	20403fda <__metal_driver_riscv_clint0_command_request+0x132>
C:/wsFreedomStudio/kernel/freedom-metal/src/drivers/riscv_clint0.c:233
20403fd0:	0001                	nop
20403fd2:	a021                	j	20403fda <__metal_driver_riscv_clint0_command_request+0x132>
C:/wsFreedomStudio/kernel/freedom-metal/src/drivers/riscv_clint0.c:253
20403fd4:	0001                	nop
20403fd6:	a011                	j	20403fda <__metal_driver_riscv_clint0_command_request+0x132>
C:/wsFreedomStudio/kernel/freedom-metal/src/drivers/riscv_clint0.c:261
20403fd8:	0001                	nop
C:/wsFreedomStudio/kernel/freedom-metal/src/drivers/riscv_clint0.c:266
20403fda:	fec42783          	lw	a5,-20(s0)
C:/wsFreedomStudio/kernel/freedom-metal/src/drivers/riscv_clint0.c:267
20403fde:	853e                	mv	a0,a5
20403fe0:	50b2                	lw	ra,44(sp)
20403fe2:	5422                	lw	s0,40(sp)
20403fe4:	6145                	addi	sp,sp,48
20403fe6:	8082                	ret

20403fe8 <__metal_driver_riscv_clint0_clear_interrupt>:
__metal_driver_riscv_clint0_clear_interrupt():
C:/wsFreedomStudio/kernel/freedom-metal/src/drivers/riscv_clint0.c:270
20403fe8:	7179                	addi	sp,sp,-48
20403fea:	d606                	sw	ra,44(sp)
20403fec:	d422                	sw	s0,40(sp)
20403fee:	1800                	addi	s0,sp,48
20403ff0:	fca42e23          	sw	a0,-36(s0)
20403ff4:	fcb42c23          	sw	a1,-40(s0)
C:/wsFreedomStudio/kernel/freedom-metal/src/drivers/riscv_clint0.c:271
20403ff8:	eb8ff0ef          	jal	ra,204036b0 <metal_cpu_get_current_hartid>
20403ffc:	87aa                	mv	a5,a0
20403ffe:	fef42623          	sw	a5,-20(s0)
C:/wsFreedomStudio/kernel/freedom-metal/src/drivers/riscv_clint0.c:272
20404002:	fec40793          	addi	a5,s0,-20
20404006:	863e                	mv	a2,a5
20404008:	4589                	li	a1,2
2040400a:	fdc42503          	lw	a0,-36(s0)
2040400e:	3d69                	jal	20403ea8 <__metal_driver_riscv_clint0_command_request>
20404010:	87aa                	mv	a5,a0
C:/wsFreedomStudio/kernel/freedom-metal/src/drivers/riscv_clint0.c:274
20404012:	853e                	mv	a0,a5
20404014:	50b2                	lw	ra,44(sp)
20404016:	5422                	lw	s0,40(sp)
20404018:	6145                	addi	sp,sp,48
2040401a:	8082                	ret

2040401c <__metal_driver_riscv_clint0_set_interrupt>:
__metal_driver_riscv_clint0_set_interrupt():
C:/wsFreedomStudio/kernel/freedom-metal/src/drivers/riscv_clint0.c:277
2040401c:	7179                	addi	sp,sp,-48
2040401e:	d606                	sw	ra,44(sp)
20404020:	d422                	sw	s0,40(sp)
20404022:	1800                	addi	s0,sp,48
20404024:	fca42e23          	sw	a0,-36(s0)
20404028:	fcb42c23          	sw	a1,-40(s0)
C:/wsFreedomStudio/kernel/freedom-metal/src/drivers/riscv_clint0.c:278
2040402c:	e84ff0ef          	jal	ra,204036b0 <metal_cpu_get_current_hartid>
20404030:	87aa                	mv	a5,a0
20404032:	fef42623          	sw	a5,-20(s0)
C:/wsFreedomStudio/kernel/freedom-metal/src/drivers/riscv_clint0.c:279
20404036:	fec40793          	addi	a5,s0,-20
2040403a:	863e                	mv	a2,a5
2040403c:	458d                	li	a1,3
2040403e:	fdc42503          	lw	a0,-36(s0)
20404042:	359d                	jal	20403ea8 <__metal_driver_riscv_clint0_command_request>
20404044:	87aa                	mv	a5,a0
C:/wsFreedomStudio/kernel/freedom-metal/src/drivers/riscv_clint0.c:281
20404046:	853e                	mv	a0,a5
20404048:	50b2                	lw	ra,44(sp)
2040404a:	5422                	lw	s0,40(sp)
2040404c:	6145                	addi	sp,sp,48
2040404e:	8082                	ret

20404050 <__metal_driver_cpu_hartid>:
__metal_driver_cpu_hartid():
C:\wsFreedomStudio\kernel\bsp\build\debug/./metal/machine.h:261
20404050:	1101                	addi	sp,sp,-32
20404052:	ce22                	sw	s0,28(sp)
20404054:	1000                	addi	s0,sp,32
20404056:	fea42623          	sw	a0,-20(s0)
C:\wsFreedomStudio\kernel\bsp\build\debug/./metal/machine.h:262
2040405a:	fec42703          	lw	a4,-20(s0)
2040405e:	81418793          	addi	a5,gp,-2028 # 800007b4 <__metal_dt_cpu_0>
20404062:	00f71463          	bne	a4,a5,2040406a <__metal_driver_cpu_hartid+0x1a>
C:\wsFreedomStudio\kernel\bsp\build\debug/./metal/machine.h:263
20404066:	4781                	li	a5,0
20404068:	a011                	j	2040406c <__metal_driver_cpu_hartid+0x1c>
C:\wsFreedomStudio\kernel\bsp\build\debug/./metal/machine.h:266
2040406a:	57fd                	li	a5,-1
C:\wsFreedomStudio\kernel\bsp\build\debug/./metal/machine.h:268
2040406c:	853e                	mv	a0,a5
2040406e:	4472                	lw	s0,28(sp)
20404070:	6105                	addi	sp,sp,32
20404072:	8082                	ret

20404074 <__metal_driver_cpu_timebase>:
__metal_driver_cpu_timebase():
C:\wsFreedomStudio\kernel\bsp\build\debug/./metal/machine.h:271
20404074:	1101                	addi	sp,sp,-32
20404076:	ce22                	sw	s0,28(sp)
20404078:	1000                	addi	s0,sp,32
2040407a:	fea42623          	sw	a0,-20(s0)
C:\wsFreedomStudio\kernel\bsp\build\debug/./metal/machine.h:272
2040407e:	fec42703          	lw	a4,-20(s0)
20404082:	81418793          	addi	a5,gp,-2028 # 800007b4 <__metal_dt_cpu_0>
20404086:	00f71763          	bne	a4,a5,20404094 <__metal_driver_cpu_timebase+0x20>
C:\wsFreedomStudio\kernel\bsp\build\debug/./metal/machine.h:273
2040408a:	000f47b7          	lui	a5,0xf4
2040408e:	24078793          	addi	a5,a5,576 # f4240 <__heap_size+0xf3a40>
20404092:	a011                	j	20404096 <__metal_driver_cpu_timebase+0x22>
C:\wsFreedomStudio\kernel\bsp\build\debug/./metal/machine.h:276
20404094:	4781                	li	a5,0
C:\wsFreedomStudio\kernel\bsp\build\debug/./metal/machine.h:278
20404096:	853e                	mv	a0,a5
20404098:	4472                	lw	s0,28(sp)
2040409a:	6105                	addi	sp,sp,32
2040409c:	8082                	ret

2040409e <__metal_driver_cpu_interrupt_controller>:
__metal_driver_cpu_interrupt_controller():
C:\wsFreedomStudio\kernel\bsp\build\debug/./metal/machine.h:281
2040409e:	1101                	addi	sp,sp,-32
204040a0:	ce22                	sw	s0,28(sp)
204040a2:	1000                	addi	s0,sp,32
204040a4:	fea42623          	sw	a0,-20(s0)
C:\wsFreedomStudio\kernel\bsp\build\debug/./metal/machine.h:282
204040a8:	fec42703          	lw	a4,-20(s0)
204040ac:	81418793          	addi	a5,gp,-2028 # 800007b4 <__metal_dt_cpu_0>
204040b0:	00f71763          	bne	a4,a5,204040be <__metal_driver_cpu_interrupt_controller+0x20>
C:\wsFreedomStudio\kernel\bsp\build\debug/./metal/machine.h:283
204040b4:	800007b7          	lui	a5,0x80000
204040b8:	08878793          	addi	a5,a5,136 # 80000088 <metal_segment_heap_target_end+0xffffe5b8>
204040bc:	a011                	j	204040c0 <__metal_driver_cpu_interrupt_controller+0x22>
C:\wsFreedomStudio\kernel\bsp\build\debug/./metal/machine.h:286
204040be:	4781                	li	a5,0
C:\wsFreedomStudio\kernel\bsp\build\debug/./metal/machine.h:288
204040c0:	853e                	mv	a0,a5
204040c2:	4472                	lw	s0,28(sp)
204040c4:	6105                	addi	sp,sp,32
204040c6:	8082                	ret

204040c8 <__metal_driver_cpu_buserror>:
__metal_driver_cpu_buserror():
C:\wsFreedomStudio\kernel\bsp\build\debug/./metal/machine.h:301
204040c8:	1101                	addi	sp,sp,-32
204040ca:	ce22                	sw	s0,28(sp)
204040cc:	1000                	addi	s0,sp,32
204040ce:	fea42623          	sw	a0,-20(s0)
C:\wsFreedomStudio\kernel\bsp\build\debug/./metal/machine.h:302
204040d2:	fec42703          	lw	a4,-20(s0)
204040d6:	81418793          	addi	a5,gp,-2028 # 800007b4 <__metal_dt_cpu_0>
204040da:	00f71463          	bne	a4,a5,204040e2 <__metal_driver_cpu_buserror+0x1a>
C:\wsFreedomStudio\kernel\bsp\build\debug/./metal/machine.h:303
204040de:	4781                	li	a5,0
204040e0:	a011                	j	204040e4 <__metal_driver_cpu_buserror+0x1c>
C:\wsFreedomStudio\kernel\bsp\build\debug/./metal/machine.h:306
204040e2:	4781                	li	a5,0
C:\wsFreedomStudio\kernel\bsp\build\debug/./metal/machine.h:308
204040e4:	853e                	mv	a0,a5
204040e6:	4472                	lw	s0,28(sp)
204040e8:	6105                	addi	sp,sp,32
204040ea:	8082                	ret

204040ec <__metal_driver_cpu_get>:
__metal_driver_cpu_get():
C:/wsFreedomStudio/kernel/freedom-metal/src/drivers/riscv_cpu.c:25
204040ec:	1101                	addi	sp,sp,-32
204040ee:	ce22                	sw	s0,28(sp)
204040f0:	1000                	addi	s0,sp,32
204040f2:	fea42623          	sw	a0,-20(s0)
C:/wsFreedomStudio/kernel/freedom-metal/src/drivers/riscv_cpu.c:26
204040f6:	fec42783          	lw	a5,-20(s0)
204040fa:	00f04c63          	bgtz	a5,20404112 <__metal_driver_cpu_get+0x26>
C:/wsFreedomStudio/kernel/freedom-metal/src/drivers/riscv_cpu.c:27
204040fe:	800007b7          	lui	a5,0x80000
20404102:	fec42703          	lw	a4,-20(s0)
20404106:	070a                	slli	a4,a4,0x2
20404108:	7a878793          	addi	a5,a5,1960 # 800007a8 <metal_segment_heap_target_end+0xffffecd8>
2040410c:	97ba                	add	a5,a5,a4
2040410e:	439c                	lw	a5,0(a5)
20404110:	a011                	j	20404114 <__metal_driver_cpu_get+0x28>
C:/wsFreedomStudio/kernel/freedom-metal/src/drivers/riscv_cpu.c:29
20404112:	4781                	li	a5,0
C:/wsFreedomStudio/kernel/freedom-metal/src/drivers/riscv_cpu.c:30
20404114:	853e                	mv	a0,a5
20404116:	4472                	lw	s0,28(sp)
20404118:	6105                	addi	sp,sp,32
2040411a:	8082                	ret

2040411c <__metal_myhart_id>:
__metal_myhart_id():
C:/wsFreedomStudio/kernel/freedom-metal/src/drivers/riscv_cpu.c:32
2040411c:	1101                	addi	sp,sp,-32
2040411e:	ce22                	sw	s0,28(sp)
20404120:	1000                	addi	s0,sp,32
C:/wsFreedomStudio/kernel/freedom-metal/src/drivers/riscv_cpu.c:34
20404122:	f14027f3          	csrr	a5,mhartid
20404126:	fef42623          	sw	a5,-20(s0)
C:/wsFreedomStudio/kernel/freedom-metal/src/drivers/riscv_cpu.c:35
2040412a:	fec42783          	lw	a5,-20(s0)
C:/wsFreedomStudio/kernel/freedom-metal/src/drivers/riscv_cpu.c:36
2040412e:	853e                	mv	a0,a5
20404130:	4472                	lw	s0,28(sp)
20404132:	6105                	addi	sp,sp,32
20404134:	8082                	ret

20404136 <__metal_interrupt_global_enable>:
__metal_interrupt_global_enable():
C:/wsFreedomStudio/kernel/freedom-metal/src/drivers/riscv_cpu.c:45
20404136:	1101                	addi	sp,sp,-32
20404138:	ce22                	sw	s0,28(sp)
2040413a:	1000                	addi	s0,sp,32
C:/wsFreedomStudio/kernel/freedom-metal/src/drivers/riscv_cpu.c:47
2040413c:	47a1                	li	a5,8
2040413e:	3007a7f3          	csrrs	a5,mstatus,a5
20404142:	fef42623          	sw	a5,-20(s0)
C:/wsFreedomStudio/kernel/freedom-metal/src/drivers/riscv_cpu.c:50
20404146:	0001                	nop
20404148:	4472                	lw	s0,28(sp)
2040414a:	6105                	addi	sp,sp,32
2040414c:	8082                	ret

2040414e <__metal_interrupt_global_disable>:
__metal_interrupt_global_disable():
C:/wsFreedomStudio/kernel/freedom-metal/src/drivers/riscv_cpu.c:52
2040414e:	1101                	addi	sp,sp,-32
20404150:	ce22                	sw	s0,28(sp)
20404152:	1000                	addi	s0,sp,32
C:/wsFreedomStudio/kernel/freedom-metal/src/drivers/riscv_cpu.c:54
20404154:	47a1                	li	a5,8
20404156:	3007b7f3          	csrrc	a5,mstatus,a5
2040415a:	fef42623          	sw	a5,-20(s0)
C:/wsFreedomStudio/kernel/freedom-metal/src/drivers/riscv_cpu.c:57
2040415e:	0001                	nop
20404160:	4472                	lw	s0,28(sp)
20404162:	6105                	addi	sp,sp,32
20404164:	8082                	ret

20404166 <__metal_interrupt_software_enable>:
__metal_interrupt_software_enable():
C:/wsFreedomStudio/kernel/freedom-metal/src/drivers/riscv_cpu.c:59
20404166:	1101                	addi	sp,sp,-32
20404168:	ce22                	sw	s0,28(sp)
2040416a:	1000                	addi	s0,sp,32
C:/wsFreedomStudio/kernel/freedom-metal/src/drivers/riscv_cpu.c:61
2040416c:	47a1                	li	a5,8
2040416e:	3047a7f3          	csrrs	a5,mie,a5
20404172:	fef42623          	sw	a5,-20(s0)
C:/wsFreedomStudio/kernel/freedom-metal/src/drivers/riscv_cpu.c:64
20404176:	0001                	nop
20404178:	4472                	lw	s0,28(sp)
2040417a:	6105                	addi	sp,sp,32
2040417c:	8082                	ret

2040417e <__metal_interrupt_software_disable>:
__metal_interrupt_software_disable():
C:/wsFreedomStudio/kernel/freedom-metal/src/drivers/riscv_cpu.c:66
2040417e:	1101                	addi	sp,sp,-32
20404180:	ce22                	sw	s0,28(sp)
20404182:	1000                	addi	s0,sp,32
C:/wsFreedomStudio/kernel/freedom-metal/src/drivers/riscv_cpu.c:68
20404184:	47a1                	li	a5,8
20404186:	3047b7f3          	csrrc	a5,mie,a5
2040418a:	fef42623          	sw	a5,-20(s0)
C:/wsFreedomStudio/kernel/freedom-metal/src/drivers/riscv_cpu.c:71
2040418e:	0001                	nop
20404190:	4472                	lw	s0,28(sp)
20404192:	6105                	addi	sp,sp,32
20404194:	8082                	ret

20404196 <__metal_interrupt_timer_enable>:
__metal_interrupt_timer_enable():
C:/wsFreedomStudio/kernel/freedom-metal/src/drivers/riscv_cpu.c:73
20404196:	1101                	addi	sp,sp,-32
20404198:	ce22                	sw	s0,28(sp)
2040419a:	1000                	addi	s0,sp,32
C:/wsFreedomStudio/kernel/freedom-metal/src/drivers/riscv_cpu.c:75
2040419c:	08000793          	li	a5,128
204041a0:	3047a7f3          	csrrs	a5,mie,a5
204041a4:	fef42623          	sw	a5,-20(s0)
C:/wsFreedomStudio/kernel/freedom-metal/src/drivers/riscv_cpu.c:78
204041a8:	0001                	nop
204041aa:	4472                	lw	s0,28(sp)
204041ac:	6105                	addi	sp,sp,32
204041ae:	8082                	ret

204041b0 <__metal_interrupt_timer_disable>:
__metal_interrupt_timer_disable():
C:/wsFreedomStudio/kernel/freedom-metal/src/drivers/riscv_cpu.c:80
204041b0:	1101                	addi	sp,sp,-32
204041b2:	ce22                	sw	s0,28(sp)
204041b4:	1000                	addi	s0,sp,32
C:/wsFreedomStudio/kernel/freedom-metal/src/drivers/riscv_cpu.c:82
204041b6:	08000793          	li	a5,128
204041ba:	3047b7f3          	csrrc	a5,mie,a5
204041be:	fef42623          	sw	a5,-20(s0)
C:/wsFreedomStudio/kernel/freedom-metal/src/drivers/riscv_cpu.c:85
204041c2:	0001                	nop
204041c4:	4472                	lw	s0,28(sp)
204041c6:	6105                	addi	sp,sp,32
204041c8:	8082                	ret

204041ca <__metal_interrupt_external_enable>:
__metal_interrupt_external_enable():
C:/wsFreedomStudio/kernel/freedom-metal/src/drivers/riscv_cpu.c:87
204041ca:	1101                	addi	sp,sp,-32
204041cc:	ce22                	sw	s0,28(sp)
204041ce:	1000                	addi	s0,sp,32
C:/wsFreedomStudio/kernel/freedom-metal/src/drivers/riscv_cpu.c:89
204041d0:	6785                	lui	a5,0x1
204041d2:	80078793          	addi	a5,a5,-2048 # 800 <__heap_size>
204041d6:	3047a7f3          	csrrs	a5,mie,a5
204041da:	fef42623          	sw	a5,-20(s0)
C:/wsFreedomStudio/kernel/freedom-metal/src/drivers/riscv_cpu.c:92
204041de:	0001                	nop
204041e0:	4472                	lw	s0,28(sp)
204041e2:	6105                	addi	sp,sp,32
204041e4:	8082                	ret

204041e6 <__metal_interrupt_external_disable>:
__metal_interrupt_external_disable():
C:/wsFreedomStudio/kernel/freedom-metal/src/drivers/riscv_cpu.c:94
204041e6:	1101                	addi	sp,sp,-32
204041e8:	ce22                	sw	s0,28(sp)
204041ea:	1000                	addi	s0,sp,32
C:/wsFreedomStudio/kernel/freedom-metal/src/drivers/riscv_cpu.c:96
204041ec:	6785                	lui	a5,0x1
204041ee:	80078793          	addi	a5,a5,-2048 # 800 <__heap_size>
204041f2:	3047b7f3          	csrrc	a5,mie,a5
204041f6:	fef42623          	sw	a5,-20(s0)
C:/wsFreedomStudio/kernel/freedom-metal/src/drivers/riscv_cpu.c:99
204041fa:	0001                	nop
204041fc:	4472                	lw	s0,28(sp)
204041fe:	6105                	addi	sp,sp,32
20404200:	8082                	ret

20404202 <__metal_interrupt_local_enable>:
__metal_interrupt_local_enable():
C:/wsFreedomStudio/kernel/freedom-metal/src/drivers/riscv_cpu.c:101
20404202:	7179                	addi	sp,sp,-48
20404204:	d622                	sw	s0,44(sp)
20404206:	1800                	addi	s0,sp,48
20404208:	fca42e23          	sw	a0,-36(s0)
C:/wsFreedomStudio/kernel/freedom-metal/src/drivers/riscv_cpu.c:102
2040420c:	fdc42783          	lw	a5,-36(s0)
20404210:	4705                	li	a4,1
20404212:	00f717b3          	sll	a5,a4,a5
20404216:	fef42623          	sw	a5,-20(s0)
C:/wsFreedomStudio/kernel/freedom-metal/src/drivers/riscv_cpu.c:104
2040421a:	fec42783          	lw	a5,-20(s0)
2040421e:	3047a7f3          	csrrs	a5,mie,a5
20404222:	fef42423          	sw	a5,-24(s0)
C:/wsFreedomStudio/kernel/freedom-metal/src/drivers/riscv_cpu.c:105
20404226:	0001                	nop
20404228:	5432                	lw	s0,44(sp)
2040422a:	6145                	addi	sp,sp,48
2040422c:	8082                	ret

2040422e <__metal_interrupt_local_disable>:
__metal_interrupt_local_disable():
C:/wsFreedomStudio/kernel/freedom-metal/src/drivers/riscv_cpu.c:107
2040422e:	7179                	addi	sp,sp,-48
20404230:	d622                	sw	s0,44(sp)
20404232:	1800                	addi	s0,sp,48
20404234:	fca42e23          	sw	a0,-36(s0)
C:/wsFreedomStudio/kernel/freedom-metal/src/drivers/riscv_cpu.c:108
20404238:	fdc42783          	lw	a5,-36(s0)
2040423c:	4705                	li	a4,1
2040423e:	00f717b3          	sll	a5,a4,a5
20404242:	fef42623          	sw	a5,-20(s0)
C:/wsFreedomStudio/kernel/freedom-metal/src/drivers/riscv_cpu.c:110
20404246:	fec42783          	lw	a5,-20(s0)
2040424a:	3047b7f3          	csrrc	a5,mie,a5
2040424e:	fef42423          	sw	a5,-24(s0)
C:/wsFreedomStudio/kernel/freedom-metal/src/drivers/riscv_cpu.c:111
20404252:	0001                	nop
20404254:	5432                	lw	s0,44(sp)
20404256:	6145                	addi	sp,sp,48
20404258:	8082                	ret

2040425a <__metal_default_exception_handler>:
__metal_default_exception_handler():
C:/wsFreedomStudio/kernel/freedom-metal/src/drivers/riscv_cpu.c:113
2040425a:	1101                	addi	sp,sp,-32
2040425c:	ce06                	sw	ra,28(sp)
2040425e:	cc22                	sw	s0,24(sp)
20404260:	1000                	addi	s0,sp,32
20404262:	fea42623          	sw	a0,-20(s0)
20404266:	feb42423          	sw	a1,-24(s0)
C:/wsFreedomStudio/kernel/freedom-metal/src/drivers/riscv_cpu.c:114
2040426a:	06400513          	li	a0,100
2040426e:	37f030ef          	jal	ra,20407dec <metal_shutdown>

20404272 <__metal_default_interrupt_handler>:
__metal_default_interrupt_handler():
C:/wsFreedomStudio/kernel/freedom-metal/src/drivers/riscv_cpu.c:117
20404272:	1101                	addi	sp,sp,-32
20404274:	ce06                	sw	ra,28(sp)
20404276:	cc22                	sw	s0,24(sp)
20404278:	1000                	addi	s0,sp,32
2040427a:	fea42623          	sw	a0,-20(s0)
2040427e:	feb42423          	sw	a1,-24(s0)
C:/wsFreedomStudio/kernel/freedom-metal/src/drivers/riscv_cpu.c:118
20404282:	0c800513          	li	a0,200
20404286:	367030ef          	jal	ra,20407dec <metal_shutdown>

2040428a <metal_interrupt_vector_handler>:
metal_interrupt_vector_handler():
C:/wsFreedomStudio/kernel/freedom-metal/src/drivers/riscv_cpu.c:122
2040428a:	715d                	addi	sp,sp,-80
2040428c:	c686                	sw	ra,76(sp)
2040428e:	c496                	sw	t0,72(sp)
20404290:	c29a                	sw	t1,68(sp)
20404292:	c09e                	sw	t2,64(sp)
20404294:	de22                	sw	s0,60(sp)
20404296:	dc2a                	sw	a0,56(sp)
20404298:	da2e                	sw	a1,52(sp)
2040429a:	d832                	sw	a2,48(sp)
2040429c:	d636                	sw	a3,44(sp)
2040429e:	d43a                	sw	a4,40(sp)
204042a0:	d23e                	sw	a5,36(sp)
204042a2:	d042                	sw	a6,32(sp)
204042a4:	ce46                	sw	a7,28(sp)
204042a6:	cc72                	sw	t3,24(sp)
204042a8:	ca76                	sw	t4,20(sp)
204042aa:	c87a                	sw	t5,16(sp)
204042ac:	c67e                	sw	t6,12(sp)
204042ae:	0880                	addi	s0,sp,80
C:/wsFreedomStudio/kernel/freedom-metal/src/drivers/riscv_cpu.c:123
204042b0:	12c00513          	li	a0,300
204042b4:	339030ef          	jal	ra,20407dec <metal_shutdown>

204042b8 <metal_software_interrupt_vector_handler>:
metal_software_interrupt_vector_handler():
C:/wsFreedomStudio/kernel/freedom-metal/src/drivers/riscv_cpu.c:128
204042b8:	711d                	addi	sp,sp,-96
204042ba:	ce86                	sw	ra,92(sp)
204042bc:	cc96                	sw	t0,88(sp)
204042be:	ca9a                	sw	t1,84(sp)
204042c0:	c89e                	sw	t2,80(sp)
204042c2:	c6a2                	sw	s0,76(sp)
204042c4:	c4aa                	sw	a0,72(sp)
204042c6:	c2ae                	sw	a1,68(sp)
204042c8:	c0b2                	sw	a2,64(sp)
204042ca:	de36                	sw	a3,60(sp)
204042cc:	dc3a                	sw	a4,56(sp)
204042ce:	da3e                	sw	a5,52(sp)
204042d0:	d842                	sw	a6,48(sp)
204042d2:	d646                	sw	a7,44(sp)
204042d4:	d472                	sw	t3,40(sp)
204042d6:	d276                	sw	t4,36(sp)
204042d8:	d07a                	sw	t5,32(sp)
204042da:	ce7e                	sw	t6,28(sp)
204042dc:	1080                	addi	s0,sp,96
C:/wsFreedomStudio/kernel/freedom-metal/src/drivers/riscv_cpu.c:129
204042de:	3d3d                	jal	2040411c <__metal_myhart_id>
204042e0:	872a                	mv	a4,a0
204042e2:	800007b7          	lui	a5,0x80000
204042e6:	070a                	slli	a4,a4,0x2
204042e8:	7a878793          	addi	a5,a5,1960 # 800007a8 <metal_segment_heap_target_end+0xffffecd8>
204042ec:	97ba                	add	a5,a5,a4
204042ee:	439c                	lw	a5,0(a5)
204042f0:	faf42623          	sw	a5,-84(s0)
204042f4:	fac42783          	lw	a5,-84(s0)
204042f8:	c785                	beqz	a5,20404320 <metal_software_interrupt_vector_handler+0x68>
C:/wsFreedomStudio/kernel/freedom-metal/src/drivers/riscv_cpu.c:129 (discriminator 1)
204042fa:	fac42503          	lw	a0,-84(s0)
204042fe:	3345                	jal	2040409e <__metal_driver_cpu_interrupt_controller>
20404300:	faa42423          	sw	a0,-88(s0)
20404304:	fa842783          	lw	a5,-88(s0)
20404308:	0e07a783          	lw	a5,224(a5)
2040430c:	faf42223          	sw	a5,-92(s0)
20404310:	fa842783          	lw	a5,-88(s0)
20404314:	0d87a783          	lw	a5,216(a5)
20404318:	fa442583          	lw	a1,-92(s0)
2040431c:	450d                	li	a0,3
2040431e:	9782                	jalr	a5
C:/wsFreedomStudio/kernel/freedom-metal/src/drivers/riscv_cpu.c:130
20404320:	0001                	nop
20404322:	40f6                	lw	ra,92(sp)
20404324:	42e6                	lw	t0,88(sp)
20404326:	4356                	lw	t1,84(sp)
20404328:	43c6                	lw	t2,80(sp)
2040432a:	4436                	lw	s0,76(sp)
2040432c:	4526                	lw	a0,72(sp)
2040432e:	4596                	lw	a1,68(sp)
20404330:	4606                	lw	a2,64(sp)
20404332:	56f2                	lw	a3,60(sp)
20404334:	5762                	lw	a4,56(sp)
20404336:	57d2                	lw	a5,52(sp)
20404338:	5842                	lw	a6,48(sp)
2040433a:	58b2                	lw	a7,44(sp)
2040433c:	5e22                	lw	t3,40(sp)
2040433e:	5e92                	lw	t4,36(sp)
20404340:	5f02                	lw	t5,32(sp)
20404342:	4ff2                	lw	t6,28(sp)
20404344:	6125                	addi	sp,sp,96
20404346:	30200073          	mret

2040434a <__metal_default_sw_handler>:
__metal_default_sw_handler():
C:/wsFreedomStudio/kernel/freedom-metal/src/drivers/riscv_cpu.c:132
2040434a:	7179                	addi	sp,sp,-48
2040434c:	d606                	sw	ra,44(sp)
2040434e:	d422                	sw	s0,40(sp)
20404350:	1800                	addi	s0,sp,48
20404352:	fca42e23          	sw	a0,-36(s0)
20404356:	fcb42c23          	sw	a1,-40(s0)
C:/wsFreedomStudio/kernel/freedom-metal/src/drivers/riscv_cpu.c:135
2040435a:	33c9                	jal	2040411c <__metal_myhart_id>
2040435c:	872a                	mv	a4,a0
2040435e:	800007b7          	lui	a5,0x80000
20404362:	070a                	slli	a4,a4,0x2
20404364:	7a878793          	addi	a5,a5,1960 # 800007a8 <metal_segment_heap_target_end+0xffffecd8>
20404368:	97ba                	add	a5,a5,a4
2040436a:	439c                	lw	a5,0(a5)
2040436c:	fef42623          	sw	a5,-20(s0)
C:/wsFreedomStudio/kernel/freedom-metal/src/drivers/riscv_cpu.c:137
20404370:	342027f3          	csrr	a5,mcause
20404374:	fef42423          	sw	a5,-24(s0)
C:/wsFreedomStudio/kernel/freedom-metal/src/drivers/riscv_cpu.c:138
20404378:	fec42783          	lw	a5,-20(s0)
2040437c:	c795                	beqz	a5,204043a8 <__metal_default_sw_handler+0x5e>
C:/wsFreedomStudio/kernel/freedom-metal/src/drivers/riscv_cpu.c:140
2040437e:	fec42503          	lw	a0,-20(s0)
20404382:	3b31                	jal	2040409e <__metal_driver_cpu_interrupt_controller>
20404384:	fea42223          	sw	a0,-28(s0)
C:/wsFreedomStudio/kernel/freedom-metal/src/drivers/riscv_cpu.c:141
20404388:	fe842783          	lw	a5,-24(s0)
2040438c:	3ff7f793          	andi	a5,a5,1023
20404390:	fe442703          	lw	a4,-28(s0)
20404394:	0e878793          	addi	a5,a5,232
20404398:	078a                	slli	a5,a5,0x2
2040439a:	97ba                	add	a5,a5,a4
2040439c:	439c                	lw	a5,0(a5)
2040439e:	fdc42583          	lw	a1,-36(s0)
204043a2:	fec42503          	lw	a0,-20(s0)
204043a6:	9782                	jalr	a5
C:/wsFreedomStudio/kernel/freedom-metal/src/drivers/riscv_cpu.c:144
204043a8:	0001                	nop
204043aa:	50b2                	lw	ra,44(sp)
204043ac:	5422                	lw	s0,40(sp)
204043ae:	6145                	addi	sp,sp,48
204043b0:	8082                	ret

204043b2 <metal_timer_interrupt_vector_handler>:
metal_timer_interrupt_vector_handler():
C:/wsFreedomStudio/kernel/freedom-metal/src/drivers/riscv_cpu.c:148
204043b2:	711d                	addi	sp,sp,-96
204043b4:	ce86                	sw	ra,92(sp)
204043b6:	cc96                	sw	t0,88(sp)
204043b8:	ca9a                	sw	t1,84(sp)
204043ba:	c89e                	sw	t2,80(sp)
204043bc:	c6a2                	sw	s0,76(sp)
204043be:	c4aa                	sw	a0,72(sp)
204043c0:	c2ae                	sw	a1,68(sp)
204043c2:	c0b2                	sw	a2,64(sp)
204043c4:	de36                	sw	a3,60(sp)
204043c6:	dc3a                	sw	a4,56(sp)
204043c8:	da3e                	sw	a5,52(sp)
204043ca:	d842                	sw	a6,48(sp)
204043cc:	d646                	sw	a7,44(sp)
204043ce:	d472                	sw	t3,40(sp)
204043d0:	d276                	sw	t4,36(sp)
204043d2:	d07a                	sw	t5,32(sp)
204043d4:	ce7e                	sw	t6,28(sp)
204043d6:	1080                	addi	s0,sp,96
C:/wsFreedomStudio/kernel/freedom-metal/src/drivers/riscv_cpu.c:149
204043d8:	3391                	jal	2040411c <__metal_myhart_id>
204043da:	872a                	mv	a4,a0
204043dc:	800007b7          	lui	a5,0x80000
204043e0:	070a                	slli	a4,a4,0x2
204043e2:	7a878793          	addi	a5,a5,1960 # 800007a8 <metal_segment_heap_target_end+0xffffecd8>
204043e6:	97ba                	add	a5,a5,a4
204043e8:	439c                	lw	a5,0(a5)
204043ea:	faf42623          	sw	a5,-84(s0)
204043ee:	fac42783          	lw	a5,-84(s0)
204043f2:	c785                	beqz	a5,2040441a <metal_timer_interrupt_vector_handler+0x68>
C:/wsFreedomStudio/kernel/freedom-metal/src/drivers/riscv_cpu.c:149 (discriminator 1)
204043f4:	fac42503          	lw	a0,-84(s0)
204043f8:	315d                	jal	2040409e <__metal_driver_cpu_interrupt_controller>
204043fa:	faa42423          	sw	a0,-88(s0)
204043fe:	fa842783          	lw	a5,-88(s0)
20404402:	1407a783          	lw	a5,320(a5)
20404406:	faf42223          	sw	a5,-92(s0)
2040440a:	fa842783          	lw	a5,-88(s0)
2040440e:	1387a783          	lw	a5,312(a5)
20404412:	fa442583          	lw	a1,-92(s0)
20404416:	451d                	li	a0,7
20404418:	9782                	jalr	a5
C:/wsFreedomStudio/kernel/freedom-metal/src/drivers/riscv_cpu.c:150
2040441a:	0001                	nop
2040441c:	40f6                	lw	ra,92(sp)
2040441e:	42e6                	lw	t0,88(sp)
20404420:	4356                	lw	t1,84(sp)
20404422:	43c6                	lw	t2,80(sp)
20404424:	4436                	lw	s0,76(sp)
20404426:	4526                	lw	a0,72(sp)
20404428:	4596                	lw	a1,68(sp)
2040442a:	4606                	lw	a2,64(sp)
2040442c:	56f2                	lw	a3,60(sp)
2040442e:	5762                	lw	a4,56(sp)
20404430:	57d2                	lw	a5,52(sp)
20404432:	5842                	lw	a6,48(sp)
20404434:	58b2                	lw	a7,44(sp)
20404436:	5e22                	lw	t3,40(sp)
20404438:	5e92                	lw	t4,36(sp)
2040443a:	5f02                	lw	t5,32(sp)
2040443c:	4ff2                	lw	t6,28(sp)
2040443e:	6125                	addi	sp,sp,96
20404440:	30200073          	mret

20404444 <__metal_default_beu_handler>:
__metal_default_beu_handler():
C:/wsFreedomStudio/kernel/freedom-metal/src/drivers/riscv_cpu.c:152
20404444:	1101                	addi	sp,sp,-32
20404446:	ce22                	sw	s0,28(sp)
20404448:	1000                	addi	s0,sp,32
2040444a:	fea42623          	sw	a0,-20(s0)
2040444e:	feb42423          	sw	a1,-24(s0)
20404452:	0001                	nop
20404454:	4472                	lw	s0,28(sp)
20404456:	6105                	addi	sp,sp,32
20404458:	8082                	ret

2040445a <__metal_default_timer_handler>:
__metal_default_timer_handler():
C:/wsFreedomStudio/kernel/freedom-metal/src/drivers/riscv_cpu.c:154
2040445a:	7179                	addi	sp,sp,-48
2040445c:	d606                	sw	ra,44(sp)
2040445e:	d422                	sw	s0,40(sp)
20404460:	1800                	addi	s0,sp,48
20404462:	fca42e23          	sw	a0,-36(s0)
20404466:	fcb42c23          	sw	a1,-40(s0)
C:/wsFreedomStudio/kernel/freedom-metal/src/drivers/riscv_cpu.c:155
2040446a:	394d                	jal	2040411c <__metal_myhart_id>
2040446c:	87aa                	mv	a5,a0
2040446e:	853e                	mv	a0,a5
20404470:	c7dff0ef          	jal	ra,204040ec <__metal_driver_cpu_get>
20404474:	fea42623          	sw	a0,-20(s0)
C:/wsFreedomStudio/kernel/freedom-metal/src/drivers/riscv_cpu.c:156
20404478:	fec42503          	lw	a0,-20(s0)
2040447c:	2aa010ef          	jal	ra,20405726 <__metal_driver_cpu_mtime_get>
20404480:	fea42023          	sw	a0,-32(s0)
20404484:	feb42223          	sw	a1,-28(s0)
C:/wsFreedomStudio/kernel/freedom-metal/src/drivers/riscv_cpu.c:159
20404488:	fe042703          	lw	a4,-32(s0)
2040448c:	fe442783          	lw	a5,-28(s0)
20404490:	4529                	li	a0,10
20404492:	4581                	li	a1,0
20404494:	00a70633          	add	a2,a4,a0
20404498:	8832                	mv	a6,a2
2040449a:	00e83833          	sltu	a6,a6,a4
2040449e:	00b786b3          	add	a3,a5,a1
204044a2:	00d807b3          	add	a5,a6,a3
204044a6:	86be                	mv	a3,a5
204044a8:	8732                	mv	a4,a2
204044aa:	87b6                	mv	a5,a3
204044ac:	85ba                	mv	a1,a4
204044ae:	863e                	mv	a2,a5
204044b0:	fec42503          	lw	a0,-20(s0)
204044b4:	2d8010ef          	jal	ra,2040578c <__metal_driver_cpu_mtimecmp_set>
C:/wsFreedomStudio/kernel/freedom-metal/src/drivers/riscv_cpu.c:160
204044b8:	0001                	nop
204044ba:	50b2                	lw	ra,44(sp)
204044bc:	5422                	lw	s0,40(sp)
204044be:	6145                	addi	sp,sp,48
204044c0:	8082                	ret
	...

20404500 <__metal_exception_handler>:
__metal_exception_handler():
C:/wsFreedomStudio/kernel/freedom-metal/src/drivers/riscv_cpu.c:169
20404500:	7119                	addi	sp,sp,-128
20404502:	de86                	sw	ra,124(sp)
20404504:	dc96                	sw	t0,120(sp)
20404506:	da9a                	sw	t1,116(sp)
20404508:	d89e                	sw	t2,112(sp)
2040450a:	d6a2                	sw	s0,108(sp)
2040450c:	d4aa                	sw	a0,104(sp)
2040450e:	d2ae                	sw	a1,100(sp)
20404510:	d0b2                	sw	a2,96(sp)
20404512:	ceb6                	sw	a3,92(sp)
20404514:	ccba                	sw	a4,88(sp)
20404516:	cabe                	sw	a5,84(sp)
20404518:	c8c2                	sw	a6,80(sp)
2040451a:	c6c6                	sw	a7,76(sp)
2040451c:	c4f2                	sw	t3,72(sp)
2040451e:	c2f6                	sw	t4,68(sp)
20404520:	c0fa                	sw	t5,64(sp)
20404522:	de7e                	sw	t6,60(sp)
20404524:	0100                	addi	s0,sp,128
C:/wsFreedomStudio/kernel/freedom-metal/src/drivers/riscv_cpu.c:174
20404526:	bf7ff0ef          	jal	ra,2040411c <__metal_myhart_id>
2040452a:	872a                	mv	a4,a0
2040452c:	800007b7          	lui	a5,0x80000
20404530:	070a                	slli	a4,a4,0x2
20404532:	7a878793          	addi	a5,a5,1960 # 800007a8 <metal_segment_heap_target_end+0xffffecd8>
20404536:	97ba                	add	a5,a5,a4
20404538:	439c                	lw	a5,0(a5)
2040453a:	faf42623          	sw	a5,-84(s0)
C:/wsFreedomStudio/kernel/freedom-metal/src/drivers/riscv_cpu.c:176
2040453e:	342027f3          	csrr	a5,mcause
20404542:	faf42423          	sw	a5,-88(s0)
C:/wsFreedomStudio/kernel/freedom-metal/src/drivers/riscv_cpu.c:177
20404546:	341027f3          	csrr	a5,mepc
2040454a:	faf42223          	sw	a5,-92(s0)
C:/wsFreedomStudio/kernel/freedom-metal/src/drivers/riscv_cpu.c:178
2040454e:	343027f3          	csrr	a5,mtval
20404552:	faf42023          	sw	a5,-96(s0)
C:/wsFreedomStudio/kernel/freedom-metal/src/drivers/riscv_cpu.c:179
20404556:	305027f3          	csrr	a5,mtvec
2040455a:	f8f42e23          	sw	a5,-100(s0)
C:/wsFreedomStudio/kernel/freedom-metal/src/drivers/riscv_cpu.c:181
2040455e:	fac42783          	lw	a5,-84(s0)
20404562:	cbfd                	beqz	a5,20404658 <__metal_exception_handler+0x158>
C:/wsFreedomStudio/kernel/freedom-metal/src/drivers/riscv_cpu.c:183
20404564:	fac42503          	lw	a0,-84(s0)
20404568:	b37ff0ef          	jal	ra,2040409e <__metal_driver_cpu_interrupt_controller>
2040456c:	f8a42c23          	sw	a0,-104(s0)
C:/wsFreedomStudio/kernel/freedom-metal/src/drivers/riscv_cpu.c:184
20404570:	fa842783          	lw	a5,-88(s0)
20404574:	3ff7f793          	andi	a5,a5,1023
20404578:	f8f42a23          	sw	a5,-108(s0)
C:/wsFreedomStudio/kernel/freedom-metal/src/drivers/riscv_cpu.c:185
2040457c:	fa842783          	lw	a5,-88(s0)
20404580:	0a07de63          	bgez	a5,2040463c <__metal_exception_handler+0x13c>
C:/wsFreedomStudio/kernel/freedom-metal/src/drivers/riscv_cpu.c:186
20404584:	f9442703          	lw	a4,-108(s0)
20404588:	08000793          	li	a5,128
2040458c:	02f71263          	bne	a4,a5,204045b0 <__metal_exception_handler+0xb0>
C:/wsFreedomStudio/kernel/freedom-metal/src/drivers/riscv_cpu.c:187
20404590:	f9842783          	lw	a5,-104(s0)
20404594:	3987a783          	lw	a5,920(a5)
20404598:	f8f42623          	sw	a5,-116(s0)
C:/wsFreedomStudio/kernel/freedom-metal/src/drivers/riscv_cpu.c:188
2040459c:	f9842783          	lw	a5,-104(s0)
204045a0:	3907a783          	lw	a5,912(a5)
204045a4:	f8c42583          	lw	a1,-116(s0)
204045a8:	f9442503          	lw	a0,-108(s0)
204045ac:	9782                	jalr	a5
C:/wsFreedomStudio/kernel/freedom-metal/src/drivers/riscv_cpu.c:189
204045ae:	a06d                	j	20404658 <__metal_exception_handler+0x158>
C:/wsFreedomStudio/kernel/freedom-metal/src/drivers/riscv_cpu.c:191
204045b0:	f9442703          	lw	a4,-108(s0)
204045b4:	47ad                	li	a5,11
204045b6:	00e7d763          	bge	a5,a4,204045c4 <__metal_exception_handler+0xc4>
C:/wsFreedomStudio/kernel/freedom-metal/src/drivers/riscv_cpu.c:192 (discriminator 1)
204045ba:	f9c42783          	lw	a5,-100(s0)
204045be:	03f7f793          	andi	a5,a5,63
C:/wsFreedomStudio/kernel/freedom-metal/src/drivers/riscv_cpu.c:191 (discriminator 1)
204045c2:	ef9d                	bnez	a5,20404600 <__metal_exception_handler+0x100>
C:/wsFreedomStudio/kernel/freedom-metal/src/drivers/riscv_cpu.c:193
204045c4:	f9842683          	lw	a3,-104(s0)
204045c8:	f9442703          	lw	a4,-108(s0)
204045cc:	87ba                	mv	a5,a4
204045ce:	0786                	slli	a5,a5,0x1
204045d0:	97ba                	add	a5,a5,a4
204045d2:	078e                	slli	a5,a5,0x3
204045d4:	97b6                	add	a5,a5,a3
204045d6:	0987a783          	lw	a5,152(a5)
204045da:	f8f42623          	sw	a5,-116(s0)
C:/wsFreedomStudio/kernel/freedom-metal/src/drivers/riscv_cpu.c:194
204045de:	f9842683          	lw	a3,-104(s0)
204045e2:	f9442703          	lw	a4,-108(s0)
204045e6:	87ba                	mv	a5,a4
204045e8:	0786                	slli	a5,a5,0x1
204045ea:	97ba                	add	a5,a5,a4
204045ec:	078e                	slli	a5,a5,0x3
204045ee:	97b6                	add	a5,a5,a3
204045f0:	0907a783          	lw	a5,144(a5)
204045f4:	f8c42583          	lw	a1,-116(s0)
204045f8:	f9442503          	lw	a0,-108(s0)
204045fc:	9782                	jalr	a5
C:/wsFreedomStudio/kernel/freedom-metal/src/drivers/riscv_cpu.c:195
204045fe:	a8a9                	j	20404658 <__metal_exception_handler+0x158>
C:/wsFreedomStudio/kernel/freedom-metal/src/drivers/riscv_cpu.c:197
20404600:	f9c42783          	lw	a5,-100(s0)
20404604:	03f7f713          	andi	a4,a5,63
20404608:	4789                	li	a5,2
2040460a:	04f71763          	bne	a4,a5,20404658 <__metal_exception_handler+0x158>
C:/wsFreedomStudio/kernel/freedom-metal/src/drivers/riscv_cpu.c:201
2040460e:	307027f3          	csrr	a5,mtvt
20404612:	f8f42823          	sw	a5,-112(s0)
C:/wsFreedomStudio/kernel/freedom-metal/src/drivers/riscv_cpu.c:202
20404616:	f9842783          	lw	a5,-104(s0)
2040461a:	0dc7a783          	lw	a5,220(a5)
2040461e:	f8f42623          	sw	a5,-116(s0)
C:/wsFreedomStudio/kernel/freedom-metal/src/drivers/riscv_cpu.c:203
20404622:	f9042783          	lw	a5,-112(s0)
20404626:	439c                	lw	a5,0(a5)
20404628:	f8f42423          	sw	a5,-120(s0)
C:/wsFreedomStudio/kernel/freedom-metal/src/drivers/riscv_cpu.c:204
2040462c:	f8842783          	lw	a5,-120(s0)
20404630:	f8c42583          	lw	a1,-116(s0)
20404634:	f9442503          	lw	a0,-108(s0)
20404638:	9782                	jalr	a5
C:/wsFreedomStudio/kernel/freedom-metal/src/drivers/riscv_cpu.c:205
2040463a:	a839                	j	20404658 <__metal_exception_handler+0x158>
C:/wsFreedomStudio/kernel/freedom-metal/src/drivers/riscv_cpu.c:208
2040463c:	f9842703          	lw	a4,-104(s0)
20404640:	f9442783          	lw	a5,-108(s0)
20404644:	0e878793          	addi	a5,a5,232
20404648:	078a                	slli	a5,a5,0x2
2040464a:	97ba                	add	a5,a5,a4
2040464c:	439c                	lw	a5,0(a5)
2040464e:	f9442583          	lw	a1,-108(s0)
20404652:	fac42503          	lw	a0,-84(s0)
20404656:	9782                	jalr	a5
C:/wsFreedomStudio/kernel/freedom-metal/src/drivers/riscv_cpu.c:211
20404658:	50f6                	lw	ra,124(sp)
2040465a:	52e6                	lw	t0,120(sp)
2040465c:	5356                	lw	t1,116(sp)
2040465e:	53c6                	lw	t2,112(sp)
20404660:	5436                	lw	s0,108(sp)
20404662:	5526                	lw	a0,104(sp)
20404664:	5596                	lw	a1,100(sp)
20404666:	5606                	lw	a2,96(sp)
20404668:	46f6                	lw	a3,92(sp)
2040466a:	4766                	lw	a4,88(sp)
2040466c:	47d6                	lw	a5,84(sp)
2040466e:	4846                	lw	a6,80(sp)
20404670:	48b6                	lw	a7,76(sp)
20404672:	4e26                	lw	t3,72(sp)
20404674:	4e96                	lw	t4,68(sp)
20404676:	4f06                	lw	t5,64(sp)
20404678:	5ff2                	lw	t6,60(sp)
2040467a:	6109                	addi	sp,sp,128
2040467c:	30200073          	mret
	...

204046fa <metal_lc0_interrupt_vector_handler>:
metal_lc0_interrupt_vector_handler():
C:/wsFreedomStudio/kernel/freedom-metal/src/drivers/riscv_cpu.c:214
204046fa:	711d                	addi	sp,sp,-96
204046fc:	ce86                	sw	ra,92(sp)
204046fe:	cc96                	sw	t0,88(sp)
20404700:	ca9a                	sw	t1,84(sp)
20404702:	c89e                	sw	t2,80(sp)
20404704:	c6a2                	sw	s0,76(sp)
20404706:	c4aa                	sw	a0,72(sp)
20404708:	c2ae                	sw	a1,68(sp)
2040470a:	c0b2                	sw	a2,64(sp)
2040470c:	de36                	sw	a3,60(sp)
2040470e:	dc3a                	sw	a4,56(sp)
20404710:	da3e                	sw	a5,52(sp)
20404712:	d842                	sw	a6,48(sp)
20404714:	d646                	sw	a7,44(sp)
20404716:	d472                	sw	t3,40(sp)
20404718:	d276                	sw	t4,36(sp)
2040471a:	d07a                	sw	t5,32(sp)
2040471c:	ce7e                	sw	t6,28(sp)
2040471e:	1080                	addi	s0,sp,96
C:/wsFreedomStudio/kernel/freedom-metal/src/drivers/riscv_cpu.c:215
20404720:	9fdff0ef          	jal	ra,2040411c <__metal_myhart_id>
20404724:	872a                	mv	a4,a0
20404726:	800007b7          	lui	a5,0x80000
2040472a:	070a                	slli	a4,a4,0x2
2040472c:	7a878793          	addi	a5,a5,1960 # 800007a8 <metal_segment_heap_target_end+0xffffecd8>
20404730:	97ba                	add	a5,a5,a4
20404732:	439c                	lw	a5,0(a5)
20404734:	faf42623          	sw	a5,-84(s0)
20404738:	fac42783          	lw	a5,-84(s0)
2040473c:	c78d                	beqz	a5,20404766 <metal_lc0_interrupt_vector_handler+0x6c>
C:/wsFreedomStudio/kernel/freedom-metal/src/drivers/riscv_cpu.c:215 (discriminator 1)
2040473e:	fac42503          	lw	a0,-84(s0)
20404742:	95dff0ef          	jal	ra,2040409e <__metal_driver_cpu_interrupt_controller>
20404746:	faa42423          	sw	a0,-88(s0)
2040474a:	fa842783          	lw	a5,-88(s0)
2040474e:	2187a783          	lw	a5,536(a5)
20404752:	faf42223          	sw	a5,-92(s0)
20404756:	fa842783          	lw	a5,-88(s0)
2040475a:	2107a783          	lw	a5,528(a5)
2040475e:	fa442583          	lw	a1,-92(s0)
20404762:	4541                	li	a0,16
20404764:	9782                	jalr	a5
C:/wsFreedomStudio/kernel/freedom-metal/src/drivers/riscv_cpu.c:216
20404766:	0001                	nop
20404768:	40f6                	lw	ra,92(sp)
2040476a:	42e6                	lw	t0,88(sp)
2040476c:	4356                	lw	t1,84(sp)
2040476e:	43c6                	lw	t2,80(sp)
20404770:	4436                	lw	s0,76(sp)
20404772:	4526                	lw	a0,72(sp)
20404774:	4596                	lw	a1,68(sp)
20404776:	4606                	lw	a2,64(sp)
20404778:	56f2                	lw	a3,60(sp)
2040477a:	5762                	lw	a4,56(sp)
2040477c:	57d2                	lw	a5,52(sp)
2040477e:	5842                	lw	a6,48(sp)
20404780:	58b2                	lw	a7,44(sp)
20404782:	5e22                	lw	t3,40(sp)
20404784:	5e92                	lw	t4,36(sp)
20404786:	5f02                	lw	t5,32(sp)
20404788:	4ff2                	lw	t6,28(sp)
2040478a:	6125                	addi	sp,sp,96
2040478c:	30200073          	mret

20404790 <metal_lc1_interrupt_vector_handler>:
metal_lc1_interrupt_vector_handler():
C:/wsFreedomStudio/kernel/freedom-metal/src/drivers/riscv_cpu.c:219
20404790:	711d                	addi	sp,sp,-96
20404792:	ce86                	sw	ra,92(sp)
20404794:	cc96                	sw	t0,88(sp)
20404796:	ca9a                	sw	t1,84(sp)
20404798:	c89e                	sw	t2,80(sp)
2040479a:	c6a2                	sw	s0,76(sp)
2040479c:	c4aa                	sw	a0,72(sp)
2040479e:	c2ae                	sw	a1,68(sp)
204047a0:	c0b2                	sw	a2,64(sp)
204047a2:	de36                	sw	a3,60(sp)
204047a4:	dc3a                	sw	a4,56(sp)
204047a6:	da3e                	sw	a5,52(sp)
204047a8:	d842                	sw	a6,48(sp)
204047aa:	d646                	sw	a7,44(sp)
204047ac:	d472                	sw	t3,40(sp)
204047ae:	d276                	sw	t4,36(sp)
204047b0:	d07a                	sw	t5,32(sp)
204047b2:	ce7e                	sw	t6,28(sp)
204047b4:	1080                	addi	s0,sp,96
C:/wsFreedomStudio/kernel/freedom-metal/src/drivers/riscv_cpu.c:220
204047b6:	967ff0ef          	jal	ra,2040411c <__metal_myhart_id>
204047ba:	872a                	mv	a4,a0
204047bc:	800007b7          	lui	a5,0x80000
204047c0:	070a                	slli	a4,a4,0x2
204047c2:	7a878793          	addi	a5,a5,1960 # 800007a8 <metal_segment_heap_target_end+0xffffecd8>
204047c6:	97ba                	add	a5,a5,a4
204047c8:	439c                	lw	a5,0(a5)
204047ca:	faf42623          	sw	a5,-84(s0)
204047ce:	fac42783          	lw	a5,-84(s0)
204047d2:	c78d                	beqz	a5,204047fc <metal_lc1_interrupt_vector_handler+0x6c>
C:/wsFreedomStudio/kernel/freedom-metal/src/drivers/riscv_cpu.c:220 (discriminator 1)
204047d4:	fac42503          	lw	a0,-84(s0)
204047d8:	8c7ff0ef          	jal	ra,2040409e <__metal_driver_cpu_interrupt_controller>
204047dc:	faa42423          	sw	a0,-88(s0)
204047e0:	fa842783          	lw	a5,-88(s0)
204047e4:	2307a783          	lw	a5,560(a5)
204047e8:	faf42223          	sw	a5,-92(s0)
204047ec:	fa842783          	lw	a5,-88(s0)
204047f0:	2287a783          	lw	a5,552(a5)
204047f4:	fa442583          	lw	a1,-92(s0)
204047f8:	4545                	li	a0,17
204047fa:	9782                	jalr	a5
C:/wsFreedomStudio/kernel/freedom-metal/src/drivers/riscv_cpu.c:221
204047fc:	0001                	nop
204047fe:	40f6                	lw	ra,92(sp)
20404800:	42e6                	lw	t0,88(sp)
20404802:	4356                	lw	t1,84(sp)
20404804:	43c6                	lw	t2,80(sp)
20404806:	4436                	lw	s0,76(sp)
20404808:	4526                	lw	a0,72(sp)
2040480a:	4596                	lw	a1,68(sp)
2040480c:	4606                	lw	a2,64(sp)
2040480e:	56f2                	lw	a3,60(sp)
20404810:	5762                	lw	a4,56(sp)
20404812:	57d2                	lw	a5,52(sp)
20404814:	5842                	lw	a6,48(sp)
20404816:	58b2                	lw	a7,44(sp)
20404818:	5e22                	lw	t3,40(sp)
2040481a:	5e92                	lw	t4,36(sp)
2040481c:	5f02                	lw	t5,32(sp)
2040481e:	4ff2                	lw	t6,28(sp)
20404820:	6125                	addi	sp,sp,96
20404822:	30200073          	mret

20404826 <metal_lc2_interrupt_vector_handler>:
metal_lc2_interrupt_vector_handler():
C:/wsFreedomStudio/kernel/freedom-metal/src/drivers/riscv_cpu.c:224
20404826:	711d                	addi	sp,sp,-96
20404828:	ce86                	sw	ra,92(sp)
2040482a:	cc96                	sw	t0,88(sp)
2040482c:	ca9a                	sw	t1,84(sp)
2040482e:	c89e                	sw	t2,80(sp)
20404830:	c6a2                	sw	s0,76(sp)
20404832:	c4aa                	sw	a0,72(sp)
20404834:	c2ae                	sw	a1,68(sp)
20404836:	c0b2                	sw	a2,64(sp)
20404838:	de36                	sw	a3,60(sp)
2040483a:	dc3a                	sw	a4,56(sp)
2040483c:	da3e                	sw	a5,52(sp)
2040483e:	d842                	sw	a6,48(sp)
20404840:	d646                	sw	a7,44(sp)
20404842:	d472                	sw	t3,40(sp)
20404844:	d276                	sw	t4,36(sp)
20404846:	d07a                	sw	t5,32(sp)
20404848:	ce7e                	sw	t6,28(sp)
2040484a:	1080                	addi	s0,sp,96
C:/wsFreedomStudio/kernel/freedom-metal/src/drivers/riscv_cpu.c:225
2040484c:	8d1ff0ef          	jal	ra,2040411c <__metal_myhart_id>
20404850:	872a                	mv	a4,a0
20404852:	800007b7          	lui	a5,0x80000
20404856:	070a                	slli	a4,a4,0x2
20404858:	7a878793          	addi	a5,a5,1960 # 800007a8 <metal_segment_heap_target_end+0xffffecd8>
2040485c:	97ba                	add	a5,a5,a4
2040485e:	439c                	lw	a5,0(a5)
20404860:	faf42623          	sw	a5,-84(s0)
20404864:	fac42783          	lw	a5,-84(s0)
20404868:	c78d                	beqz	a5,20404892 <metal_lc2_interrupt_vector_handler+0x6c>
C:/wsFreedomStudio/kernel/freedom-metal/src/drivers/riscv_cpu.c:225 (discriminator 1)
2040486a:	fac42503          	lw	a0,-84(s0)
2040486e:	831ff0ef          	jal	ra,2040409e <__metal_driver_cpu_interrupt_controller>
20404872:	faa42423          	sw	a0,-88(s0)
20404876:	fa842783          	lw	a5,-88(s0)
2040487a:	2487a783          	lw	a5,584(a5)
2040487e:	faf42223          	sw	a5,-92(s0)
20404882:	fa842783          	lw	a5,-88(s0)
20404886:	2407a783          	lw	a5,576(a5)
2040488a:	fa442583          	lw	a1,-92(s0)
2040488e:	4549                	li	a0,18
20404890:	9782                	jalr	a5
C:/wsFreedomStudio/kernel/freedom-metal/src/drivers/riscv_cpu.c:226
20404892:	0001                	nop
20404894:	40f6                	lw	ra,92(sp)
20404896:	42e6                	lw	t0,88(sp)
20404898:	4356                	lw	t1,84(sp)
2040489a:	43c6                	lw	t2,80(sp)
2040489c:	4436                	lw	s0,76(sp)
2040489e:	4526                	lw	a0,72(sp)
204048a0:	4596                	lw	a1,68(sp)
204048a2:	4606                	lw	a2,64(sp)
204048a4:	56f2                	lw	a3,60(sp)
204048a6:	5762                	lw	a4,56(sp)
204048a8:	57d2                	lw	a5,52(sp)
204048aa:	5842                	lw	a6,48(sp)
204048ac:	58b2                	lw	a7,44(sp)
204048ae:	5e22                	lw	t3,40(sp)
204048b0:	5e92                	lw	t4,36(sp)
204048b2:	5f02                	lw	t5,32(sp)
204048b4:	4ff2                	lw	t6,28(sp)
204048b6:	6125                	addi	sp,sp,96
204048b8:	30200073          	mret

204048bc <metal_lc3_interrupt_vector_handler>:
metal_lc3_interrupt_vector_handler():
C:/wsFreedomStudio/kernel/freedom-metal/src/drivers/riscv_cpu.c:229
204048bc:	711d                	addi	sp,sp,-96
204048be:	ce86                	sw	ra,92(sp)
204048c0:	cc96                	sw	t0,88(sp)
204048c2:	ca9a                	sw	t1,84(sp)
204048c4:	c89e                	sw	t2,80(sp)
204048c6:	c6a2                	sw	s0,76(sp)
204048c8:	c4aa                	sw	a0,72(sp)
204048ca:	c2ae                	sw	a1,68(sp)
204048cc:	c0b2                	sw	a2,64(sp)
204048ce:	de36                	sw	a3,60(sp)
204048d0:	dc3a                	sw	a4,56(sp)
204048d2:	da3e                	sw	a5,52(sp)
204048d4:	d842                	sw	a6,48(sp)
204048d6:	d646                	sw	a7,44(sp)
204048d8:	d472                	sw	t3,40(sp)
204048da:	d276                	sw	t4,36(sp)
204048dc:	d07a                	sw	t5,32(sp)
204048de:	ce7e                	sw	t6,28(sp)
204048e0:	1080                	addi	s0,sp,96
C:/wsFreedomStudio/kernel/freedom-metal/src/drivers/riscv_cpu.c:230
204048e2:	83bff0ef          	jal	ra,2040411c <__metal_myhart_id>
204048e6:	872a                	mv	a4,a0
204048e8:	800007b7          	lui	a5,0x80000
204048ec:	070a                	slli	a4,a4,0x2
204048ee:	7a878793          	addi	a5,a5,1960 # 800007a8 <metal_segment_heap_target_end+0xffffecd8>
204048f2:	97ba                	add	a5,a5,a4
204048f4:	439c                	lw	a5,0(a5)
204048f6:	faf42623          	sw	a5,-84(s0)
204048fa:	fac42783          	lw	a5,-84(s0)
204048fe:	c78d                	beqz	a5,20404928 <metal_lc3_interrupt_vector_handler+0x6c>
C:/wsFreedomStudio/kernel/freedom-metal/src/drivers/riscv_cpu.c:230 (discriminator 1)
20404900:	fac42503          	lw	a0,-84(s0)
20404904:	f9aff0ef          	jal	ra,2040409e <__metal_driver_cpu_interrupt_controller>
20404908:	faa42423          	sw	a0,-88(s0)
2040490c:	fa842783          	lw	a5,-88(s0)
20404910:	2607a783          	lw	a5,608(a5)
20404914:	faf42223          	sw	a5,-92(s0)
20404918:	fa842783          	lw	a5,-88(s0)
2040491c:	2587a783          	lw	a5,600(a5)
20404920:	fa442583          	lw	a1,-92(s0)
20404924:	454d                	li	a0,19
20404926:	9782                	jalr	a5
C:/wsFreedomStudio/kernel/freedom-metal/src/drivers/riscv_cpu.c:231
20404928:	0001                	nop
2040492a:	40f6                	lw	ra,92(sp)
2040492c:	42e6                	lw	t0,88(sp)
2040492e:	4356                	lw	t1,84(sp)
20404930:	43c6                	lw	t2,80(sp)
20404932:	4436                	lw	s0,76(sp)
20404934:	4526                	lw	a0,72(sp)
20404936:	4596                	lw	a1,68(sp)
20404938:	4606                	lw	a2,64(sp)
2040493a:	56f2                	lw	a3,60(sp)
2040493c:	5762                	lw	a4,56(sp)
2040493e:	57d2                	lw	a5,52(sp)
20404940:	5842                	lw	a6,48(sp)
20404942:	58b2                	lw	a7,44(sp)
20404944:	5e22                	lw	t3,40(sp)
20404946:	5e92                	lw	t4,36(sp)
20404948:	5f02                	lw	t5,32(sp)
2040494a:	4ff2                	lw	t6,28(sp)
2040494c:	6125                	addi	sp,sp,96
2040494e:	30200073          	mret

20404952 <metal_lc4_interrupt_vector_handler>:
metal_lc4_interrupt_vector_handler():
C:/wsFreedomStudio/kernel/freedom-metal/src/drivers/riscv_cpu.c:234
20404952:	711d                	addi	sp,sp,-96
20404954:	ce86                	sw	ra,92(sp)
20404956:	cc96                	sw	t0,88(sp)
20404958:	ca9a                	sw	t1,84(sp)
2040495a:	c89e                	sw	t2,80(sp)
2040495c:	c6a2                	sw	s0,76(sp)
2040495e:	c4aa                	sw	a0,72(sp)
20404960:	c2ae                	sw	a1,68(sp)
20404962:	c0b2                	sw	a2,64(sp)
20404964:	de36                	sw	a3,60(sp)
20404966:	dc3a                	sw	a4,56(sp)
20404968:	da3e                	sw	a5,52(sp)
2040496a:	d842                	sw	a6,48(sp)
2040496c:	d646                	sw	a7,44(sp)
2040496e:	d472                	sw	t3,40(sp)
20404970:	d276                	sw	t4,36(sp)
20404972:	d07a                	sw	t5,32(sp)
20404974:	ce7e                	sw	t6,28(sp)
20404976:	1080                	addi	s0,sp,96
C:/wsFreedomStudio/kernel/freedom-metal/src/drivers/riscv_cpu.c:235
20404978:	fa4ff0ef          	jal	ra,2040411c <__metal_myhart_id>
2040497c:	872a                	mv	a4,a0
2040497e:	800007b7          	lui	a5,0x80000
20404982:	070a                	slli	a4,a4,0x2
20404984:	7a878793          	addi	a5,a5,1960 # 800007a8 <metal_segment_heap_target_end+0xffffecd8>
20404988:	97ba                	add	a5,a5,a4
2040498a:	439c                	lw	a5,0(a5)
2040498c:	faf42623          	sw	a5,-84(s0)
20404990:	fac42783          	lw	a5,-84(s0)
20404994:	c78d                	beqz	a5,204049be <metal_lc4_interrupt_vector_handler+0x6c>
C:/wsFreedomStudio/kernel/freedom-metal/src/drivers/riscv_cpu.c:235 (discriminator 1)
20404996:	fac42503          	lw	a0,-84(s0)
2040499a:	f04ff0ef          	jal	ra,2040409e <__metal_driver_cpu_interrupt_controller>
2040499e:	faa42423          	sw	a0,-88(s0)
204049a2:	fa842783          	lw	a5,-88(s0)
204049a6:	2787a783          	lw	a5,632(a5)
204049aa:	faf42223          	sw	a5,-92(s0)
204049ae:	fa842783          	lw	a5,-88(s0)
204049b2:	2707a783          	lw	a5,624(a5)
204049b6:	fa442583          	lw	a1,-92(s0)
204049ba:	4551                	li	a0,20
204049bc:	9782                	jalr	a5
C:/wsFreedomStudio/kernel/freedom-metal/src/drivers/riscv_cpu.c:236
204049be:	0001                	nop
204049c0:	40f6                	lw	ra,92(sp)
204049c2:	42e6                	lw	t0,88(sp)
204049c4:	4356                	lw	t1,84(sp)
204049c6:	43c6                	lw	t2,80(sp)
204049c8:	4436                	lw	s0,76(sp)
204049ca:	4526                	lw	a0,72(sp)
204049cc:	4596                	lw	a1,68(sp)
204049ce:	4606                	lw	a2,64(sp)
204049d0:	56f2                	lw	a3,60(sp)
204049d2:	5762                	lw	a4,56(sp)
204049d4:	57d2                	lw	a5,52(sp)
204049d6:	5842                	lw	a6,48(sp)
204049d8:	58b2                	lw	a7,44(sp)
204049da:	5e22                	lw	t3,40(sp)
204049dc:	5e92                	lw	t4,36(sp)
204049de:	5f02                	lw	t5,32(sp)
204049e0:	4ff2                	lw	t6,28(sp)
204049e2:	6125                	addi	sp,sp,96
204049e4:	30200073          	mret

204049e8 <metal_lc5_interrupt_vector_handler>:
metal_lc5_interrupt_vector_handler():
C:/wsFreedomStudio/kernel/freedom-metal/src/drivers/riscv_cpu.c:239
204049e8:	711d                	addi	sp,sp,-96
204049ea:	ce86                	sw	ra,92(sp)
204049ec:	cc96                	sw	t0,88(sp)
204049ee:	ca9a                	sw	t1,84(sp)
204049f0:	c89e                	sw	t2,80(sp)
204049f2:	c6a2                	sw	s0,76(sp)
204049f4:	c4aa                	sw	a0,72(sp)
204049f6:	c2ae                	sw	a1,68(sp)
204049f8:	c0b2                	sw	a2,64(sp)
204049fa:	de36                	sw	a3,60(sp)
204049fc:	dc3a                	sw	a4,56(sp)
204049fe:	da3e                	sw	a5,52(sp)
20404a00:	d842                	sw	a6,48(sp)
20404a02:	d646                	sw	a7,44(sp)
20404a04:	d472                	sw	t3,40(sp)
20404a06:	d276                	sw	t4,36(sp)
20404a08:	d07a                	sw	t5,32(sp)
20404a0a:	ce7e                	sw	t6,28(sp)
20404a0c:	1080                	addi	s0,sp,96
C:/wsFreedomStudio/kernel/freedom-metal/src/drivers/riscv_cpu.c:240
20404a0e:	f0eff0ef          	jal	ra,2040411c <__metal_myhart_id>
20404a12:	872a                	mv	a4,a0
20404a14:	800007b7          	lui	a5,0x80000
20404a18:	070a                	slli	a4,a4,0x2
20404a1a:	7a878793          	addi	a5,a5,1960 # 800007a8 <metal_segment_heap_target_end+0xffffecd8>
20404a1e:	97ba                	add	a5,a5,a4
20404a20:	439c                	lw	a5,0(a5)
20404a22:	faf42623          	sw	a5,-84(s0)
20404a26:	fac42783          	lw	a5,-84(s0)
20404a2a:	c78d                	beqz	a5,20404a54 <metal_lc5_interrupt_vector_handler+0x6c>
C:/wsFreedomStudio/kernel/freedom-metal/src/drivers/riscv_cpu.c:240 (discriminator 1)
20404a2c:	fac42503          	lw	a0,-84(s0)
20404a30:	e6eff0ef          	jal	ra,2040409e <__metal_driver_cpu_interrupt_controller>
20404a34:	faa42423          	sw	a0,-88(s0)
20404a38:	fa842783          	lw	a5,-88(s0)
20404a3c:	2907a783          	lw	a5,656(a5)
20404a40:	faf42223          	sw	a5,-92(s0)
20404a44:	fa842783          	lw	a5,-88(s0)
20404a48:	2887a783          	lw	a5,648(a5)
20404a4c:	fa442583          	lw	a1,-92(s0)
20404a50:	4555                	li	a0,21
20404a52:	9782                	jalr	a5
C:/wsFreedomStudio/kernel/freedom-metal/src/drivers/riscv_cpu.c:241
20404a54:	0001                	nop
20404a56:	40f6                	lw	ra,92(sp)
20404a58:	42e6                	lw	t0,88(sp)
20404a5a:	4356                	lw	t1,84(sp)
20404a5c:	43c6                	lw	t2,80(sp)
20404a5e:	4436                	lw	s0,76(sp)
20404a60:	4526                	lw	a0,72(sp)
20404a62:	4596                	lw	a1,68(sp)
20404a64:	4606                	lw	a2,64(sp)
20404a66:	56f2                	lw	a3,60(sp)
20404a68:	5762                	lw	a4,56(sp)
20404a6a:	57d2                	lw	a5,52(sp)
20404a6c:	5842                	lw	a6,48(sp)
20404a6e:	58b2                	lw	a7,44(sp)
20404a70:	5e22                	lw	t3,40(sp)
20404a72:	5e92                	lw	t4,36(sp)
20404a74:	5f02                	lw	t5,32(sp)
20404a76:	4ff2                	lw	t6,28(sp)
20404a78:	6125                	addi	sp,sp,96
20404a7a:	30200073          	mret

20404a7e <metal_lc6_interrupt_vector_handler>:
metal_lc6_interrupt_vector_handler():
C:/wsFreedomStudio/kernel/freedom-metal/src/drivers/riscv_cpu.c:244
20404a7e:	711d                	addi	sp,sp,-96
20404a80:	ce86                	sw	ra,92(sp)
20404a82:	cc96                	sw	t0,88(sp)
20404a84:	ca9a                	sw	t1,84(sp)
20404a86:	c89e                	sw	t2,80(sp)
20404a88:	c6a2                	sw	s0,76(sp)
20404a8a:	c4aa                	sw	a0,72(sp)
20404a8c:	c2ae                	sw	a1,68(sp)
20404a8e:	c0b2                	sw	a2,64(sp)
20404a90:	de36                	sw	a3,60(sp)
20404a92:	dc3a                	sw	a4,56(sp)
20404a94:	da3e                	sw	a5,52(sp)
20404a96:	d842                	sw	a6,48(sp)
20404a98:	d646                	sw	a7,44(sp)
20404a9a:	d472                	sw	t3,40(sp)
20404a9c:	d276                	sw	t4,36(sp)
20404a9e:	d07a                	sw	t5,32(sp)
20404aa0:	ce7e                	sw	t6,28(sp)
20404aa2:	1080                	addi	s0,sp,96
C:/wsFreedomStudio/kernel/freedom-metal/src/drivers/riscv_cpu.c:245
20404aa4:	e78ff0ef          	jal	ra,2040411c <__metal_myhart_id>
20404aa8:	872a                	mv	a4,a0
20404aaa:	800007b7          	lui	a5,0x80000
20404aae:	070a                	slli	a4,a4,0x2
20404ab0:	7a878793          	addi	a5,a5,1960 # 800007a8 <metal_segment_heap_target_end+0xffffecd8>
20404ab4:	97ba                	add	a5,a5,a4
20404ab6:	439c                	lw	a5,0(a5)
20404ab8:	faf42623          	sw	a5,-84(s0)
20404abc:	fac42783          	lw	a5,-84(s0)
20404ac0:	c78d                	beqz	a5,20404aea <metal_lc6_interrupt_vector_handler+0x6c>
C:/wsFreedomStudio/kernel/freedom-metal/src/drivers/riscv_cpu.c:245 (discriminator 1)
20404ac2:	fac42503          	lw	a0,-84(s0)
20404ac6:	dd8ff0ef          	jal	ra,2040409e <__metal_driver_cpu_interrupt_controller>
20404aca:	faa42423          	sw	a0,-88(s0)
20404ace:	fa842783          	lw	a5,-88(s0)
20404ad2:	2a87a783          	lw	a5,680(a5)
20404ad6:	faf42223          	sw	a5,-92(s0)
20404ada:	fa842783          	lw	a5,-88(s0)
20404ade:	2a07a783          	lw	a5,672(a5)
20404ae2:	fa442583          	lw	a1,-92(s0)
20404ae6:	4559                	li	a0,22
20404ae8:	9782                	jalr	a5
C:/wsFreedomStudio/kernel/freedom-metal/src/drivers/riscv_cpu.c:246
20404aea:	0001                	nop
20404aec:	40f6                	lw	ra,92(sp)
20404aee:	42e6                	lw	t0,88(sp)
20404af0:	4356                	lw	t1,84(sp)
20404af2:	43c6                	lw	t2,80(sp)
20404af4:	4436                	lw	s0,76(sp)
20404af6:	4526                	lw	a0,72(sp)
20404af8:	4596                	lw	a1,68(sp)
20404afa:	4606                	lw	a2,64(sp)
20404afc:	56f2                	lw	a3,60(sp)
20404afe:	5762                	lw	a4,56(sp)
20404b00:	57d2                	lw	a5,52(sp)
20404b02:	5842                	lw	a6,48(sp)
20404b04:	58b2                	lw	a7,44(sp)
20404b06:	5e22                	lw	t3,40(sp)
20404b08:	5e92                	lw	t4,36(sp)
20404b0a:	5f02                	lw	t5,32(sp)
20404b0c:	4ff2                	lw	t6,28(sp)
20404b0e:	6125                	addi	sp,sp,96
20404b10:	30200073          	mret

20404b14 <metal_lc7_interrupt_vector_handler>:
metal_lc7_interrupt_vector_handler():
C:/wsFreedomStudio/kernel/freedom-metal/src/drivers/riscv_cpu.c:249
20404b14:	711d                	addi	sp,sp,-96
20404b16:	ce86                	sw	ra,92(sp)
20404b18:	cc96                	sw	t0,88(sp)
20404b1a:	ca9a                	sw	t1,84(sp)
20404b1c:	c89e                	sw	t2,80(sp)
20404b1e:	c6a2                	sw	s0,76(sp)
20404b20:	c4aa                	sw	a0,72(sp)
20404b22:	c2ae                	sw	a1,68(sp)
20404b24:	c0b2                	sw	a2,64(sp)
20404b26:	de36                	sw	a3,60(sp)
20404b28:	dc3a                	sw	a4,56(sp)
20404b2a:	da3e                	sw	a5,52(sp)
20404b2c:	d842                	sw	a6,48(sp)
20404b2e:	d646                	sw	a7,44(sp)
20404b30:	d472                	sw	t3,40(sp)
20404b32:	d276                	sw	t4,36(sp)
20404b34:	d07a                	sw	t5,32(sp)
20404b36:	ce7e                	sw	t6,28(sp)
20404b38:	1080                	addi	s0,sp,96
C:/wsFreedomStudio/kernel/freedom-metal/src/drivers/riscv_cpu.c:250
20404b3a:	de2ff0ef          	jal	ra,2040411c <__metal_myhart_id>
20404b3e:	872a                	mv	a4,a0
20404b40:	800007b7          	lui	a5,0x80000
20404b44:	070a                	slli	a4,a4,0x2
20404b46:	7a878793          	addi	a5,a5,1960 # 800007a8 <metal_segment_heap_target_end+0xffffecd8>
20404b4a:	97ba                	add	a5,a5,a4
20404b4c:	439c                	lw	a5,0(a5)
20404b4e:	faf42623          	sw	a5,-84(s0)
20404b52:	fac42783          	lw	a5,-84(s0)
20404b56:	c78d                	beqz	a5,20404b80 <metal_lc7_interrupt_vector_handler+0x6c>
C:/wsFreedomStudio/kernel/freedom-metal/src/drivers/riscv_cpu.c:250 (discriminator 1)
20404b58:	fac42503          	lw	a0,-84(s0)
20404b5c:	d42ff0ef          	jal	ra,2040409e <__metal_driver_cpu_interrupt_controller>
20404b60:	faa42423          	sw	a0,-88(s0)
20404b64:	fa842783          	lw	a5,-88(s0)
20404b68:	2c07a783          	lw	a5,704(a5)
20404b6c:	faf42223          	sw	a5,-92(s0)
20404b70:	fa842783          	lw	a5,-88(s0)
20404b74:	2b87a783          	lw	a5,696(a5)
20404b78:	fa442583          	lw	a1,-92(s0)
20404b7c:	455d                	li	a0,23
20404b7e:	9782                	jalr	a5
C:/wsFreedomStudio/kernel/freedom-metal/src/drivers/riscv_cpu.c:251
20404b80:	0001                	nop
20404b82:	40f6                	lw	ra,92(sp)
20404b84:	42e6                	lw	t0,88(sp)
20404b86:	4356                	lw	t1,84(sp)
20404b88:	43c6                	lw	t2,80(sp)
20404b8a:	4436                	lw	s0,76(sp)
20404b8c:	4526                	lw	a0,72(sp)
20404b8e:	4596                	lw	a1,68(sp)
20404b90:	4606                	lw	a2,64(sp)
20404b92:	56f2                	lw	a3,60(sp)
20404b94:	5762                	lw	a4,56(sp)
20404b96:	57d2                	lw	a5,52(sp)
20404b98:	5842                	lw	a6,48(sp)
20404b9a:	58b2                	lw	a7,44(sp)
20404b9c:	5e22                	lw	t3,40(sp)
20404b9e:	5e92                	lw	t4,36(sp)
20404ba0:	5f02                	lw	t5,32(sp)
20404ba2:	4ff2                	lw	t6,28(sp)
20404ba4:	6125                	addi	sp,sp,96
20404ba6:	30200073          	mret

20404baa <metal_lc8_interrupt_vector_handler>:
metal_lc8_interrupt_vector_handler():
C:/wsFreedomStudio/kernel/freedom-metal/src/drivers/riscv_cpu.c:254
20404baa:	711d                	addi	sp,sp,-96
20404bac:	ce86                	sw	ra,92(sp)
20404bae:	cc96                	sw	t0,88(sp)
20404bb0:	ca9a                	sw	t1,84(sp)
20404bb2:	c89e                	sw	t2,80(sp)
20404bb4:	c6a2                	sw	s0,76(sp)
20404bb6:	c4aa                	sw	a0,72(sp)
20404bb8:	c2ae                	sw	a1,68(sp)
20404bba:	c0b2                	sw	a2,64(sp)
20404bbc:	de36                	sw	a3,60(sp)
20404bbe:	dc3a                	sw	a4,56(sp)
20404bc0:	da3e                	sw	a5,52(sp)
20404bc2:	d842                	sw	a6,48(sp)
20404bc4:	d646                	sw	a7,44(sp)
20404bc6:	d472                	sw	t3,40(sp)
20404bc8:	d276                	sw	t4,36(sp)
20404bca:	d07a                	sw	t5,32(sp)
20404bcc:	ce7e                	sw	t6,28(sp)
20404bce:	1080                	addi	s0,sp,96
C:/wsFreedomStudio/kernel/freedom-metal/src/drivers/riscv_cpu.c:255
20404bd0:	d4cff0ef          	jal	ra,2040411c <__metal_myhart_id>
20404bd4:	872a                	mv	a4,a0
20404bd6:	800007b7          	lui	a5,0x80000
20404bda:	070a                	slli	a4,a4,0x2
20404bdc:	7a878793          	addi	a5,a5,1960 # 800007a8 <metal_segment_heap_target_end+0xffffecd8>
20404be0:	97ba                	add	a5,a5,a4
20404be2:	439c                	lw	a5,0(a5)
20404be4:	faf42623          	sw	a5,-84(s0)
20404be8:	fac42783          	lw	a5,-84(s0)
20404bec:	c78d                	beqz	a5,20404c16 <metal_lc8_interrupt_vector_handler+0x6c>
C:/wsFreedomStudio/kernel/freedom-metal/src/drivers/riscv_cpu.c:255 (discriminator 1)
20404bee:	fac42503          	lw	a0,-84(s0)
20404bf2:	cacff0ef          	jal	ra,2040409e <__metal_driver_cpu_interrupt_controller>
20404bf6:	faa42423          	sw	a0,-88(s0)
20404bfa:	fa842783          	lw	a5,-88(s0)
20404bfe:	2d87a783          	lw	a5,728(a5)
20404c02:	faf42223          	sw	a5,-92(s0)
20404c06:	fa842783          	lw	a5,-88(s0)
20404c0a:	2d07a783          	lw	a5,720(a5)
20404c0e:	fa442583          	lw	a1,-92(s0)
20404c12:	4561                	li	a0,24
20404c14:	9782                	jalr	a5
C:/wsFreedomStudio/kernel/freedom-metal/src/drivers/riscv_cpu.c:256
20404c16:	0001                	nop
20404c18:	40f6                	lw	ra,92(sp)
20404c1a:	42e6                	lw	t0,88(sp)
20404c1c:	4356                	lw	t1,84(sp)
20404c1e:	43c6                	lw	t2,80(sp)
20404c20:	4436                	lw	s0,76(sp)
20404c22:	4526                	lw	a0,72(sp)
20404c24:	4596                	lw	a1,68(sp)
20404c26:	4606                	lw	a2,64(sp)
20404c28:	56f2                	lw	a3,60(sp)
20404c2a:	5762                	lw	a4,56(sp)
20404c2c:	57d2                	lw	a5,52(sp)
20404c2e:	5842                	lw	a6,48(sp)
20404c30:	58b2                	lw	a7,44(sp)
20404c32:	5e22                	lw	t3,40(sp)
20404c34:	5e92                	lw	t4,36(sp)
20404c36:	5f02                	lw	t5,32(sp)
20404c38:	4ff2                	lw	t6,28(sp)
20404c3a:	6125                	addi	sp,sp,96
20404c3c:	30200073          	mret

20404c40 <metal_lc9_interrupt_vector_handler>:
metal_lc9_interrupt_vector_handler():
C:/wsFreedomStudio/kernel/freedom-metal/src/drivers/riscv_cpu.c:259
20404c40:	711d                	addi	sp,sp,-96
20404c42:	ce86                	sw	ra,92(sp)
20404c44:	cc96                	sw	t0,88(sp)
20404c46:	ca9a                	sw	t1,84(sp)
20404c48:	c89e                	sw	t2,80(sp)
20404c4a:	c6a2                	sw	s0,76(sp)
20404c4c:	c4aa                	sw	a0,72(sp)
20404c4e:	c2ae                	sw	a1,68(sp)
20404c50:	c0b2                	sw	a2,64(sp)
20404c52:	de36                	sw	a3,60(sp)
20404c54:	dc3a                	sw	a4,56(sp)
20404c56:	da3e                	sw	a5,52(sp)
20404c58:	d842                	sw	a6,48(sp)
20404c5a:	d646                	sw	a7,44(sp)
20404c5c:	d472                	sw	t3,40(sp)
20404c5e:	d276                	sw	t4,36(sp)
20404c60:	d07a                	sw	t5,32(sp)
20404c62:	ce7e                	sw	t6,28(sp)
20404c64:	1080                	addi	s0,sp,96
C:/wsFreedomStudio/kernel/freedom-metal/src/drivers/riscv_cpu.c:260
20404c66:	cb6ff0ef          	jal	ra,2040411c <__metal_myhart_id>
20404c6a:	872a                	mv	a4,a0
20404c6c:	800007b7          	lui	a5,0x80000
20404c70:	070a                	slli	a4,a4,0x2
20404c72:	7a878793          	addi	a5,a5,1960 # 800007a8 <metal_segment_heap_target_end+0xffffecd8>
20404c76:	97ba                	add	a5,a5,a4
20404c78:	439c                	lw	a5,0(a5)
20404c7a:	faf42623          	sw	a5,-84(s0)
20404c7e:	fac42783          	lw	a5,-84(s0)
20404c82:	c78d                	beqz	a5,20404cac <metal_lc9_interrupt_vector_handler+0x6c>
C:/wsFreedomStudio/kernel/freedom-metal/src/drivers/riscv_cpu.c:260 (discriminator 1)
20404c84:	fac42503          	lw	a0,-84(s0)
20404c88:	c16ff0ef          	jal	ra,2040409e <__metal_driver_cpu_interrupt_controller>
20404c8c:	faa42423          	sw	a0,-88(s0)
20404c90:	fa842783          	lw	a5,-88(s0)
20404c94:	2f07a783          	lw	a5,752(a5)
20404c98:	faf42223          	sw	a5,-92(s0)
20404c9c:	fa842783          	lw	a5,-88(s0)
20404ca0:	2e87a783          	lw	a5,744(a5)
20404ca4:	fa442583          	lw	a1,-92(s0)
20404ca8:	4565                	li	a0,25
20404caa:	9782                	jalr	a5
C:/wsFreedomStudio/kernel/freedom-metal/src/drivers/riscv_cpu.c:261
20404cac:	0001                	nop
20404cae:	40f6                	lw	ra,92(sp)
20404cb0:	42e6                	lw	t0,88(sp)
20404cb2:	4356                	lw	t1,84(sp)
20404cb4:	43c6                	lw	t2,80(sp)
20404cb6:	4436                	lw	s0,76(sp)
20404cb8:	4526                	lw	a0,72(sp)
20404cba:	4596                	lw	a1,68(sp)
20404cbc:	4606                	lw	a2,64(sp)
20404cbe:	56f2                	lw	a3,60(sp)
20404cc0:	5762                	lw	a4,56(sp)
20404cc2:	57d2                	lw	a5,52(sp)
20404cc4:	5842                	lw	a6,48(sp)
20404cc6:	58b2                	lw	a7,44(sp)
20404cc8:	5e22                	lw	t3,40(sp)
20404cca:	5e92                	lw	t4,36(sp)
20404ccc:	5f02                	lw	t5,32(sp)
20404cce:	4ff2                	lw	t6,28(sp)
20404cd0:	6125                	addi	sp,sp,96
20404cd2:	30200073          	mret

20404cd6 <metal_lc10_interrupt_vector_handler>:
metal_lc10_interrupt_vector_handler():
C:/wsFreedomStudio/kernel/freedom-metal/src/drivers/riscv_cpu.c:265
20404cd6:	711d                	addi	sp,sp,-96
20404cd8:	ce86                	sw	ra,92(sp)
20404cda:	cc96                	sw	t0,88(sp)
20404cdc:	ca9a                	sw	t1,84(sp)
20404cde:	c89e                	sw	t2,80(sp)
20404ce0:	c6a2                	sw	s0,76(sp)
20404ce2:	c4aa                	sw	a0,72(sp)
20404ce4:	c2ae                	sw	a1,68(sp)
20404ce6:	c0b2                	sw	a2,64(sp)
20404ce8:	de36                	sw	a3,60(sp)
20404cea:	dc3a                	sw	a4,56(sp)
20404cec:	da3e                	sw	a5,52(sp)
20404cee:	d842                	sw	a6,48(sp)
20404cf0:	d646                	sw	a7,44(sp)
20404cf2:	d472                	sw	t3,40(sp)
20404cf4:	d276                	sw	t4,36(sp)
20404cf6:	d07a                	sw	t5,32(sp)
20404cf8:	ce7e                	sw	t6,28(sp)
20404cfa:	1080                	addi	s0,sp,96
C:/wsFreedomStudio/kernel/freedom-metal/src/drivers/riscv_cpu.c:266
20404cfc:	c20ff0ef          	jal	ra,2040411c <__metal_myhart_id>
20404d00:	872a                	mv	a4,a0
20404d02:	800007b7          	lui	a5,0x80000
20404d06:	070a                	slli	a4,a4,0x2
20404d08:	7a878793          	addi	a5,a5,1960 # 800007a8 <metal_segment_heap_target_end+0xffffecd8>
20404d0c:	97ba                	add	a5,a5,a4
20404d0e:	439c                	lw	a5,0(a5)
20404d10:	faf42623          	sw	a5,-84(s0)
20404d14:	fac42783          	lw	a5,-84(s0)
20404d18:	c78d                	beqz	a5,20404d42 <metal_lc10_interrupt_vector_handler+0x6c>
C:/wsFreedomStudio/kernel/freedom-metal/src/drivers/riscv_cpu.c:266 (discriminator 1)
20404d1a:	fac42503          	lw	a0,-84(s0)
20404d1e:	b80ff0ef          	jal	ra,2040409e <__metal_driver_cpu_interrupt_controller>
20404d22:	faa42423          	sw	a0,-88(s0)
20404d26:	fa842783          	lw	a5,-88(s0)
20404d2a:	3087a783          	lw	a5,776(a5)
20404d2e:	faf42223          	sw	a5,-92(s0)
20404d32:	fa842783          	lw	a5,-88(s0)
20404d36:	3007a783          	lw	a5,768(a5)
20404d3a:	fa442583          	lw	a1,-92(s0)
20404d3e:	4569                	li	a0,26
20404d40:	9782                	jalr	a5
C:/wsFreedomStudio/kernel/freedom-metal/src/drivers/riscv_cpu.c:267
20404d42:	0001                	nop
20404d44:	40f6                	lw	ra,92(sp)
20404d46:	42e6                	lw	t0,88(sp)
20404d48:	4356                	lw	t1,84(sp)
20404d4a:	43c6                	lw	t2,80(sp)
20404d4c:	4436                	lw	s0,76(sp)
20404d4e:	4526                	lw	a0,72(sp)
20404d50:	4596                	lw	a1,68(sp)
20404d52:	4606                	lw	a2,64(sp)
20404d54:	56f2                	lw	a3,60(sp)
20404d56:	5762                	lw	a4,56(sp)
20404d58:	57d2                	lw	a5,52(sp)
20404d5a:	5842                	lw	a6,48(sp)
20404d5c:	58b2                	lw	a7,44(sp)
20404d5e:	5e22                	lw	t3,40(sp)
20404d60:	5e92                	lw	t4,36(sp)
20404d62:	5f02                	lw	t5,32(sp)
20404d64:	4ff2                	lw	t6,28(sp)
20404d66:	6125                	addi	sp,sp,96
20404d68:	30200073          	mret

20404d6c <metal_lc11_interrupt_vector_handler>:
metal_lc11_interrupt_vector_handler():
C:/wsFreedomStudio/kernel/freedom-metal/src/drivers/riscv_cpu.c:271
20404d6c:	711d                	addi	sp,sp,-96
20404d6e:	ce86                	sw	ra,92(sp)
20404d70:	cc96                	sw	t0,88(sp)
20404d72:	ca9a                	sw	t1,84(sp)
20404d74:	c89e                	sw	t2,80(sp)
20404d76:	c6a2                	sw	s0,76(sp)
20404d78:	c4aa                	sw	a0,72(sp)
20404d7a:	c2ae                	sw	a1,68(sp)
20404d7c:	c0b2                	sw	a2,64(sp)
20404d7e:	de36                	sw	a3,60(sp)
20404d80:	dc3a                	sw	a4,56(sp)
20404d82:	da3e                	sw	a5,52(sp)
20404d84:	d842                	sw	a6,48(sp)
20404d86:	d646                	sw	a7,44(sp)
20404d88:	d472                	sw	t3,40(sp)
20404d8a:	d276                	sw	t4,36(sp)
20404d8c:	d07a                	sw	t5,32(sp)
20404d8e:	ce7e                	sw	t6,28(sp)
20404d90:	1080                	addi	s0,sp,96
C:/wsFreedomStudio/kernel/freedom-metal/src/drivers/riscv_cpu.c:272
20404d92:	b8aff0ef          	jal	ra,2040411c <__metal_myhart_id>
20404d96:	872a                	mv	a4,a0
20404d98:	800007b7          	lui	a5,0x80000
20404d9c:	070a                	slli	a4,a4,0x2
20404d9e:	7a878793          	addi	a5,a5,1960 # 800007a8 <metal_segment_heap_target_end+0xffffecd8>
20404da2:	97ba                	add	a5,a5,a4
20404da4:	439c                	lw	a5,0(a5)
20404da6:	faf42623          	sw	a5,-84(s0)
20404daa:	fac42783          	lw	a5,-84(s0)
20404dae:	c78d                	beqz	a5,20404dd8 <metal_lc11_interrupt_vector_handler+0x6c>
C:/wsFreedomStudio/kernel/freedom-metal/src/drivers/riscv_cpu.c:272 (discriminator 1)
20404db0:	fac42503          	lw	a0,-84(s0)
20404db4:	aeaff0ef          	jal	ra,2040409e <__metal_driver_cpu_interrupt_controller>
20404db8:	faa42423          	sw	a0,-88(s0)
20404dbc:	fa842783          	lw	a5,-88(s0)
20404dc0:	3207a783          	lw	a5,800(a5)
20404dc4:	faf42223          	sw	a5,-92(s0)
20404dc8:	fa842783          	lw	a5,-88(s0)
20404dcc:	3187a783          	lw	a5,792(a5)
20404dd0:	fa442583          	lw	a1,-92(s0)
20404dd4:	456d                	li	a0,27
20404dd6:	9782                	jalr	a5
C:/wsFreedomStudio/kernel/freedom-metal/src/drivers/riscv_cpu.c:273
20404dd8:	0001                	nop
20404dda:	40f6                	lw	ra,92(sp)
20404ddc:	42e6                	lw	t0,88(sp)
20404dde:	4356                	lw	t1,84(sp)
20404de0:	43c6                	lw	t2,80(sp)
20404de2:	4436                	lw	s0,76(sp)
20404de4:	4526                	lw	a0,72(sp)
20404de6:	4596                	lw	a1,68(sp)
20404de8:	4606                	lw	a2,64(sp)
20404dea:	56f2                	lw	a3,60(sp)
20404dec:	5762                	lw	a4,56(sp)
20404dee:	57d2                	lw	a5,52(sp)
20404df0:	5842                	lw	a6,48(sp)
20404df2:	58b2                	lw	a7,44(sp)
20404df4:	5e22                	lw	t3,40(sp)
20404df6:	5e92                	lw	t4,36(sp)
20404df8:	5f02                	lw	t5,32(sp)
20404dfa:	4ff2                	lw	t6,28(sp)
20404dfc:	6125                	addi	sp,sp,96
20404dfe:	30200073          	mret

20404e02 <metal_lc12_interrupt_vector_handler>:
metal_lc12_interrupt_vector_handler():
C:/wsFreedomStudio/kernel/freedom-metal/src/drivers/riscv_cpu.c:277
20404e02:	711d                	addi	sp,sp,-96
20404e04:	ce86                	sw	ra,92(sp)
20404e06:	cc96                	sw	t0,88(sp)
20404e08:	ca9a                	sw	t1,84(sp)
20404e0a:	c89e                	sw	t2,80(sp)
20404e0c:	c6a2                	sw	s0,76(sp)
20404e0e:	c4aa                	sw	a0,72(sp)
20404e10:	c2ae                	sw	a1,68(sp)
20404e12:	c0b2                	sw	a2,64(sp)
20404e14:	de36                	sw	a3,60(sp)
20404e16:	dc3a                	sw	a4,56(sp)
20404e18:	da3e                	sw	a5,52(sp)
20404e1a:	d842                	sw	a6,48(sp)
20404e1c:	d646                	sw	a7,44(sp)
20404e1e:	d472                	sw	t3,40(sp)
20404e20:	d276                	sw	t4,36(sp)
20404e22:	d07a                	sw	t5,32(sp)
20404e24:	ce7e                	sw	t6,28(sp)
20404e26:	1080                	addi	s0,sp,96
C:/wsFreedomStudio/kernel/freedom-metal/src/drivers/riscv_cpu.c:278
20404e28:	af4ff0ef          	jal	ra,2040411c <__metal_myhart_id>
20404e2c:	872a                	mv	a4,a0
20404e2e:	800007b7          	lui	a5,0x80000
20404e32:	070a                	slli	a4,a4,0x2
20404e34:	7a878793          	addi	a5,a5,1960 # 800007a8 <metal_segment_heap_target_end+0xffffecd8>
20404e38:	97ba                	add	a5,a5,a4
20404e3a:	439c                	lw	a5,0(a5)
20404e3c:	faf42623          	sw	a5,-84(s0)
20404e40:	fac42783          	lw	a5,-84(s0)
20404e44:	c78d                	beqz	a5,20404e6e <metal_lc12_interrupt_vector_handler+0x6c>
C:/wsFreedomStudio/kernel/freedom-metal/src/drivers/riscv_cpu.c:278 (discriminator 1)
20404e46:	fac42503          	lw	a0,-84(s0)
20404e4a:	a54ff0ef          	jal	ra,2040409e <__metal_driver_cpu_interrupt_controller>
20404e4e:	faa42423          	sw	a0,-88(s0)
20404e52:	fa842783          	lw	a5,-88(s0)
20404e56:	3387a783          	lw	a5,824(a5)
20404e5a:	faf42223          	sw	a5,-92(s0)
20404e5e:	fa842783          	lw	a5,-88(s0)
20404e62:	3307a783          	lw	a5,816(a5)
20404e66:	fa442583          	lw	a1,-92(s0)
20404e6a:	4571                	li	a0,28
20404e6c:	9782                	jalr	a5
C:/wsFreedomStudio/kernel/freedom-metal/src/drivers/riscv_cpu.c:279
20404e6e:	0001                	nop
20404e70:	40f6                	lw	ra,92(sp)
20404e72:	42e6                	lw	t0,88(sp)
20404e74:	4356                	lw	t1,84(sp)
20404e76:	43c6                	lw	t2,80(sp)
20404e78:	4436                	lw	s0,76(sp)
20404e7a:	4526                	lw	a0,72(sp)
20404e7c:	4596                	lw	a1,68(sp)
20404e7e:	4606                	lw	a2,64(sp)
20404e80:	56f2                	lw	a3,60(sp)
20404e82:	5762                	lw	a4,56(sp)
20404e84:	57d2                	lw	a5,52(sp)
20404e86:	5842                	lw	a6,48(sp)
20404e88:	58b2                	lw	a7,44(sp)
20404e8a:	5e22                	lw	t3,40(sp)
20404e8c:	5e92                	lw	t4,36(sp)
20404e8e:	5f02                	lw	t5,32(sp)
20404e90:	4ff2                	lw	t6,28(sp)
20404e92:	6125                	addi	sp,sp,96
20404e94:	30200073          	mret

20404e98 <metal_lc13_interrupt_vector_handler>:
metal_lc13_interrupt_vector_handler():
C:/wsFreedomStudio/kernel/freedom-metal/src/drivers/riscv_cpu.c:283
20404e98:	711d                	addi	sp,sp,-96
20404e9a:	ce86                	sw	ra,92(sp)
20404e9c:	cc96                	sw	t0,88(sp)
20404e9e:	ca9a                	sw	t1,84(sp)
20404ea0:	c89e                	sw	t2,80(sp)
20404ea2:	c6a2                	sw	s0,76(sp)
20404ea4:	c4aa                	sw	a0,72(sp)
20404ea6:	c2ae                	sw	a1,68(sp)
20404ea8:	c0b2                	sw	a2,64(sp)
20404eaa:	de36                	sw	a3,60(sp)
20404eac:	dc3a                	sw	a4,56(sp)
20404eae:	da3e                	sw	a5,52(sp)
20404eb0:	d842                	sw	a6,48(sp)
20404eb2:	d646                	sw	a7,44(sp)
20404eb4:	d472                	sw	t3,40(sp)
20404eb6:	d276                	sw	t4,36(sp)
20404eb8:	d07a                	sw	t5,32(sp)
20404eba:	ce7e                	sw	t6,28(sp)
20404ebc:	1080                	addi	s0,sp,96
C:/wsFreedomStudio/kernel/freedom-metal/src/drivers/riscv_cpu.c:284
20404ebe:	a5eff0ef          	jal	ra,2040411c <__metal_myhart_id>
20404ec2:	872a                	mv	a4,a0
20404ec4:	800007b7          	lui	a5,0x80000
20404ec8:	070a                	slli	a4,a4,0x2
20404eca:	7a878793          	addi	a5,a5,1960 # 800007a8 <metal_segment_heap_target_end+0xffffecd8>
20404ece:	97ba                	add	a5,a5,a4
20404ed0:	439c                	lw	a5,0(a5)
20404ed2:	faf42623          	sw	a5,-84(s0)
20404ed6:	fac42783          	lw	a5,-84(s0)
20404eda:	c78d                	beqz	a5,20404f04 <metal_lc13_interrupt_vector_handler+0x6c>
C:/wsFreedomStudio/kernel/freedom-metal/src/drivers/riscv_cpu.c:284 (discriminator 1)
20404edc:	fac42503          	lw	a0,-84(s0)
20404ee0:	9beff0ef          	jal	ra,2040409e <__metal_driver_cpu_interrupt_controller>
20404ee4:	faa42423          	sw	a0,-88(s0)
20404ee8:	fa842783          	lw	a5,-88(s0)
20404eec:	3507a783          	lw	a5,848(a5)
20404ef0:	faf42223          	sw	a5,-92(s0)
20404ef4:	fa842783          	lw	a5,-88(s0)
20404ef8:	3487a783          	lw	a5,840(a5)
20404efc:	fa442583          	lw	a1,-92(s0)
20404f00:	4575                	li	a0,29
20404f02:	9782                	jalr	a5
C:/wsFreedomStudio/kernel/freedom-metal/src/drivers/riscv_cpu.c:285
20404f04:	0001                	nop
20404f06:	40f6                	lw	ra,92(sp)
20404f08:	42e6                	lw	t0,88(sp)
20404f0a:	4356                	lw	t1,84(sp)
20404f0c:	43c6                	lw	t2,80(sp)
20404f0e:	4436                	lw	s0,76(sp)
20404f10:	4526                	lw	a0,72(sp)
20404f12:	4596                	lw	a1,68(sp)
20404f14:	4606                	lw	a2,64(sp)
20404f16:	56f2                	lw	a3,60(sp)
20404f18:	5762                	lw	a4,56(sp)
20404f1a:	57d2                	lw	a5,52(sp)
20404f1c:	5842                	lw	a6,48(sp)
20404f1e:	58b2                	lw	a7,44(sp)
20404f20:	5e22                	lw	t3,40(sp)
20404f22:	5e92                	lw	t4,36(sp)
20404f24:	5f02                	lw	t5,32(sp)
20404f26:	4ff2                	lw	t6,28(sp)
20404f28:	6125                	addi	sp,sp,96
20404f2a:	30200073          	mret

20404f2e <metal_lc14_interrupt_vector_handler>:
metal_lc14_interrupt_vector_handler():
C:/wsFreedomStudio/kernel/freedom-metal/src/drivers/riscv_cpu.c:289
20404f2e:	711d                	addi	sp,sp,-96
20404f30:	ce86                	sw	ra,92(sp)
20404f32:	cc96                	sw	t0,88(sp)
20404f34:	ca9a                	sw	t1,84(sp)
20404f36:	c89e                	sw	t2,80(sp)
20404f38:	c6a2                	sw	s0,76(sp)
20404f3a:	c4aa                	sw	a0,72(sp)
20404f3c:	c2ae                	sw	a1,68(sp)
20404f3e:	c0b2                	sw	a2,64(sp)
20404f40:	de36                	sw	a3,60(sp)
20404f42:	dc3a                	sw	a4,56(sp)
20404f44:	da3e                	sw	a5,52(sp)
20404f46:	d842                	sw	a6,48(sp)
20404f48:	d646                	sw	a7,44(sp)
20404f4a:	d472                	sw	t3,40(sp)
20404f4c:	d276                	sw	t4,36(sp)
20404f4e:	d07a                	sw	t5,32(sp)
20404f50:	ce7e                	sw	t6,28(sp)
20404f52:	1080                	addi	s0,sp,96
C:/wsFreedomStudio/kernel/freedom-metal/src/drivers/riscv_cpu.c:290
20404f54:	9c8ff0ef          	jal	ra,2040411c <__metal_myhart_id>
20404f58:	872a                	mv	a4,a0
20404f5a:	800007b7          	lui	a5,0x80000
20404f5e:	070a                	slli	a4,a4,0x2
20404f60:	7a878793          	addi	a5,a5,1960 # 800007a8 <metal_segment_heap_target_end+0xffffecd8>
20404f64:	97ba                	add	a5,a5,a4
20404f66:	439c                	lw	a5,0(a5)
20404f68:	faf42623          	sw	a5,-84(s0)
20404f6c:	fac42783          	lw	a5,-84(s0)
20404f70:	c78d                	beqz	a5,20404f9a <metal_lc14_interrupt_vector_handler+0x6c>
C:/wsFreedomStudio/kernel/freedom-metal/src/drivers/riscv_cpu.c:290 (discriminator 1)
20404f72:	fac42503          	lw	a0,-84(s0)
20404f76:	928ff0ef          	jal	ra,2040409e <__metal_driver_cpu_interrupt_controller>
20404f7a:	faa42423          	sw	a0,-88(s0)
20404f7e:	fa842783          	lw	a5,-88(s0)
20404f82:	3687a783          	lw	a5,872(a5)
20404f86:	faf42223          	sw	a5,-92(s0)
20404f8a:	fa842783          	lw	a5,-88(s0)
20404f8e:	3607a783          	lw	a5,864(a5)
20404f92:	fa442583          	lw	a1,-92(s0)
20404f96:	4579                	li	a0,30
20404f98:	9782                	jalr	a5
C:/wsFreedomStudio/kernel/freedom-metal/src/drivers/riscv_cpu.c:291
20404f9a:	0001                	nop
20404f9c:	40f6                	lw	ra,92(sp)
20404f9e:	42e6                	lw	t0,88(sp)
20404fa0:	4356                	lw	t1,84(sp)
20404fa2:	43c6                	lw	t2,80(sp)
20404fa4:	4436                	lw	s0,76(sp)
20404fa6:	4526                	lw	a0,72(sp)
20404fa8:	4596                	lw	a1,68(sp)
20404faa:	4606                	lw	a2,64(sp)
20404fac:	56f2                	lw	a3,60(sp)
20404fae:	5762                	lw	a4,56(sp)
20404fb0:	57d2                	lw	a5,52(sp)
20404fb2:	5842                	lw	a6,48(sp)
20404fb4:	58b2                	lw	a7,44(sp)
20404fb6:	5e22                	lw	t3,40(sp)
20404fb8:	5e92                	lw	t4,36(sp)
20404fba:	5f02                	lw	t5,32(sp)
20404fbc:	4ff2                	lw	t6,28(sp)
20404fbe:	6125                	addi	sp,sp,96
20404fc0:	30200073          	mret

20404fc4 <metal_lc15_interrupt_vector_handler>:
metal_lc15_interrupt_vector_handler():
C:/wsFreedomStudio/kernel/freedom-metal/src/drivers/riscv_cpu.c:295
20404fc4:	711d                	addi	sp,sp,-96
20404fc6:	ce86                	sw	ra,92(sp)
20404fc8:	cc96                	sw	t0,88(sp)
20404fca:	ca9a                	sw	t1,84(sp)
20404fcc:	c89e                	sw	t2,80(sp)
20404fce:	c6a2                	sw	s0,76(sp)
20404fd0:	c4aa                	sw	a0,72(sp)
20404fd2:	c2ae                	sw	a1,68(sp)
20404fd4:	c0b2                	sw	a2,64(sp)
20404fd6:	de36                	sw	a3,60(sp)
20404fd8:	dc3a                	sw	a4,56(sp)
20404fda:	da3e                	sw	a5,52(sp)
20404fdc:	d842                	sw	a6,48(sp)
20404fde:	d646                	sw	a7,44(sp)
20404fe0:	d472                	sw	t3,40(sp)
20404fe2:	d276                	sw	t4,36(sp)
20404fe4:	d07a                	sw	t5,32(sp)
20404fe6:	ce7e                	sw	t6,28(sp)
20404fe8:	1080                	addi	s0,sp,96
C:/wsFreedomStudio/kernel/freedom-metal/src/drivers/riscv_cpu.c:296
20404fea:	932ff0ef          	jal	ra,2040411c <__metal_myhart_id>
20404fee:	872a                	mv	a4,a0
20404ff0:	800007b7          	lui	a5,0x80000
20404ff4:	070a                	slli	a4,a4,0x2
20404ff6:	7a878793          	addi	a5,a5,1960 # 800007a8 <metal_segment_heap_target_end+0xffffecd8>
20404ffa:	97ba                	add	a5,a5,a4
20404ffc:	439c                	lw	a5,0(a5)
20404ffe:	faf42623          	sw	a5,-84(s0)
20405002:	fac42783          	lw	a5,-84(s0)
20405006:	c78d                	beqz	a5,20405030 <metal_lc15_interrupt_vector_handler+0x6c>
C:/wsFreedomStudio/kernel/freedom-metal/src/drivers/riscv_cpu.c:296 (discriminator 1)
20405008:	fac42503          	lw	a0,-84(s0)
2040500c:	892ff0ef          	jal	ra,2040409e <__metal_driver_cpu_interrupt_controller>
20405010:	faa42423          	sw	a0,-88(s0)
20405014:	fa842783          	lw	a5,-88(s0)
20405018:	3807a783          	lw	a5,896(a5)
2040501c:	faf42223          	sw	a5,-92(s0)
20405020:	fa842783          	lw	a5,-88(s0)
20405024:	3787a783          	lw	a5,888(a5)
20405028:	fa442583          	lw	a1,-92(s0)
2040502c:	457d                	li	a0,31
2040502e:	9782                	jalr	a5
C:/wsFreedomStudio/kernel/freedom-metal/src/drivers/riscv_cpu.c:297
20405030:	0001                	nop
20405032:	40f6                	lw	ra,92(sp)
20405034:	42e6                	lw	t0,88(sp)
20405036:	4356                	lw	t1,84(sp)
20405038:	43c6                	lw	t2,80(sp)
2040503a:	4436                	lw	s0,76(sp)
2040503c:	4526                	lw	a0,72(sp)
2040503e:	4596                	lw	a1,68(sp)
20405040:	4606                	lw	a2,64(sp)
20405042:	56f2                	lw	a3,60(sp)
20405044:	5762                	lw	a4,56(sp)
20405046:	57d2                	lw	a5,52(sp)
20405048:	5842                	lw	a6,48(sp)
2040504a:	58b2                	lw	a7,44(sp)
2040504c:	5e22                	lw	t3,40(sp)
2040504e:	5e92                	lw	t4,36(sp)
20405050:	5f02                	lw	t5,32(sp)
20405052:	4ff2                	lw	t6,28(sp)
20405054:	6125                	addi	sp,sp,96
20405056:	30200073          	mret

2040505a <__metal_controller_interrupt_vector_mode>:
__metal_controller_interrupt_vector_mode():
C:/wsFreedomStudio/kernel/freedom-metal/src/drivers/riscv_cpu.c:299
2040505a:	1101                	addi	sp,sp,-32
2040505c:	ce22                	sw	s0,28(sp)
2040505e:	1000                	addi	s0,sp,32
C:/wsFreedomStudio/kernel/freedom-metal/src/drivers/riscv_cpu.c:302
20405060:	305027f3          	csrr	a5,mtvec
20405064:	fef42623          	sw	a5,-20(s0)
C:/wsFreedomStudio/kernel/freedom-metal/src/drivers/riscv_cpu.c:303
20405068:	fec42783          	lw	a5,-20(s0)
2040506c:	03f7f793          	andi	a5,a5,63
20405070:	fef42623          	sw	a5,-20(s0)
C:/wsFreedomStudio/kernel/freedom-metal/src/drivers/riscv_cpu.c:305
20405074:	fec42703          	lw	a4,-20(s0)
20405078:	478d                	li	a5,3
2040507a:	02f70363          	beq	a4,a5,204050a0 <__metal_controller_interrupt_vector_mode+0x46>
2040507e:	fec42703          	lw	a4,-20(s0)
20405082:	478d                	li	a5,3
20405084:	02e7e263          	bltu	a5,a4,204050a8 <__metal_controller_interrupt_vector_mode+0x4e>
20405088:	fec42703          	lw	a4,-20(s0)
2040508c:	4785                	li	a5,1
2040508e:	00f70b63          	beq	a4,a5,204050a4 <__metal_controller_interrupt_vector_mode+0x4a>
20405092:	fec42703          	lw	a4,-20(s0)
20405096:	4789                	li	a5,2
20405098:	00f71863          	bne	a4,a5,204050a8 <__metal_controller_interrupt_vector_mode+0x4e>
C:/wsFreedomStudio/kernel/freedom-metal/src/drivers/riscv_cpu.c:307
2040509c:	478d                	li	a5,3
2040509e:	a031                	j	204050aa <__metal_controller_interrupt_vector_mode+0x50>
C:/wsFreedomStudio/kernel/freedom-metal/src/drivers/riscv_cpu.c:309
204050a0:	4791                	li	a5,4
204050a2:	a021                	j	204050aa <__metal_controller_interrupt_vector_mode+0x50>
C:/wsFreedomStudio/kernel/freedom-metal/src/drivers/riscv_cpu.c:311
204050a4:	4785                	li	a5,1
204050a6:	a011                	j	204050aa <__metal_controller_interrupt_vector_mode+0x50>
C:/wsFreedomStudio/kernel/freedom-metal/src/drivers/riscv_cpu.c:313
204050a8:	4781                	li	a5,0
C:/wsFreedomStudio/kernel/freedom-metal/src/drivers/riscv_cpu.c:314
204050aa:	853e                	mv	a0,a5
204050ac:	4472                	lw	s0,28(sp)
204050ae:	6105                	addi	sp,sp,32
204050b0:	8082                	ret

204050b2 <__metal_controller_interrupt_vector>:
__metal_controller_interrupt_vector():
C:/wsFreedomStudio/kernel/freedom-metal/src/drivers/riscv_cpu.c:317
204050b2:	7179                	addi	sp,sp,-48
204050b4:	d622                	sw	s0,44(sp)
204050b6:	1800                	addi	s0,sp,48
204050b8:	fca42e23          	sw	a0,-36(s0)
204050bc:	fcb42c23          	sw	a1,-40(s0)
C:/wsFreedomStudio/kernel/freedom-metal/src/drivers/riscv_cpu.c:320
204050c0:	305027f3          	csrr	a5,mtvec
204050c4:	fef42623          	sw	a5,-20(s0)
C:/wsFreedomStudio/kernel/freedom-metal/src/drivers/riscv_cpu.c:321
204050c8:	fec42783          	lw	a5,-20(s0)
204050cc:	fc07f793          	andi	a5,a5,-64
204050d0:	fef42623          	sw	a5,-20(s0)
C:/wsFreedomStudio/kernel/freedom-metal/src/drivers/riscv_cpu.c:322
204050d4:	fd842783          	lw	a5,-40(s0)
204050d8:	fef42423          	sw	a5,-24(s0)
C:/wsFreedomStudio/kernel/freedom-metal/src/drivers/riscv_cpu.c:324
204050dc:	fdc42703          	lw	a4,-36(s0)
204050e0:	4791                	li	a5,4
204050e2:	04f70563          	beq	a4,a5,2040512c <__metal_controller_interrupt_vector+0x7a>
204050e6:	fdc42703          	lw	a4,-36(s0)
204050ea:	4791                	li	a5,4
204050ec:	06e7e863          	bltu	a5,a4,2040515c <__metal_controller_interrupt_vector+0xaa>
204050f0:	fdc42703          	lw	a4,-36(s0)
204050f4:	478d                	li	a5,3
204050f6:	06e7e363          	bltu	a5,a4,2040515c <__metal_controller_interrupt_vector+0xaa>
204050fa:	fdc42703          	lw	a4,-36(s0)
204050fe:	4789                	li	a5,2
20405100:	00f77b63          	bgeu	a4,a5,20405116 <__metal_controller_interrupt_vector+0x64>
20405104:	fdc42783          	lw	a5,-36(s0)
20405108:	c7a1                	beqz	a5,20405150 <__metal_controller_interrupt_vector+0x9e>
2040510a:	fdc42703          	lw	a4,-36(s0)
2040510e:	4785                	li	a5,1
20405110:	02f70963          	beq	a4,a5,20405142 <__metal_controller_interrupt_vector+0x90>
C:/wsFreedomStudio/kernel/freedom-metal/src/drivers/riscv_cpu.c:344
20405114:	a0a1                	j	2040515c <__metal_controller_interrupt_vector+0xaa>
C:/wsFreedomStudio/kernel/freedom-metal/src/drivers/riscv_cpu.c:327
20405116:	fe842783          	lw	a5,-24(s0)
2040511a:	30779073          	csrw	mtvt,a5
C:/wsFreedomStudio/kernel/freedom-metal/src/drivers/riscv_cpu.c:328
2040511e:	fec42783          	lw	a5,-20(s0)
20405122:	0027e793          	ori	a5,a5,2
20405126:	30579073          	csrw	mtvec,a5
C:/wsFreedomStudio/kernel/freedom-metal/src/drivers/riscv_cpu.c:329
2040512a:	a80d                	j	2040515c <__metal_controller_interrupt_vector+0xaa>
C:/wsFreedomStudio/kernel/freedom-metal/src/drivers/riscv_cpu.c:331
2040512c:	fe842783          	lw	a5,-24(s0)
20405130:	30779073          	csrw	mtvt,a5
C:/wsFreedomStudio/kernel/freedom-metal/src/drivers/riscv_cpu.c:333
20405134:	fec42783          	lw	a5,-20(s0)
20405138:	0037e793          	ori	a5,a5,3
C:/wsFreedomStudio/kernel/freedom-metal/src/drivers/riscv_cpu.c:332
2040513c:	30579073          	csrw	mtvec,a5
C:/wsFreedomStudio/kernel/freedom-metal/src/drivers/riscv_cpu.c:334
20405140:	a831                	j	2040515c <__metal_controller_interrupt_vector+0xaa>
C:/wsFreedomStudio/kernel/freedom-metal/src/drivers/riscv_cpu.c:337
20405142:	fe842783          	lw	a5,-24(s0)
20405146:	0017e793          	ori	a5,a5,1
C:/wsFreedomStudio/kernel/freedom-metal/src/drivers/riscv_cpu.c:336
2040514a:	30579073          	csrw	mtvec,a5
C:/wsFreedomStudio/kernel/freedom-metal/src/drivers/riscv_cpu.c:338
2040514e:	a039                	j	2040515c <__metal_controller_interrupt_vector+0xaa>
C:/wsFreedomStudio/kernel/freedom-metal/src/drivers/riscv_cpu.c:341
20405150:	fe842783          	lw	a5,-24(s0)
20405154:	9bf1                	andi	a5,a5,-4
C:/wsFreedomStudio/kernel/freedom-metal/src/drivers/riscv_cpu.c:340
20405156:	30579073          	csrw	mtvec,a5
C:/wsFreedomStudio/kernel/freedom-metal/src/drivers/riscv_cpu.c:342
2040515a:	0001                	nop
C:/wsFreedomStudio/kernel/freedom-metal/src/drivers/riscv_cpu.c:344
2040515c:	0001                	nop
2040515e:	5432                	lw	s0,44(sp)
20405160:	6145                	addi	sp,sp,48
20405162:	8082                	ret

20405164 <__metal_valid_interrupt_id>:
__metal_valid_interrupt_id():
C:/wsFreedomStudio/kernel/freedom-metal/src/drivers/riscv_cpu.c:346
20405164:	1101                	addi	sp,sp,-32
20405166:	ce22                	sw	s0,28(sp)
20405168:	1000                	addi	s0,sp,32
2040516a:	fea42623          	sw	a0,-20(s0)
C:/wsFreedomStudio/kernel/freedom-metal/src/drivers/riscv_cpu.c:347
2040516e:	fec42703          	lw	a4,-20(s0)
20405172:	47fd                	li	a5,31
20405174:	02e7c663          	blt	a5,a4,204051a0 <__metal_valid_interrupt_id+0x3c>
20405178:	fec42703          	lw	a4,-20(s0)
2040517c:	478d                	li	a5,3
2040517e:	02f74963          	blt	a4,a5,204051b0 <__metal_valid_interrupt_id+0x4c>
20405182:	fec42783          	lw	a5,-20(s0)
20405186:	4705                	li	a4,1
20405188:	00f71733          	sll	a4,a4,a5
2040518c:	77c5                	lui	a5,0xffff1
2040518e:	88878793          	addi	a5,a5,-1912 # ffff0888 <metal_segment_heap_target_end+0x7ffeedb8>
20405192:	8ff9                	and	a5,a5,a4
20405194:	00f037b3          	snez	a5,a5
20405198:	0ff7f793          	zext.b	a5,a5
2040519c:	eb81                	bnez	a5,204051ac <__metal_valid_interrupt_id+0x48>
C:/wsFreedomStudio/kernel/freedom-metal/src/drivers/riscv_cpu.c:370
2040519e:	a809                	j	204051b0 <__metal_valid_interrupt_id+0x4c>
C:/wsFreedomStudio/kernel/freedom-metal/src/drivers/riscv_cpu.c:347
204051a0:	fec42703          	lw	a4,-20(s0)
204051a4:	08000793          	li	a5,128
204051a8:	00f71463          	bne	a4,a5,204051b0 <__metal_valid_interrupt_id+0x4c>
C:/wsFreedomStudio/kernel/freedom-metal/src/drivers/riscv_cpu.c:368
204051ac:	4785                	li	a5,1
204051ae:	a019                	j	204051b4 <__metal_valid_interrupt_id+0x50>
C:/wsFreedomStudio/kernel/freedom-metal/src/drivers/riscv_cpu.c:370
204051b0:	0001                	nop
C:/wsFreedomStudio/kernel/freedom-metal/src/drivers/riscv_cpu.c:373
204051b2:	4781                	li	a5,0
C:/wsFreedomStudio/kernel/freedom-metal/src/drivers/riscv_cpu.c:374
204051b4:	853e                	mv	a0,a5
204051b6:	4472                	lw	s0,28(sp)
204051b8:	6105                	addi	sp,sp,32
204051ba:	8082                	ret

204051bc <__metal_local_interrupt_enable>:
__metal_local_interrupt_enable():
C:/wsFreedomStudio/kernel/freedom-metal/src/drivers/riscv_cpu.c:377
204051bc:	7179                	addi	sp,sp,-48
204051be:	d606                	sw	ra,44(sp)
204051c0:	d422                	sw	s0,40(sp)
204051c2:	1800                	addi	s0,sp,48
204051c4:	fca42e23          	sw	a0,-36(s0)
204051c8:	fcb42c23          	sw	a1,-40(s0)
204051cc:	fcc42a23          	sw	a2,-44(s0)
C:/wsFreedomStudio/kernel/freedom-metal/src/drivers/riscv_cpu.c:378
204051d0:	fe042623          	sw	zero,-20(s0)
C:/wsFreedomStudio/kernel/freedom-metal/src/drivers/riscv_cpu.c:380
204051d4:	fdc42783          	lw	a5,-36(s0)
204051d8:	e399                	bnez	a5,204051de <__metal_local_interrupt_enable+0x22>
C:/wsFreedomStudio/kernel/freedom-metal/src/drivers/riscv_cpu.c:381
204051da:	57fd                	li	a5,-1
204051dc:	a849                	j	2040526e <__metal_local_interrupt_enable+0xb2>
204051de:	fd842703          	lw	a4,-40(s0)
204051e2:	47fd                	li	a5,31
204051e4:	08e7e063          	bltu	a5,a4,20405264 <__metal_local_interrupt_enable+0xa8>
204051e8:	fd842783          	lw	a5,-40(s0)
204051ec:	00279713          	slli	a4,a5,0x2
204051f0:	204007b7          	lui	a5,0x20400
204051f4:	61878793          	addi	a5,a5,1560 # 20400618 <__metal_driver_vtable_riscv_clint0+0x64>
204051f8:	97ba                	add	a5,a5,a4
204051fa:	439c                	lw	a5,0(a5)
204051fc:	8782                	jr	a5
C:/wsFreedomStudio/kernel/freedom-metal/src/drivers/riscv_cpu.c:386
204051fe:	fd442783          	lw	a5,-44(s0)
20405202:	c781                	beqz	a5,2040520a <__metal_local_interrupt_enable+0x4e>
C:/wsFreedomStudio/kernel/freedom-metal/src/drivers/riscv_cpu.c:387
20405204:	f33fe0ef          	jal	ra,20404136 <__metal_interrupt_global_enable>
C:/wsFreedomStudio/kernel/freedom-metal/src/drivers/riscv_cpu.c:391
20405208:	a08d                	j	2040526a <__metal_local_interrupt_enable+0xae>
C:/wsFreedomStudio/kernel/freedom-metal/src/drivers/riscv_cpu.c:389
2040520a:	f45fe0ef          	jal	ra,2040414e <__metal_interrupt_global_disable>
C:/wsFreedomStudio/kernel/freedom-metal/src/drivers/riscv_cpu.c:391
2040520e:	a8b1                	j	2040526a <__metal_local_interrupt_enable+0xae>
C:/wsFreedomStudio/kernel/freedom-metal/src/drivers/riscv_cpu.c:393
20405210:	fd442783          	lw	a5,-44(s0)
20405214:	c781                	beqz	a5,2040521c <__metal_local_interrupt_enable+0x60>
C:/wsFreedomStudio/kernel/freedom-metal/src/drivers/riscv_cpu.c:394
20405216:	f51fe0ef          	jal	ra,20404166 <__metal_interrupt_software_enable>
C:/wsFreedomStudio/kernel/freedom-metal/src/drivers/riscv_cpu.c:398
2040521a:	a881                	j	2040526a <__metal_local_interrupt_enable+0xae>
C:/wsFreedomStudio/kernel/freedom-metal/src/drivers/riscv_cpu.c:396
2040521c:	f63fe0ef          	jal	ra,2040417e <__metal_interrupt_software_disable>
C:/wsFreedomStudio/kernel/freedom-metal/src/drivers/riscv_cpu.c:398
20405220:	a0a9                	j	2040526a <__metal_local_interrupt_enable+0xae>
C:/wsFreedomStudio/kernel/freedom-metal/src/drivers/riscv_cpu.c:400
20405222:	fd442783          	lw	a5,-44(s0)
20405226:	c781                	beqz	a5,2040522e <__metal_local_interrupt_enable+0x72>
C:/wsFreedomStudio/kernel/freedom-metal/src/drivers/riscv_cpu.c:401
20405228:	f6ffe0ef          	jal	ra,20404196 <__metal_interrupt_timer_enable>
C:/wsFreedomStudio/kernel/freedom-metal/src/drivers/riscv_cpu.c:405
2040522c:	a83d                	j	2040526a <__metal_local_interrupt_enable+0xae>
C:/wsFreedomStudio/kernel/freedom-metal/src/drivers/riscv_cpu.c:403
2040522e:	f83fe0ef          	jal	ra,204041b0 <__metal_interrupt_timer_disable>
C:/wsFreedomStudio/kernel/freedom-metal/src/drivers/riscv_cpu.c:405
20405232:	a825                	j	2040526a <__metal_local_interrupt_enable+0xae>
C:/wsFreedomStudio/kernel/freedom-metal/src/drivers/riscv_cpu.c:407
20405234:	fd442783          	lw	a5,-44(s0)
20405238:	c781                	beqz	a5,20405240 <__metal_local_interrupt_enable+0x84>
C:/wsFreedomStudio/kernel/freedom-metal/src/drivers/riscv_cpu.c:408
2040523a:	f91fe0ef          	jal	ra,204041ca <__metal_interrupt_external_enable>
C:/wsFreedomStudio/kernel/freedom-metal/src/drivers/riscv_cpu.c:412
2040523e:	a035                	j	2040526a <__metal_local_interrupt_enable+0xae>
C:/wsFreedomStudio/kernel/freedom-metal/src/drivers/riscv_cpu.c:410
20405240:	fa7fe0ef          	jal	ra,204041e6 <__metal_interrupt_external_disable>
C:/wsFreedomStudio/kernel/freedom-metal/src/drivers/riscv_cpu.c:412
20405244:	a01d                	j	2040526a <__metal_local_interrupt_enable+0xae>
C:/wsFreedomStudio/kernel/freedom-metal/src/drivers/riscv_cpu.c:429
20405246:	fd442783          	lw	a5,-44(s0)
2040524a:	c799                	beqz	a5,20405258 <__metal_local_interrupt_enable+0x9c>
C:/wsFreedomStudio/kernel/freedom-metal/src/drivers/riscv_cpu.c:430
2040524c:	fd842783          	lw	a5,-40(s0)
20405250:	853e                	mv	a0,a5
20405252:	fb1fe0ef          	jal	ra,20404202 <__metal_interrupt_local_enable>
C:/wsFreedomStudio/kernel/freedom-metal/src/drivers/riscv_cpu.c:434
20405256:	a811                	j	2040526a <__metal_local_interrupt_enable+0xae>
C:/wsFreedomStudio/kernel/freedom-metal/src/drivers/riscv_cpu.c:432
20405258:	fd842783          	lw	a5,-40(s0)
2040525c:	853e                	mv	a0,a5
2040525e:	fd1fe0ef          	jal	ra,2040422e <__metal_interrupt_local_disable>
C:/wsFreedomStudio/kernel/freedom-metal/src/drivers/riscv_cpu.c:434
20405262:	a021                	j	2040526a <__metal_local_interrupt_enable+0xae>
C:/wsFreedomStudio/kernel/freedom-metal/src/drivers/riscv_cpu.c:436
20405264:	57fd                	li	a5,-1
20405266:	fef42623          	sw	a5,-20(s0)
C:/wsFreedomStudio/kernel/freedom-metal/src/drivers/riscv_cpu.c:438
2040526a:	fec42783          	lw	a5,-20(s0)
C:/wsFreedomStudio/kernel/freedom-metal/src/drivers/riscv_cpu.c:439
2040526e:	853e                	mv	a0,a5
20405270:	50b2                	lw	ra,44(sp)
20405272:	5422                	lw	s0,40(sp)
20405274:	6145                	addi	sp,sp,48
20405276:	8082                	ret

20405278 <__metal_exception_register>:
__metal_exception_register():
C:/wsFreedomStudio/kernel/freedom-metal/src/drivers/riscv_cpu.c:442
20405278:	7179                	addi	sp,sp,-48
2040527a:	d622                	sw	s0,44(sp)
2040527c:	1800                	addi	s0,sp,48
2040527e:	fca42e23          	sw	a0,-36(s0)
20405282:	fcb42c23          	sw	a1,-40(s0)
20405286:	fcc42a23          	sw	a2,-44(s0)
C:/wsFreedomStudio/kernel/freedom-metal/src/drivers/riscv_cpu.c:443
2040528a:	fdc42783          	lw	a5,-36(s0)
2040528e:	fef42623          	sw	a5,-20(s0)
C:/wsFreedomStudio/kernel/freedom-metal/src/drivers/riscv_cpu.c:445
20405292:	fd842703          	lw	a4,-40(s0)
20405296:	47ad                	li	a5,11
20405298:	02e7c263          	blt	a5,a4,204052bc <__metal_exception_register+0x44>
C:/wsFreedomStudio/kernel/freedom-metal/src/drivers/riscv_cpu.c:445 (discriminator 1)
2040529c:	fd442783          	lw	a5,-44(s0)
204052a0:	cf91                	beqz	a5,204052bc <__metal_exception_register+0x44>
C:/wsFreedomStudio/kernel/freedom-metal/src/drivers/riscv_cpu.c:446
204052a2:	fec42703          	lw	a4,-20(s0)
204052a6:	fd842783          	lw	a5,-40(s0)
204052aa:	0e878793          	addi	a5,a5,232
204052ae:	078a                	slli	a5,a5,0x2
204052b0:	97ba                	add	a5,a5,a4
204052b2:	fd442703          	lw	a4,-44(s0)
204052b6:	c398                	sw	a4,0(a5)
C:/wsFreedomStudio/kernel/freedom-metal/src/drivers/riscv_cpu.c:447
204052b8:	4781                	li	a5,0
204052ba:	a011                	j	204052be <__metal_exception_register+0x46>
C:/wsFreedomStudio/kernel/freedom-metal/src/drivers/riscv_cpu.c:449
204052bc:	57fd                	li	a5,-1
C:/wsFreedomStudio/kernel/freedom-metal/src/drivers/riscv_cpu.c:450
204052be:	853e                	mv	a0,a5
204052c0:	5432                	lw	s0,44(sp)
204052c2:	6145                	addi	sp,sp,48
204052c4:	8082                	ret

204052c6 <__metal_driver_riscv_cpu_controller_interrupt_init>:
__metal_driver_riscv_cpu_controller_interrupt_init():
C:/wsFreedomStudio/kernel/freedom-metal/src/drivers/riscv_cpu.c:454
204052c6:	7179                	addi	sp,sp,-48
204052c8:	d606                	sw	ra,44(sp)
204052ca:	d422                	sw	s0,40(sp)
204052cc:	1800                	addi	s0,sp,48
204052ce:	fca42e23          	sw	a0,-36(s0)
C:/wsFreedomStudio/kernel/freedom-metal/src/drivers/riscv_cpu.c:455
204052d2:	fdc42783          	lw	a5,-36(s0)
204052d6:	fef42223          	sw	a5,-28(s0)
C:/wsFreedomStudio/kernel/freedom-metal/src/drivers/riscv_cpu.c:457
204052da:	fe442783          	lw	a5,-28(s0)
204052de:	43dc                	lw	a5,4(a5)
204052e0:	e3e1                	bnez	a5,204053a0 <__metal_driver_riscv_cpu_controller_interrupt_init+0xda>
C:/wsFreedomStudio/kernel/freedom-metal/src/drivers/riscv_cpu.c:459
204052e2:	fe042623          	sw	zero,-20(s0)
204052e6:	a0b9                	j	20405334 <__metal_driver_riscv_cpu_controller_interrupt_init+0x6e>
C:/wsFreedomStudio/kernel/freedom-metal/src/drivers/riscv_cpu.c:460 (discriminator 3)
204052e8:	fe442683          	lw	a3,-28(s0)
204052ec:	fec42703          	lw	a4,-20(s0)
204052f0:	87ba                	mv	a5,a4
204052f2:	0786                	slli	a5,a5,0x1
204052f4:	97ba                	add	a5,a5,a4
204052f6:	078e                	slli	a5,a5,0x3
204052f8:	97b6                	add	a5,a5,a3
204052fa:	0807a823          	sw	zero,144(a5)
C:/wsFreedomStudio/kernel/freedom-metal/src/drivers/riscv_cpu.c:461 (discriminator 3)
204052fe:	fe442683          	lw	a3,-28(s0)
20405302:	fec42703          	lw	a4,-20(s0)
20405306:	87ba                	mv	a5,a4
20405308:	0786                	slli	a5,a5,0x1
2040530a:	97ba                	add	a5,a5,a4
2040530c:	078e                	slli	a5,a5,0x3
2040530e:	97b6                	add	a5,a5,a3
20405310:	0807aa23          	sw	zero,148(a5)
C:/wsFreedomStudio/kernel/freedom-metal/src/drivers/riscv_cpu.c:462 (discriminator 3)
20405314:	fe442683          	lw	a3,-28(s0)
20405318:	fec42703          	lw	a4,-20(s0)
2040531c:	87ba                	mv	a5,a4
2040531e:	0786                	slli	a5,a5,0x1
20405320:	97ba                	add	a5,a5,a4
20405322:	078e                	slli	a5,a5,0x3
20405324:	97b6                	add	a5,a5,a3
20405326:	0807ac23          	sw	zero,152(a5)
C:/wsFreedomStudio/kernel/freedom-metal/src/drivers/riscv_cpu.c:459 (discriminator 3)
2040532a:	fec42783          	lw	a5,-20(s0)
2040532e:	0785                	addi	a5,a5,1
20405330:	fef42623          	sw	a5,-20(s0)
C:/wsFreedomStudio/kernel/freedom-metal/src/drivers/riscv_cpu.c:459 (discriminator 1)
20405334:	fec42703          	lw	a4,-20(s0)
20405338:	47fd                	li	a5,31
2040533a:	fae7d7e3          	bge	a5,a4,204052e8 <__metal_driver_riscv_cpu_controller_interrupt_init+0x22>
C:/wsFreedomStudio/kernel/freedom-metal/src/drivers/riscv_cpu.c:465
2040533e:	fe042423          	sw	zero,-24(s0)
20405342:	a01d                	j	20405368 <__metal_driver_riscv_cpu_controller_interrupt_init+0xa2>
C:/wsFreedomStudio/kernel/freedom-metal/src/drivers/riscv_cpu.c:466 (discriminator 3)
20405344:	fe442703          	lw	a4,-28(s0)
20405348:	fe842783          	lw	a5,-24(s0)
2040534c:	0e878793          	addi	a5,a5,232
20405350:	078a                	slli	a5,a5,0x2
20405352:	97ba                	add	a5,a5,a4
20405354:	20404737          	lui	a4,0x20404
20405358:	25a70713          	addi	a4,a4,602 # 2040425a <__metal_default_exception_handler>
2040535c:	c398                	sw	a4,0(a5)
C:/wsFreedomStudio/kernel/freedom-metal/src/drivers/riscv_cpu.c:465 (discriminator 3)
2040535e:	fe842783          	lw	a5,-24(s0)
20405362:	0785                	addi	a5,a5,1
20405364:	fef42423          	sw	a5,-24(s0)
C:/wsFreedomStudio/kernel/freedom-metal/src/drivers/riscv_cpu.c:465 (discriminator 1)
20405368:	fe842703          	lw	a4,-24(s0)
2040536c:	47ad                	li	a5,11
2040536e:	fce7dbe3          	bge	a5,a4,20405344 <__metal_driver_riscv_cpu_controller_interrupt_init+0x7e>
C:/wsFreedomStudio/kernel/freedom-metal/src/drivers/riscv_cpu.c:475
20405372:	305027f3          	csrr	a5,mtvec
20405376:	fef42023          	sw	a5,-32(s0)
C:/wsFreedomStudio/kernel/freedom-metal/src/drivers/riscv_cpu.c:476
2040537a:	204007b7          	lui	a5,0x20400
2040537e:	13478793          	addi	a5,a5,308 # 20400134 <early_trap_vector>
20405382:	fe042703          	lw	a4,-32(s0)
20405386:	00f71963          	bne	a4,a5,20405398 <__metal_driver_riscv_cpu_controller_interrupt_init+0xd2>
C:/wsFreedomStudio/kernel/freedom-metal/src/drivers/riscv_cpu.c:477
2040538a:	204047b7          	lui	a5,0x20404
2040538e:	50078593          	addi	a1,a5,1280 # 20404500 <__metal_exception_handler>
20405392:	4501                	li	a0,0
20405394:	d1fff0ef          	jal	ra,204050b2 <__metal_controller_interrupt_vector>
C:/wsFreedomStudio/kernel/freedom-metal/src/drivers/riscv_cpu.c:481
20405398:	fe442783          	lw	a5,-28(s0)
2040539c:	4705                	li	a4,1
2040539e:	c3d8                	sw	a4,4(a5)
C:/wsFreedomStudio/kernel/freedom-metal/src/drivers/riscv_cpu.c:483
204053a0:	0001                	nop
204053a2:	50b2                	lw	ra,44(sp)
204053a4:	5422                	lw	s0,40(sp)
204053a6:	6145                	addi	sp,sp,48
204053a8:	8082                	ret

204053aa <__metal_driver_riscv_cpu_controller_interrupt_register>:
__metal_driver_riscv_cpu_controller_interrupt_register():
C:/wsFreedomStudio/kernel/freedom-metal/src/drivers/riscv_cpu.c:487
204053aa:	7179                	addi	sp,sp,-48
204053ac:	d606                	sw	ra,44(sp)
204053ae:	d422                	sw	s0,40(sp)
204053b0:	1800                	addi	s0,sp,48
204053b2:	fca42e23          	sw	a0,-36(s0)
204053b6:	fcb42c23          	sw	a1,-40(s0)
204053ba:	fcc42a23          	sw	a2,-44(s0)
204053be:	fcd42823          	sw	a3,-48(s0)
C:/wsFreedomStudio/kernel/freedom-metal/src/drivers/riscv_cpu.c:488
204053c2:	fe042623          	sw	zero,-20(s0)
C:/wsFreedomStudio/kernel/freedom-metal/src/drivers/riscv_cpu.c:489
204053c6:	fdc42783          	lw	a5,-36(s0)
204053ca:	fef42423          	sw	a5,-24(s0)
C:/wsFreedomStudio/kernel/freedom-metal/src/drivers/riscv_cpu.c:491
204053ce:	fd842503          	lw	a0,-40(s0)
204053d2:	3b49                	jal	20405164 <__metal_valid_interrupt_id>
204053d4:	87aa                	mv	a5,a0
204053d6:	e399                	bnez	a5,204053dc <__metal_driver_riscv_cpu_controller_interrupt_register+0x32>
C:/wsFreedomStudio/kernel/freedom-metal/src/drivers/riscv_cpu.c:492
204053d8:	57d5                	li	a5,-11
204053da:	a265                	j	20405582 <__metal_driver_riscv_cpu_controller_interrupt_register+0x1d8>
C:/wsFreedomStudio/kernel/freedom-metal/src/drivers/riscv_cpu.c:494
204053dc:	fd842703          	lw	a4,-40(s0)
204053e0:	08000793          	li	a5,128
204053e4:	00f71863          	bne	a4,a5,204053f4 <__metal_driver_riscv_cpu_controller_interrupt_register+0x4a>
C:/wsFreedomStudio/kernel/freedom-metal/src/drivers/riscv_cpu.c:495 (discriminator 1)
204053e8:	c73ff0ef          	jal	ra,2040505a <__metal_controller_interrupt_vector_mode>
204053ec:	87aa                	mv	a5,a0
C:/wsFreedomStudio/kernel/freedom-metal/src/drivers/riscv_cpu.c:494 (discriminator 1)
204053ee:	c399                	beqz	a5,204053f4 <__metal_driver_riscv_cpu_controller_interrupt_register+0x4a>
C:/wsFreedomStudio/kernel/freedom-metal/src/drivers/riscv_cpu.c:498
204053f0:	57cd                	li	a5,-13
204053f2:	aa41                	j	20405582 <__metal_driver_riscv_cpu_controller_interrupt_register+0x1d8>
C:/wsFreedomStudio/kernel/freedom-metal/src/drivers/riscv_cpu.c:501
204053f4:	fd442783          	lw	a5,-44(s0)
204053f8:	cfb9                	beqz	a5,20405456 <__metal_driver_riscv_cpu_controller_interrupt_register+0xac>
C:/wsFreedomStudio/kernel/freedom-metal/src/drivers/riscv_cpu.c:502
204053fa:	fd842703          	lw	a4,-40(s0)
204053fe:	08000793          	li	a5,128
20405402:	00f71f63          	bne	a4,a5,20405420 <__metal_driver_riscv_cpu_controller_interrupt_register+0x76>
C:/wsFreedomStudio/kernel/freedom-metal/src/drivers/riscv_cpu.c:503
20405406:	fe842783          	lw	a5,-24(s0)
2040540a:	fd442703          	lw	a4,-44(s0)
2040540e:	38e7a823          	sw	a4,912(a5)
C:/wsFreedomStudio/kernel/freedom-metal/src/drivers/riscv_cpu.c:504
20405412:	fe842783          	lw	a5,-24(s0)
20405416:	fd042703          	lw	a4,-48(s0)
2040541a:	38e7ac23          	sw	a4,920(a5)
2040541e:	a285                	j	2040557e <__metal_driver_riscv_cpu_controller_interrupt_register+0x1d4>
C:/wsFreedomStudio/kernel/freedom-metal/src/drivers/riscv_cpu.c:506
20405420:	fe842683          	lw	a3,-24(s0)
20405424:	fd842703          	lw	a4,-40(s0)
20405428:	87ba                	mv	a5,a4
2040542a:	0786                	slli	a5,a5,0x1
2040542c:	97ba                	add	a5,a5,a4
2040542e:	078e                	slli	a5,a5,0x3
20405430:	97b6                	add	a5,a5,a3
20405432:	fd442703          	lw	a4,-44(s0)
20405436:	08e7a823          	sw	a4,144(a5)
C:/wsFreedomStudio/kernel/freedom-metal/src/drivers/riscv_cpu.c:507
2040543a:	fe842683          	lw	a3,-24(s0)
2040543e:	fd842703          	lw	a4,-40(s0)
20405442:	87ba                	mv	a5,a4
20405444:	0786                	slli	a5,a5,0x1
20405446:	97ba                	add	a5,a5,a4
20405448:	078e                	slli	a5,a5,0x3
2040544a:	97b6                	add	a5,a5,a3
2040544c:	fd042703          	lw	a4,-48(s0)
20405450:	08e7ac23          	sw	a4,152(a5)
20405454:	a22d                	j	2040557e <__metal_driver_riscv_cpu_controller_interrupt_register+0x1d4>
C:/wsFreedomStudio/kernel/freedom-metal/src/drivers/riscv_cpu.c:510
20405456:	fd842703          	lw	a4,-40(s0)
2040545a:	08000793          	li	a5,128
2040545e:	0cf70163          	beq	a4,a5,20405520 <__metal_driver_riscv_cpu_controller_interrupt_register+0x176>
20405462:	fd842703          	lw	a4,-40(s0)
20405466:	08000793          	li	a5,128
2040546a:	10e7c763          	blt	a5,a4,20405578 <__metal_driver_riscv_cpu_controller_interrupt_register+0x1ce>
2040546e:	fd842703          	lw	a4,-40(s0)
20405472:	47fd                	li	a5,31
20405474:	10e7c263          	blt	a5,a4,20405578 <__metal_driver_riscv_cpu_controller_interrupt_register+0x1ce>
20405478:	fd842703          	lw	a4,-40(s0)
2040547c:	47c1                	li	a5,16
2040547e:	0cf75063          	bge	a4,a5,2040553e <__metal_driver_riscv_cpu_controller_interrupt_register+0x194>
20405482:	fd842703          	lw	a4,-40(s0)
20405486:	47ad                	li	a5,11
20405488:	0af70b63          	beq	a4,a5,2040553e <__metal_driver_riscv_cpu_controller_interrupt_register+0x194>
2040548c:	fd842703          	lw	a4,-40(s0)
20405490:	47ad                	li	a5,11
20405492:	0ee7c363          	blt	a5,a4,20405578 <__metal_driver_riscv_cpu_controller_interrupt_register+0x1ce>
20405496:	fd842703          	lw	a4,-40(s0)
2040549a:	478d                	li	a5,3
2040549c:	00f70863          	beq	a4,a5,204054ac <__metal_driver_riscv_cpu_controller_interrupt_register+0x102>
204054a0:	fd842703          	lw	a4,-40(s0)
204054a4:	479d                	li	a5,7
204054a6:	04f70063          	beq	a4,a5,204054e6 <__metal_driver_riscv_cpu_controller_interrupt_register+0x13c>
204054aa:	a0f9                	j	20405578 <__metal_driver_riscv_cpu_controller_interrupt_register+0x1ce>
C:/wsFreedomStudio/kernel/freedom-metal/src/drivers/riscv_cpu.c:512
204054ac:	fe842683          	lw	a3,-24(s0)
204054b0:	fd842703          	lw	a4,-40(s0)
204054b4:	87ba                	mv	a5,a4
204054b6:	0786                	slli	a5,a5,0x1
204054b8:	97ba                	add	a5,a5,a4
204054ba:	078e                	slli	a5,a5,0x3
204054bc:	97b6                	add	a5,a5,a3
204054be:	20404737          	lui	a4,0x20404
204054c2:	34a70713          	addi	a4,a4,842 # 2040434a <__metal_default_sw_handler>
204054c6:	08e7a823          	sw	a4,144(a5)
C:/wsFreedomStudio/kernel/freedom-metal/src/drivers/riscv_cpu.c:513
204054ca:	fe842683          	lw	a3,-24(s0)
204054ce:	fd842703          	lw	a4,-40(s0)
204054d2:	87ba                	mv	a5,a4
204054d4:	0786                	slli	a5,a5,0x1
204054d6:	97ba                	add	a5,a5,a4
204054d8:	078e                	slli	a5,a5,0x3
204054da:	97b6                	add	a5,a5,a3
204054dc:	fd042703          	lw	a4,-48(s0)
204054e0:	08e7aa23          	sw	a4,148(a5)
C:/wsFreedomStudio/kernel/freedom-metal/src/drivers/riscv_cpu.c:514
204054e4:	a869                	j	2040557e <__metal_driver_riscv_cpu_controller_interrupt_register+0x1d4>
C:/wsFreedomStudio/kernel/freedom-metal/src/drivers/riscv_cpu.c:516
204054e6:	fe842683          	lw	a3,-24(s0)
204054ea:	fd842703          	lw	a4,-40(s0)
204054ee:	87ba                	mv	a5,a4
204054f0:	0786                	slli	a5,a5,0x1
204054f2:	97ba                	add	a5,a5,a4
204054f4:	078e                	slli	a5,a5,0x3
204054f6:	97b6                	add	a5,a5,a3
204054f8:	20404737          	lui	a4,0x20404
204054fc:	45a70713          	addi	a4,a4,1114 # 2040445a <__metal_default_timer_handler>
20405500:	08e7a823          	sw	a4,144(a5)
C:/wsFreedomStudio/kernel/freedom-metal/src/drivers/riscv_cpu.c:517
20405504:	fe842683          	lw	a3,-24(s0)
20405508:	fd842703          	lw	a4,-40(s0)
2040550c:	87ba                	mv	a5,a4
2040550e:	0786                	slli	a5,a5,0x1
20405510:	97ba                	add	a5,a5,a4
20405512:	078e                	slli	a5,a5,0x3
20405514:	97b6                	add	a5,a5,a3
20405516:	fd042703          	lw	a4,-48(s0)
2040551a:	08e7aa23          	sw	a4,148(a5)
C:/wsFreedomStudio/kernel/freedom-metal/src/drivers/riscv_cpu.c:518
2040551e:	a085                	j	2040557e <__metal_driver_riscv_cpu_controller_interrupt_register+0x1d4>
C:/wsFreedomStudio/kernel/freedom-metal/src/drivers/riscv_cpu.c:520
20405520:	fe842783          	lw	a5,-24(s0)
20405524:	20404737          	lui	a4,0x20404
20405528:	44470713          	addi	a4,a4,1092 # 20404444 <__metal_default_beu_handler>
2040552c:	38e7a823          	sw	a4,912(a5)
C:/wsFreedomStudio/kernel/freedom-metal/src/drivers/riscv_cpu.c:521
20405530:	fe842783          	lw	a5,-24(s0)
20405534:	fd042703          	lw	a4,-48(s0)
20405538:	38e7ac23          	sw	a4,920(a5)
C:/wsFreedomStudio/kernel/freedom-metal/src/drivers/riscv_cpu.c:522
2040553c:	a089                	j	2040557e <__metal_driver_riscv_cpu_controller_interrupt_register+0x1d4>
C:/wsFreedomStudio/kernel/freedom-metal/src/drivers/riscv_cpu.c:540
2040553e:	fe842683          	lw	a3,-24(s0)
20405542:	fd842703          	lw	a4,-40(s0)
20405546:	87ba                	mv	a5,a4
20405548:	0786                	slli	a5,a5,0x1
2040554a:	97ba                	add	a5,a5,a4
2040554c:	078e                	slli	a5,a5,0x3
2040554e:	97b6                	add	a5,a5,a3
20405550:	20404737          	lui	a4,0x20404
20405554:	27270713          	addi	a4,a4,626 # 20404272 <__metal_default_interrupt_handler>
20405558:	08e7a823          	sw	a4,144(a5)
C:/wsFreedomStudio/kernel/freedom-metal/src/drivers/riscv_cpu.c:542
2040555c:	fe842683          	lw	a3,-24(s0)
20405560:	fd842703          	lw	a4,-40(s0)
20405564:	87ba                	mv	a5,a4
20405566:	0786                	slli	a5,a5,0x1
20405568:	97ba                	add	a5,a5,a4
2040556a:	078e                	slli	a5,a5,0x3
2040556c:	97b6                	add	a5,a5,a3
2040556e:	fd042703          	lw	a4,-48(s0)
20405572:	08e7aa23          	sw	a4,148(a5)
C:/wsFreedomStudio/kernel/freedom-metal/src/drivers/riscv_cpu.c:543
20405576:	a021                	j	2040557e <__metal_driver_riscv_cpu_controller_interrupt_register+0x1d4>
C:/wsFreedomStudio/kernel/freedom-metal/src/drivers/riscv_cpu.c:545
20405578:	57d1                	li	a5,-12
2040557a:	fef42623          	sw	a5,-20(s0)
C:/wsFreedomStudio/kernel/freedom-metal/src/drivers/riscv_cpu.c:548
2040557e:	fec42783          	lw	a5,-20(s0)
C:/wsFreedomStudio/kernel/freedom-metal/src/drivers/riscv_cpu.c:549
20405582:	853e                	mv	a0,a5
20405584:	50b2                	lw	ra,44(sp)
20405586:	5422                	lw	s0,40(sp)
20405588:	6145                	addi	sp,sp,48
2040558a:	8082                	ret

2040558c <__metal_driver_riscv_cpu_controller_interrupt_enable>:
__metal_driver_riscv_cpu_controller_interrupt_enable():
C:/wsFreedomStudio/kernel/freedom-metal/src/drivers/riscv_cpu.c:552
2040558c:	1101                	addi	sp,sp,-32
2040558e:	ce06                	sw	ra,28(sp)
20405590:	cc22                	sw	s0,24(sp)
20405592:	1000                	addi	s0,sp,32
20405594:	fea42623          	sw	a0,-20(s0)
20405598:	feb42423          	sw	a1,-24(s0)
C:/wsFreedomStudio/kernel/freedom-metal/src/drivers/riscv_cpu.c:553
2040559c:	fe842783          	lw	a5,-24(s0)
204055a0:	4605                	li	a2,1
204055a2:	85be                	mv	a1,a5
204055a4:	fec42503          	lw	a0,-20(s0)
204055a8:	c15ff0ef          	jal	ra,204051bc <__metal_local_interrupt_enable>
204055ac:	87aa                	mv	a5,a0
C:/wsFreedomStudio/kernel/freedom-metal/src/drivers/riscv_cpu.c:554
204055ae:	853e                	mv	a0,a5
204055b0:	40f2                	lw	ra,28(sp)
204055b2:	4462                	lw	s0,24(sp)
204055b4:	6105                	addi	sp,sp,32
204055b6:	8082                	ret

204055b8 <__metal_driver_riscv_cpu_controller_interrupt_disable>:
__metal_driver_riscv_cpu_controller_interrupt_disable():
C:/wsFreedomStudio/kernel/freedom-metal/src/drivers/riscv_cpu.c:557
204055b8:	1101                	addi	sp,sp,-32
204055ba:	ce06                	sw	ra,28(sp)
204055bc:	cc22                	sw	s0,24(sp)
204055be:	1000                	addi	s0,sp,32
204055c0:	fea42623          	sw	a0,-20(s0)
204055c4:	feb42423          	sw	a1,-24(s0)
C:/wsFreedomStudio/kernel/freedom-metal/src/drivers/riscv_cpu.c:558
204055c8:	fe842783          	lw	a5,-24(s0)
204055cc:	4601                	li	a2,0
204055ce:	85be                	mv	a1,a5
204055d0:	fec42503          	lw	a0,-20(s0)
204055d4:	be9ff0ef          	jal	ra,204051bc <__metal_local_interrupt_enable>
204055d8:	87aa                	mv	a5,a0
C:/wsFreedomStudio/kernel/freedom-metal/src/drivers/riscv_cpu.c:559
204055da:	853e                	mv	a0,a5
204055dc:	40f2                	lw	ra,28(sp)
204055de:	4462                	lw	s0,24(sp)
204055e0:	6105                	addi	sp,sp,32
204055e2:	8082                	ret

204055e4 <__metal_driver_riscv_cpu_controller_get_vector_mode>:
__metal_driver_riscv_cpu_controller_get_vector_mode():
C:/wsFreedomStudio/kernel/freedom-metal/src/drivers/riscv_cpu.c:591
204055e4:	1101                	addi	sp,sp,-32
204055e6:	ce06                	sw	ra,28(sp)
204055e8:	cc22                	sw	s0,24(sp)
204055ea:	1000                	addi	s0,sp,32
204055ec:	fea42623          	sw	a0,-20(s0)
C:/wsFreedomStudio/kernel/freedom-metal/src/drivers/riscv_cpu.c:592
204055f0:	a6bff0ef          	jal	ra,2040505a <__metal_controller_interrupt_vector_mode>
204055f4:	87aa                	mv	a5,a0
C:/wsFreedomStudio/kernel/freedom-metal/src/drivers/riscv_cpu.c:593
204055f6:	853e                	mv	a0,a5
204055f8:	40f2                	lw	ra,28(sp)
204055fa:	4462                	lw	s0,24(sp)
204055fc:	6105                	addi	sp,sp,32
204055fe:	8082                	ret

20405600 <__metal_driver_riscv_cpu_controller_set_vector_mode>:
__metal_driver_riscv_cpu_controller_set_vector_mode():
C:/wsFreedomStudio/kernel/freedom-metal/src/drivers/riscv_cpu.c:596
20405600:	1101                	addi	sp,sp,-32
20405602:	ce06                	sw	ra,28(sp)
20405604:	cc22                	sw	s0,24(sp)
20405606:	1000                	addi	s0,sp,32
20405608:	fea42623          	sw	a0,-20(s0)
2040560c:	feb42423          	sw	a1,-24(s0)
C:/wsFreedomStudio/kernel/freedom-metal/src/drivers/riscv_cpu.c:598
20405610:	fe842783          	lw	a5,-24(s0)
20405614:	eb99                	bnez	a5,2040562a <__metal_driver_riscv_cpu_controller_set_vector_mode+0x2a>
C:/wsFreedomStudio/kernel/freedom-metal/src/drivers/riscv_cpu.c:599
20405616:	204047b7          	lui	a5,0x20404
2040561a:	50078593          	addi	a1,a5,1280 # 20404500 <__metal_exception_handler>
2040561e:	fe842503          	lw	a0,-24(s0)
20405622:	a91ff0ef          	jal	ra,204050b2 <__metal_controller_interrupt_vector>
C:/wsFreedomStudio/kernel/freedom-metal/src/drivers/riscv_cpu.c:601
20405626:	4781                	li	a5,0
20405628:	a00d                	j	2040564a <__metal_driver_riscv_cpu_controller_set_vector_mode+0x4a>
C:/wsFreedomStudio/kernel/freedom-metal/src/drivers/riscv_cpu.c:603
2040562a:	fe842703          	lw	a4,-24(s0)
2040562e:	4785                	li	a5,1
20405630:	00f71c63          	bne	a4,a5,20405648 <__metal_driver_riscv_cpu_controller_set_vector_mode+0x48>
C:/wsFreedomStudio/kernel/freedom-metal/src/drivers/riscv_cpu.c:604
20405634:	204087b7          	lui	a5,0x20408
20405638:	e8078593          	addi	a1,a5,-384 # 20407e80 <__metal_vector_table>
2040563c:	fe842503          	lw	a0,-24(s0)
20405640:	a73ff0ef          	jal	ra,204050b2 <__metal_controller_interrupt_vector>
C:/wsFreedomStudio/kernel/freedom-metal/src/drivers/riscv_cpu.c:606
20405644:	4781                	li	a5,0
20405646:	a011                	j	2040564a <__metal_driver_riscv_cpu_controller_set_vector_mode+0x4a>
C:/wsFreedomStudio/kernel/freedom-metal/src/drivers/riscv_cpu.c:608
20405648:	57fd                	li	a5,-1
C:/wsFreedomStudio/kernel/freedom-metal/src/drivers/riscv_cpu.c:609
2040564a:	853e                	mv	a0,a5
2040564c:	40f2                	lw	ra,28(sp)
2040564e:	4462                	lw	s0,24(sp)
20405650:	6105                	addi	sp,sp,32
20405652:	8082                	ret

20405654 <__metal_driver_riscv_cpu_controller_command_request>:
__metal_driver_riscv_cpu_controller_command_request():
C:/wsFreedomStudio/kernel/freedom-metal/src/drivers/riscv_cpu.c:612
20405654:	1101                	addi	sp,sp,-32
20405656:	ce22                	sw	s0,28(sp)
20405658:	1000                	addi	s0,sp,32
2040565a:	fea42623          	sw	a0,-20(s0)
2040565e:	feb42423          	sw	a1,-24(s0)
20405662:	fec42223          	sw	a2,-28(s0)
C:/wsFreedomStudio/kernel/freedom-metal/src/drivers/riscv_cpu.c:615
20405666:	4781                	li	a5,0
C:/wsFreedomStudio/kernel/freedom-metal/src/drivers/riscv_cpu.c:616
20405668:	853e                	mv	a0,a5
2040566a:	4472                	lw	s0,28(sp)
2040566c:	6105                	addi	sp,sp,32
2040566e:	8082                	ret

20405670 <__metal_driver_cpu_mcycle_get>:
__metal_driver_cpu_mcycle_get():
C:/wsFreedomStudio/kernel/freedom-metal/src/drivers/riscv_cpu.c:620
20405670:	7139                	addi	sp,sp,-64
20405672:	de22                	sw	s0,60(sp)
20405674:	0080                	addi	s0,sp,64
20405676:	fca42623          	sw	a0,-52(s0)
C:/wsFreedomStudio/kernel/freedom-metal/src/drivers/riscv_cpu.c:621
2040567a:	4501                	li	a0,0
2040567c:	4581                	li	a1,0
2040567e:	fea42423          	sw	a0,-24(s0)
20405682:	feb42623          	sw	a1,-20(s0)
C:/wsFreedomStudio/kernel/freedom-metal/src/drivers/riscv_cpu.c:627 (discriminator 1)
20405686:	b80025f3          	csrr	a1,mcycleh
2040568a:	feb42223          	sw	a1,-28(s0)
C:/wsFreedomStudio/kernel/freedom-metal/src/drivers/riscv_cpu.c:628 (discriminator 1)
2040568e:	b00025f3          	csrr	a1,mcycle
20405692:	feb42023          	sw	a1,-32(s0)
C:/wsFreedomStudio/kernel/freedom-metal/src/drivers/riscv_cpu.c:629 (discriminator 1)
20405696:	b80025f3          	csrr	a1,mcycleh
2040569a:	fcb42e23          	sw	a1,-36(s0)
C:/wsFreedomStudio/kernel/freedom-metal/src/drivers/riscv_cpu.c:632 (discriminator 1)
2040569e:	fe442503          	lw	a0,-28(s0)
204056a2:	fdc42583          	lw	a1,-36(s0)
204056a6:	feb510e3          	bne	a0,a1,20405686 <__metal_driver_cpu_mcycle_get+0x16>
C:/wsFreedomStudio/kernel/freedom-metal/src/drivers/riscv_cpu.c:634
204056aa:	fe442583          	lw	a1,-28(s0)
204056ae:	882e                	mv	a6,a1
204056b0:	4881                	li	a7,0
204056b2:	00081793          	slli	a5,a6,0x0
204056b6:	4701                	li	a4,0
204056b8:	fe042583          	lw	a1,-32(s0)
204056bc:	862e                	mv	a2,a1
204056be:	4681                	li	a3,0
204056c0:	00c765b3          	or	a1,a4,a2
204056c4:	feb42423          	sw	a1,-24(s0)
204056c8:	8fd5                	or	a5,a5,a3
204056ca:	fef42623          	sw	a5,-20(s0)
C:/wsFreedomStudio/kernel/freedom-metal/src/drivers/riscv_cpu.c:639
204056ce:	fe842703          	lw	a4,-24(s0)
204056d2:	fec42783          	lw	a5,-20(s0)
C:/wsFreedomStudio/kernel/freedom-metal/src/drivers/riscv_cpu.c:640
204056d6:	853a                	mv	a0,a4
204056d8:	85be                	mv	a1,a5
204056da:	5472                	lw	s0,60(sp)
204056dc:	6121                	addi	sp,sp,64
204056de:	8082                	ret

204056e0 <__metal_driver_cpu_timebase_get>:
__metal_driver_cpu_timebase_get():
C:/wsFreedomStudio/kernel/freedom-metal/src/drivers/riscv_cpu.c:642
204056e0:	7179                	addi	sp,sp,-48
204056e2:	d606                	sw	ra,44(sp)
204056e4:	d422                	sw	s0,40(sp)
204056e6:	d24a                	sw	s2,36(sp)
204056e8:	d04e                	sw	s3,32(sp)
204056ea:	1800                	addi	s0,sp,48
204056ec:	fca42e23          	sw	a0,-36(s0)
C:/wsFreedomStudio/kernel/freedom-metal/src/drivers/riscv_cpu.c:644
204056f0:	fdc42783          	lw	a5,-36(s0)
204056f4:	e781                	bnez	a5,204056fc <__metal_driver_cpu_timebase_get+0x1c>
C:/wsFreedomStudio/kernel/freedom-metal/src/drivers/riscv_cpu.c:645
204056f6:	4901                	li	s2,0
204056f8:	4981                	li	s3,0
204056fa:	a821                	j	20405712 <__metal_driver_cpu_timebase_get+0x32>
C:/wsFreedomStudio/kernel/freedom-metal/src/drivers/riscv_cpu.c:648
204056fc:	fdc42503          	lw	a0,-36(s0)
20405700:	975fe0ef          	jal	ra,20404074 <__metal_driver_cpu_timebase>
20405704:	fea42623          	sw	a0,-20(s0)
C:/wsFreedomStudio/kernel/freedom-metal/src/drivers/riscv_cpu.c:649
20405708:	fec42783          	lw	a5,-20(s0)
2040570c:	893e                	mv	s2,a5
2040570e:	87fd                	srai	a5,a5,0x1f
20405710:	89be                	mv	s3,a5
C:/wsFreedomStudio/kernel/freedom-metal/src/drivers/riscv_cpu.c:650
20405712:	874a                	mv	a4,s2
20405714:	87ce                	mv	a5,s3
20405716:	853a                	mv	a0,a4
20405718:	85be                	mv	a1,a5
2040571a:	50b2                	lw	ra,44(sp)
2040571c:	5422                	lw	s0,40(sp)
2040571e:	5912                	lw	s2,36(sp)
20405720:	5982                	lw	s3,32(sp)
20405722:	6145                	addi	sp,sp,48
20405724:	8082                	ret

20405726 <__metal_driver_cpu_mtime_get>:
__metal_driver_cpu_mtime_get():
C:/wsFreedomStudio/kernel/freedom-metal/src/drivers/riscv_cpu.c:652
20405726:	7179                	addi	sp,sp,-48
20405728:	d606                	sw	ra,44(sp)
2040572a:	d422                	sw	s0,40(sp)
2040572c:	1800                	addi	s0,sp,48
2040572e:	fca42e23          	sw	a0,-36(s0)
C:/wsFreedomStudio/kernel/freedom-metal/src/drivers/riscv_cpu.c:653
20405732:	4781                	li	a5,0
20405734:	4801                	li	a6,0
20405736:	fef42023          	sw	a5,-32(s0)
2040573a:	ff042223          	sw	a6,-28(s0)
C:/wsFreedomStudio/kernel/freedom-metal/src/drivers/riscv_cpu.c:657
2040573e:	fdc42503          	lw	a0,-36(s0)
20405742:	95dfe0ef          	jal	ra,2040409e <__metal_driver_cpu_interrupt_controller>
20405746:	fea42623          	sw	a0,-20(s0)
C:/wsFreedomStudio/kernel/freedom-metal/src/drivers/riscv_cpu.c:659
2040574a:	fec42783          	lw	a5,-20(s0)
2040574e:	c78d                	beqz	a5,20405778 <__metal_driver_cpu_mtime_get+0x52>
C:/wsFreedomStudio/kernel/freedom-metal/src/drivers/riscv_cpu.c:660
20405750:	fec42783          	lw	a5,-20(s0)
20405754:	13c7a783          	lw	a5,316(a5)
20405758:	fef42423          	sw	a5,-24(s0)
C:/wsFreedomStudio/kernel/freedom-metal/src/drivers/riscv_cpu.c:661
2040575c:	fe842783          	lw	a5,-24(s0)
20405760:	cf81                	beqz	a5,20405778 <__metal_driver_cpu_mtime_get+0x52>
C:/wsFreedomStudio/kernel/freedom-metal/src/drivers/riscv_cpu.c:662
20405762:	fe842783          	lw	a5,-24(s0)
20405766:	439c                	lw	a5,0(a5)
20405768:	47f8                	lw	a4,76(a5)
2040576a:	fe040793          	addi	a5,s0,-32
2040576e:	863e                	mv	a2,a5
20405770:	4585                	li	a1,1
20405772:	fe842503          	lw	a0,-24(s0)
20405776:	9702                	jalr	a4
C:/wsFreedomStudio/kernel/freedom-metal/src/drivers/riscv_cpu.c:666
20405778:	fe042703          	lw	a4,-32(s0)
2040577c:	fe442783          	lw	a5,-28(s0)
C:/wsFreedomStudio/kernel/freedom-metal/src/drivers/riscv_cpu.c:667
20405780:	853a                	mv	a0,a4
20405782:	85be                	mv	a1,a5
20405784:	50b2                	lw	ra,44(sp)
20405786:	5422                	lw	s0,40(sp)
20405788:	6145                	addi	sp,sp,48
2040578a:	8082                	ret

2040578c <__metal_driver_cpu_mtimecmp_set>:
__metal_driver_cpu_mtimecmp_set():
C:/wsFreedomStudio/kernel/freedom-metal/src/drivers/riscv_cpu.c:670
2040578c:	7179                	addi	sp,sp,-48
2040578e:	d606                	sw	ra,44(sp)
20405790:	d422                	sw	s0,40(sp)
20405792:	d226                	sw	s1,36(sp)
20405794:	1800                	addi	s0,sp,48
20405796:	fca42e23          	sw	a0,-36(s0)
2040579a:	fcb42823          	sw	a1,-48(s0)
2040579e:	fcc42a23          	sw	a2,-44(s0)
C:/wsFreedomStudio/kernel/freedom-metal/src/drivers/riscv_cpu.c:671
204057a2:	57fd                	li	a5,-1
204057a4:	fef42623          	sw	a5,-20(s0)
C:/wsFreedomStudio/kernel/freedom-metal/src/drivers/riscv_cpu.c:675
204057a8:	fdc42503          	lw	a0,-36(s0)
204057ac:	8f3fe0ef          	jal	ra,2040409e <__metal_driver_cpu_interrupt_controller>
204057b0:	fea42423          	sw	a0,-24(s0)
C:/wsFreedomStudio/kernel/freedom-metal/src/drivers/riscv_cpu.c:677
204057b4:	fe842783          	lw	a5,-24(s0)
204057b8:	cf8d                	beqz	a5,204057f2 <__metal_driver_cpu_mtimecmp_set+0x66>
C:/wsFreedomStudio/kernel/freedom-metal/src/drivers/riscv_cpu.c:678
204057ba:	fe842783          	lw	a5,-24(s0)
204057be:	13c7a783          	lw	a5,316(a5)
204057c2:	fef42223          	sw	a5,-28(s0)
C:/wsFreedomStudio/kernel/freedom-metal/src/drivers/riscv_cpu.c:679
204057c6:	fe442783          	lw	a5,-28(s0)
204057ca:	c785                	beqz	a5,204057f2 <__metal_driver_cpu_mtimecmp_set+0x66>
C:/wsFreedomStudio/kernel/freedom-metal/src/drivers/riscv_cpu.c:680
204057cc:	fe442783          	lw	a5,-28(s0)
204057d0:	439c                	lw	a5,0(a5)
204057d2:	4ba4                	lw	s1,80(a5)
204057d4:	fdc42503          	lw	a0,-36(s0)
204057d8:	879fe0ef          	jal	ra,20404050 <__metal_driver_cpu_hartid>
204057dc:	87aa                	mv	a5,a0
204057de:	fd042603          	lw	a2,-48(s0)
204057e2:	fd442683          	lw	a3,-44(s0)
204057e6:	85be                	mv	a1,a5
204057e8:	fe442503          	lw	a0,-28(s0)
204057ec:	9482                	jalr	s1
204057ee:	fea42623          	sw	a0,-20(s0)
C:/wsFreedomStudio/kernel/freedom-metal/src/drivers/riscv_cpu.c:684
204057f2:	fec42783          	lw	a5,-20(s0)
C:/wsFreedomStudio/kernel/freedom-metal/src/drivers/riscv_cpu.c:685
204057f6:	853e                	mv	a0,a5
204057f8:	50b2                	lw	ra,44(sp)
204057fa:	5422                	lw	s0,40(sp)
204057fc:	5492                	lw	s1,36(sp)
204057fe:	6145                	addi	sp,sp,48
20405800:	8082                	ret

20405802 <__metal_driver_cpu_timer_controller_interrupt>:
__metal_driver_cpu_timer_controller_interrupt():
C:/wsFreedomStudio/kernel/freedom-metal/src/drivers/riscv_cpu.c:688
20405802:	1101                	addi	sp,sp,-32
20405804:	ce22                	sw	s0,28(sp)
20405806:	1000                	addi	s0,sp,32
20405808:	fea42623          	sw	a0,-20(s0)
C:/wsFreedomStudio/kernel/freedom-metal/src/drivers/riscv_cpu.c:690
2040580c:	800007b7          	lui	a5,0x80000
20405810:	7ac78793          	addi	a5,a5,1964 # 800007ac <metal_segment_heap_target_end+0xffffecdc>
C:/wsFreedomStudio/kernel/freedom-metal/src/drivers/riscv_cpu.c:699
20405814:	853e                	mv	a0,a5
20405816:	4472                	lw	s0,28(sp)
20405818:	6105                	addi	sp,sp,32
2040581a:	8082                	ret

2040581c <__metal_driver_cpu_get_timer_interrupt_id>:
__metal_driver_cpu_get_timer_interrupt_id():
C:/wsFreedomStudio/kernel/freedom-metal/src/drivers/riscv_cpu.c:701
2040581c:	1101                	addi	sp,sp,-32
2040581e:	ce22                	sw	s0,28(sp)
20405820:	1000                	addi	s0,sp,32
20405822:	fea42623          	sw	a0,-20(s0)
C:/wsFreedomStudio/kernel/freedom-metal/src/drivers/riscv_cpu.c:702
20405826:	479d                	li	a5,7
C:/wsFreedomStudio/kernel/freedom-metal/src/drivers/riscv_cpu.c:703
20405828:	853e                	mv	a0,a5
2040582a:	4472                	lw	s0,28(sp)
2040582c:	6105                	addi	sp,sp,32
2040582e:	8082                	ret

20405830 <__metal_driver_cpu_sw_controller_interrupt>:
__metal_driver_cpu_sw_controller_interrupt():
C:/wsFreedomStudio/kernel/freedom-metal/src/drivers/riscv_cpu.c:706
20405830:	1101                	addi	sp,sp,-32
20405832:	ce22                	sw	s0,28(sp)
20405834:	1000                	addi	s0,sp,32
20405836:	fea42623          	sw	a0,-20(s0)
C:/wsFreedomStudio/kernel/freedom-metal/src/drivers/riscv_cpu.c:708
2040583a:	800007b7          	lui	a5,0x80000
2040583e:	7ac78793          	addi	a5,a5,1964 # 800007ac <metal_segment_heap_target_end+0xffffecdc>
C:/wsFreedomStudio/kernel/freedom-metal/src/drivers/riscv_cpu.c:717
20405842:	853e                	mv	a0,a5
20405844:	4472                	lw	s0,28(sp)
20405846:	6105                	addi	sp,sp,32
20405848:	8082                	ret

2040584a <__metal_driver_cpu_get_sw_interrupt_id>:
__metal_driver_cpu_get_sw_interrupt_id():
C:/wsFreedomStudio/kernel/freedom-metal/src/drivers/riscv_cpu.c:719
2040584a:	1101                	addi	sp,sp,-32
2040584c:	ce22                	sw	s0,28(sp)
2040584e:	1000                	addi	s0,sp,32
20405850:	fea42623          	sw	a0,-20(s0)
C:/wsFreedomStudio/kernel/freedom-metal/src/drivers/riscv_cpu.c:720
20405854:	478d                	li	a5,3
C:/wsFreedomStudio/kernel/freedom-metal/src/drivers/riscv_cpu.c:721
20405856:	853e                	mv	a0,a5
20405858:	4472                	lw	s0,28(sp)
2040585a:	6105                	addi	sp,sp,32
2040585c:	8082                	ret

2040585e <__metal_driver_cpu_set_sw_ipi>:
__metal_driver_cpu_set_sw_ipi():
C:/wsFreedomStudio/kernel/freedom-metal/src/drivers/riscv_cpu.c:723
2040585e:	7179                	addi	sp,sp,-48
20405860:	d606                	sw	ra,44(sp)
20405862:	d422                	sw	s0,40(sp)
20405864:	1800                	addi	s0,sp,48
20405866:	fca42e23          	sw	a0,-36(s0)
2040586a:	fcb42c23          	sw	a1,-40(s0)
C:/wsFreedomStudio/kernel/freedom-metal/src/drivers/riscv_cpu.c:724
2040586e:	57fd                	li	a5,-1
20405870:	fef42623          	sw	a5,-20(s0)
C:/wsFreedomStudio/kernel/freedom-metal/src/drivers/riscv_cpu.c:728
20405874:	fdc42503          	lw	a0,-36(s0)
20405878:	827fe0ef          	jal	ra,2040409e <__metal_driver_cpu_interrupt_controller>
2040587c:	fea42423          	sw	a0,-24(s0)
C:/wsFreedomStudio/kernel/freedom-metal/src/drivers/riscv_cpu.c:730
20405880:	fe842783          	lw	a5,-24(s0)
20405884:	c79d                	beqz	a5,204058b2 <__metal_driver_cpu_set_sw_ipi+0x54>
C:/wsFreedomStudio/kernel/freedom-metal/src/drivers/riscv_cpu.c:731
20405886:	fe842783          	lw	a5,-24(s0)
2040588a:	0dc7a783          	lw	a5,220(a5)
2040588e:	fef42223          	sw	a5,-28(s0)
C:/wsFreedomStudio/kernel/freedom-metal/src/drivers/riscv_cpu.c:732
20405892:	fe442783          	lw	a5,-28(s0)
20405896:	cf91                	beqz	a5,204058b2 <__metal_driver_cpu_set_sw_ipi+0x54>
C:/wsFreedomStudio/kernel/freedom-metal/src/drivers/riscv_cpu.c:733
20405898:	fe442783          	lw	a5,-28(s0)
2040589c:	439c                	lw	a5,0(a5)
2040589e:	47f8                	lw	a4,76(a5)
204058a0:	fd840793          	addi	a5,s0,-40
204058a4:	863e                	mv	a2,a5
204058a6:	458d                	li	a1,3
204058a8:	fe442503          	lw	a0,-28(s0)
204058ac:	9702                	jalr	a4
204058ae:	fea42623          	sw	a0,-20(s0)
C:/wsFreedomStudio/kernel/freedom-metal/src/drivers/riscv_cpu.c:737
204058b2:	fec42783          	lw	a5,-20(s0)
C:/wsFreedomStudio/kernel/freedom-metal/src/drivers/riscv_cpu.c:738
204058b6:	853e                	mv	a0,a5
204058b8:	50b2                	lw	ra,44(sp)
204058ba:	5422                	lw	s0,40(sp)
204058bc:	6145                	addi	sp,sp,48
204058be:	8082                	ret

204058c0 <__metal_driver_cpu_clear_sw_ipi>:
__metal_driver_cpu_clear_sw_ipi():
C:/wsFreedomStudio/kernel/freedom-metal/src/drivers/riscv_cpu.c:740
204058c0:	7179                	addi	sp,sp,-48
204058c2:	d606                	sw	ra,44(sp)
204058c4:	d422                	sw	s0,40(sp)
204058c6:	1800                	addi	s0,sp,48
204058c8:	fca42e23          	sw	a0,-36(s0)
204058cc:	fcb42c23          	sw	a1,-40(s0)
C:/wsFreedomStudio/kernel/freedom-metal/src/drivers/riscv_cpu.c:741
204058d0:	57fd                	li	a5,-1
204058d2:	fef42623          	sw	a5,-20(s0)
C:/wsFreedomStudio/kernel/freedom-metal/src/drivers/riscv_cpu.c:745
204058d6:	fdc42503          	lw	a0,-36(s0)
204058da:	fc4fe0ef          	jal	ra,2040409e <__metal_driver_cpu_interrupt_controller>
204058de:	fea42423          	sw	a0,-24(s0)
C:/wsFreedomStudio/kernel/freedom-metal/src/drivers/riscv_cpu.c:747
204058e2:	fe842783          	lw	a5,-24(s0)
204058e6:	c79d                	beqz	a5,20405914 <__metal_driver_cpu_clear_sw_ipi+0x54>
C:/wsFreedomStudio/kernel/freedom-metal/src/drivers/riscv_cpu.c:748
204058e8:	fe842783          	lw	a5,-24(s0)
204058ec:	0dc7a783          	lw	a5,220(a5)
204058f0:	fef42223          	sw	a5,-28(s0)
C:/wsFreedomStudio/kernel/freedom-metal/src/drivers/riscv_cpu.c:749
204058f4:	fe442783          	lw	a5,-28(s0)
204058f8:	cf91                	beqz	a5,20405914 <__metal_driver_cpu_clear_sw_ipi+0x54>
C:/wsFreedomStudio/kernel/freedom-metal/src/drivers/riscv_cpu.c:750
204058fa:	fe442783          	lw	a5,-28(s0)
204058fe:	439c                	lw	a5,0(a5)
20405900:	47f8                	lw	a4,76(a5)
20405902:	fd840793          	addi	a5,s0,-40
20405906:	863e                	mv	a2,a5
20405908:	4589                	li	a1,2
2040590a:	fe442503          	lw	a0,-28(s0)
2040590e:	9702                	jalr	a4
20405910:	fea42623          	sw	a0,-20(s0)
C:/wsFreedomStudio/kernel/freedom-metal/src/drivers/riscv_cpu.c:754
20405914:	fec42783          	lw	a5,-20(s0)
C:/wsFreedomStudio/kernel/freedom-metal/src/drivers/riscv_cpu.c:755
20405918:	853e                	mv	a0,a5
2040591a:	50b2                	lw	ra,44(sp)
2040591c:	5422                	lw	s0,40(sp)
2040591e:	6145                	addi	sp,sp,48
20405920:	8082                	ret

20405922 <__metal_driver_cpu_get_msip>:
__metal_driver_cpu_get_msip():
C:/wsFreedomStudio/kernel/freedom-metal/src/drivers/riscv_cpu.c:757
20405922:	7179                	addi	sp,sp,-48
20405924:	d606                	sw	ra,44(sp)
20405926:	d422                	sw	s0,40(sp)
20405928:	1800                	addi	s0,sp,48
2040592a:	fca42e23          	sw	a0,-36(s0)
2040592e:	fcb42c23          	sw	a1,-40(s0)
C:/wsFreedomStudio/kernel/freedom-metal/src/drivers/riscv_cpu.c:758
20405932:	fe042623          	sw	zero,-20(s0)
C:/wsFreedomStudio/kernel/freedom-metal/src/drivers/riscv_cpu.c:762
20405936:	fdc42503          	lw	a0,-36(s0)
2040593a:	f64fe0ef          	jal	ra,2040409e <__metal_driver_cpu_interrupt_controller>
2040593e:	fea42423          	sw	a0,-24(s0)
C:/wsFreedomStudio/kernel/freedom-metal/src/drivers/riscv_cpu.c:764
20405942:	fe842783          	lw	a5,-24(s0)
20405946:	c79d                	beqz	a5,20405974 <__metal_driver_cpu_get_msip+0x52>
C:/wsFreedomStudio/kernel/freedom-metal/src/drivers/riscv_cpu.c:765
20405948:	fe842783          	lw	a5,-24(s0)
2040594c:	0dc7a783          	lw	a5,220(a5)
20405950:	fef42223          	sw	a5,-28(s0)
C:/wsFreedomStudio/kernel/freedom-metal/src/drivers/riscv_cpu.c:766
20405954:	fe442783          	lw	a5,-28(s0)
20405958:	cf91                	beqz	a5,20405974 <__metal_driver_cpu_get_msip+0x52>
C:/wsFreedomStudio/kernel/freedom-metal/src/drivers/riscv_cpu.c:767
2040595a:	fe442783          	lw	a5,-28(s0)
2040595e:	439c                	lw	a5,0(a5)
20405960:	47f8                	lw	a4,76(a5)
20405962:	fd840793          	addi	a5,s0,-40
20405966:	863e                	mv	a2,a5
20405968:	4591                	li	a1,4
2040596a:	fe442503          	lw	a0,-28(s0)
2040596e:	9702                	jalr	a4
20405970:	fea42623          	sw	a0,-20(s0)
C:/wsFreedomStudio/kernel/freedom-metal/src/drivers/riscv_cpu.c:771
20405974:	fec42783          	lw	a5,-20(s0)
C:/wsFreedomStudio/kernel/freedom-metal/src/drivers/riscv_cpu.c:772
20405978:	853e                	mv	a0,a5
2040597a:	50b2                	lw	ra,44(sp)
2040597c:	5422                	lw	s0,40(sp)
2040597e:	6145                	addi	sp,sp,48
20405980:	8082                	ret

20405982 <__metal_driver_cpu_controller_interrupt>:
__metal_driver_cpu_controller_interrupt():
C:/wsFreedomStudio/kernel/freedom-metal/src/drivers/riscv_cpu.c:775
20405982:	1101                	addi	sp,sp,-32
20405984:	ce06                	sw	ra,28(sp)
20405986:	cc22                	sw	s0,24(sp)
20405988:	1000                	addi	s0,sp,32
2040598a:	fea42623          	sw	a0,-20(s0)
C:/wsFreedomStudio/kernel/freedom-metal/src/drivers/riscv_cpu.c:776
2040598e:	fec42503          	lw	a0,-20(s0)
20405992:	f0cfe0ef          	jal	ra,2040409e <__metal_driver_cpu_interrupt_controller>
20405996:	87aa                	mv	a5,a0
C:/wsFreedomStudio/kernel/freedom-metal/src/drivers/riscv_cpu.c:777
20405998:	853e                	mv	a0,a5
2040599a:	40f2                	lw	ra,28(sp)
2040599c:	4462                	lw	s0,24(sp)
2040599e:	6105                	addi	sp,sp,32
204059a0:	8082                	ret

204059a2 <__metal_driver_cpu_exception_register>:
__metal_driver_cpu_exception_register():
C:/wsFreedomStudio/kernel/freedom-metal/src/drivers/riscv_cpu.c:798
204059a2:	7179                	addi	sp,sp,-48
204059a4:	d606                	sw	ra,44(sp)
204059a6:	d422                	sw	s0,40(sp)
204059a8:	1800                	addi	s0,sp,48
204059aa:	fca42e23          	sw	a0,-36(s0)
204059ae:	fcb42c23          	sw	a1,-40(s0)
204059b2:	fcc42a23          	sw	a2,-44(s0)
C:/wsFreedomStudio/kernel/freedom-metal/src/drivers/riscv_cpu.c:801
204059b6:	fdc42503          	lw	a0,-36(s0)
204059ba:	ee4fe0ef          	jal	ra,2040409e <__metal_driver_cpu_interrupt_controller>
204059be:	fea42623          	sw	a0,-20(s0)
C:/wsFreedomStudio/kernel/freedom-metal/src/drivers/riscv_cpu.c:803
204059c2:	fec42783          	lw	a5,-20(s0)
204059c6:	cb99                	beqz	a5,204059dc <__metal_driver_cpu_exception_register+0x3a>
C:/wsFreedomStudio/kernel/freedom-metal/src/drivers/riscv_cpu.c:804
204059c8:	fd442603          	lw	a2,-44(s0)
204059cc:	fd842583          	lw	a1,-40(s0)
204059d0:	fec42503          	lw	a0,-20(s0)
204059d4:	8a5ff0ef          	jal	ra,20405278 <__metal_exception_register>
204059d8:	87aa                	mv	a5,a0
204059da:	a011                	j	204059de <__metal_driver_cpu_exception_register+0x3c>
C:/wsFreedomStudio/kernel/freedom-metal/src/drivers/riscv_cpu.c:807
204059dc:	57fd                	li	a5,-1
C:/wsFreedomStudio/kernel/freedom-metal/src/drivers/riscv_cpu.c:808
204059de:	853e                	mv	a0,a5
204059e0:	50b2                	lw	ra,44(sp)
204059e2:	5422                	lw	s0,40(sp)
204059e4:	6145                	addi	sp,sp,48
204059e6:	8082                	ret

204059e8 <__metal_driver_cpu_get_instruction_length>:
__metal_driver_cpu_get_instruction_length():
C:/wsFreedomStudio/kernel/freedom-metal/src/drivers/riscv_cpu.c:811
204059e8:	1101                	addi	sp,sp,-32
204059ea:	ce22                	sw	s0,28(sp)
204059ec:	1000                	addi	s0,sp,32
204059ee:	fea42623          	sw	a0,-20(s0)
204059f2:	feb42423          	sw	a1,-24(s0)
C:/wsFreedomStudio/kernel/freedom-metal/src/drivers/riscv_cpu.c:817
204059f6:	fe842783          	lw	a5,-24(s0)
204059fa:	0007d783          	lhu	a5,0(a5)
204059fe:	0037f713          	andi	a4,a5,3
C:/wsFreedomStudio/kernel/freedom-metal/src/drivers/riscv_cpu.c:820
20405a02:	478d                	li	a5,3
20405a04:	00f71463          	bne	a4,a5,20405a0c <__metal_driver_cpu_get_instruction_length+0x24>
C:/wsFreedomStudio/kernel/freedom-metal/src/drivers/riscv_cpu.c:820 (discriminator 1)
20405a08:	4791                	li	a5,4
20405a0a:	a011                	j	20405a0e <__metal_driver_cpu_get_instruction_length+0x26>
C:/wsFreedomStudio/kernel/freedom-metal/src/drivers/riscv_cpu.c:820 (discriminator 2)
20405a0c:	4789                	li	a5,2
C:/wsFreedomStudio/kernel/freedom-metal/src/drivers/riscv_cpu.c:821 (discriminator 5)
20405a0e:	853e                	mv	a0,a5
20405a10:	4472                	lw	s0,28(sp)
20405a12:	6105                	addi	sp,sp,32
20405a14:	8082                	ret

20405a16 <__metal_driver_cpu_get_exception_pc>:
__metal_driver_cpu_get_exception_pc():
C:/wsFreedomStudio/kernel/freedom-metal/src/drivers/riscv_cpu.c:823
20405a16:	7179                	addi	sp,sp,-48
20405a18:	d622                	sw	s0,44(sp)
20405a1a:	1800                	addi	s0,sp,48
20405a1c:	fca42e23          	sw	a0,-36(s0)
C:/wsFreedomStudio/kernel/freedom-metal/src/drivers/riscv_cpu.c:825
20405a20:	341027f3          	csrr	a5,mepc
20405a24:	fef42623          	sw	a5,-20(s0)
C:/wsFreedomStudio/kernel/freedom-metal/src/drivers/riscv_cpu.c:826
20405a28:	fec42783          	lw	a5,-20(s0)
C:/wsFreedomStudio/kernel/freedom-metal/src/drivers/riscv_cpu.c:827
20405a2c:	853e                	mv	a0,a5
20405a2e:	5432                	lw	s0,44(sp)
20405a30:	6145                	addi	sp,sp,48
20405a32:	8082                	ret

20405a34 <__metal_driver_cpu_set_exception_pc>:
__metal_driver_cpu_set_exception_pc():
C:/wsFreedomStudio/kernel/freedom-metal/src/drivers/riscv_cpu.c:829
20405a34:	1101                	addi	sp,sp,-32
20405a36:	ce22                	sw	s0,28(sp)
20405a38:	1000                	addi	s0,sp,32
20405a3a:	fea42623          	sw	a0,-20(s0)
20405a3e:	feb42423          	sw	a1,-24(s0)
C:/wsFreedomStudio/kernel/freedom-metal/src/drivers/riscv_cpu.c:830
20405a42:	fe842783          	lw	a5,-24(s0)
20405a46:	34179073          	csrw	mepc,a5
C:/wsFreedomStudio/kernel/freedom-metal/src/drivers/riscv_cpu.c:831
20405a4a:	4781                	li	a5,0
C:/wsFreedomStudio/kernel/freedom-metal/src/drivers/riscv_cpu.c:832
20405a4c:	853e                	mv	a0,a5
20405a4e:	4472                	lw	s0,28(sp)
20405a50:	6105                	addi	sp,sp,32
20405a52:	8082                	ret

20405a54 <__metal_driver_cpu_get_buserror>:
__metal_driver_cpu_get_buserror():
C:/wsFreedomStudio/kernel/freedom-metal/src/drivers/riscv_cpu.c:834
20405a54:	1101                	addi	sp,sp,-32
20405a56:	ce06                	sw	ra,28(sp)
20405a58:	cc22                	sw	s0,24(sp)
20405a5a:	1000                	addi	s0,sp,32
20405a5c:	fea42623          	sw	a0,-20(s0)
C:/wsFreedomStudio/kernel/freedom-metal/src/drivers/riscv_cpu.c:835
20405a60:	fec42503          	lw	a0,-20(s0)
20405a64:	e64fe0ef          	jal	ra,204040c8 <__metal_driver_cpu_buserror>
20405a68:	87aa                	mv	a5,a0
C:/wsFreedomStudio/kernel/freedom-metal/src/drivers/riscv_cpu.c:836
20405a6a:	853e                	mv	a0,a5
20405a6c:	40f2                	lw	ra,28(sp)
20405a6e:	4462                	lw	s0,24(sp)
20405a70:	6105                	addi	sp,sp,32
20405a72:	8082                	ret

20405a74 <__metal_driver_sifive_plic0_control_base>:
__metal_driver_sifive_plic0_control_base():
C:\wsFreedomStudio\kernel\bsp\build\debug/./metal/machine.h:314
20405a74:	1101                	addi	sp,sp,-32
20405a76:	ce22                	sw	s0,28(sp)
20405a78:	1000                	addi	s0,sp,32
20405a7a:	fea42623          	sw	a0,-20(s0)
C:\wsFreedomStudio\kernel\bsp\build\debug/./metal/machine.h:315
20405a7e:	fec42703          	lw	a4,-20(s0)
20405a82:	800007b7          	lui	a5,0x80000
20405a86:	45878793          	addi	a5,a5,1112 # 80000458 <metal_segment_heap_target_end+0xffffe988>
20405a8a:	00f71563          	bne	a4,a5,20405a94 <__metal_driver_sifive_plic0_control_base+0x20>
C:\wsFreedomStudio\kernel\bsp\build\debug/./metal/machine.h:316
20405a8e:	0c0007b7          	lui	a5,0xc000
20405a92:	a011                	j	20405a96 <__metal_driver_sifive_plic0_control_base+0x22>
C:\wsFreedomStudio\kernel\bsp\build\debug/./metal/machine.h:319
20405a94:	4781                	li	a5,0
C:\wsFreedomStudio\kernel\bsp\build\debug/./metal/machine.h:321
20405a96:	853e                	mv	a0,a5
20405a98:	4472                	lw	s0,28(sp)
20405a9a:	6105                	addi	sp,sp,32
20405a9c:	8082                	ret

20405a9e <__metal_driver_sifive_plic0_num_interrupts>:
__metal_driver_sifive_plic0_num_interrupts():
C:\wsFreedomStudio\kernel\bsp\build\debug/./metal/machine.h:334
20405a9e:	1101                	addi	sp,sp,-32
20405aa0:	ce22                	sw	s0,28(sp)
20405aa2:	1000                	addi	s0,sp,32
20405aa4:	fea42623          	sw	a0,-20(s0)
C:\wsFreedomStudio\kernel\bsp\build\debug/./metal/machine.h:335
20405aa8:	fec42703          	lw	a4,-20(s0)
20405aac:	800007b7          	lui	a5,0x80000
20405ab0:	45878793          	addi	a5,a5,1112 # 80000458 <metal_segment_heap_target_end+0xffffe988>
20405ab4:	00f71463          	bne	a4,a5,20405abc <__metal_driver_sifive_plic0_num_interrupts+0x1e>
C:\wsFreedomStudio\kernel\bsp\build\debug/./metal/machine.h:336
20405ab8:	47ed                	li	a5,27
20405aba:	a011                	j	20405abe <__metal_driver_sifive_plic0_num_interrupts+0x20>
C:\wsFreedomStudio\kernel\bsp\build\debug/./metal/machine.h:339
20405abc:	4781                	li	a5,0
C:\wsFreedomStudio\kernel\bsp\build\debug/./metal/machine.h:341
20405abe:	853e                	mv	a0,a5
20405ac0:	4472                	lw	s0,28(sp)
20405ac2:	6105                	addi	sp,sp,32
20405ac4:	8082                	ret

20405ac6 <__metal_driver_sifive_plic0_max_priority>:
__metal_driver_sifive_plic0_max_priority():
C:\wsFreedomStudio\kernel\bsp\build\debug/./metal/machine.h:344
20405ac6:	1101                	addi	sp,sp,-32
20405ac8:	ce22                	sw	s0,28(sp)
20405aca:	1000                	addi	s0,sp,32
20405acc:	fea42623          	sw	a0,-20(s0)
C:\wsFreedomStudio\kernel\bsp\build\debug/./metal/machine.h:345
20405ad0:	fec42703          	lw	a4,-20(s0)
20405ad4:	800007b7          	lui	a5,0x80000
20405ad8:	45878793          	addi	a5,a5,1112 # 80000458 <metal_segment_heap_target_end+0xffffe988>
20405adc:	00f71463          	bne	a4,a5,20405ae4 <__metal_driver_sifive_plic0_max_priority+0x1e>
C:\wsFreedomStudio\kernel\bsp\build\debug/./metal/machine.h:346
20405ae0:	479d                	li	a5,7
20405ae2:	a011                	j	20405ae6 <__metal_driver_sifive_plic0_max_priority+0x20>
C:\wsFreedomStudio\kernel\bsp\build\debug/./metal/machine.h:349
20405ae4:	4781                	li	a5,0
C:\wsFreedomStudio\kernel\bsp\build\debug/./metal/machine.h:351
20405ae6:	853e                	mv	a0,a5
20405ae8:	4472                	lw	s0,28(sp)
20405aea:	6105                	addi	sp,sp,32
20405aec:	8082                	ret

20405aee <__metal_driver_sifive_plic0_interrupt_parents>:
__metal_driver_sifive_plic0_interrupt_parents():
C:\wsFreedomStudio\kernel\bsp\build\debug/./metal/machine.h:354
20405aee:	1101                	addi	sp,sp,-32
20405af0:	ce22                	sw	s0,28(sp)
20405af2:	1000                	addi	s0,sp,32
20405af4:	fea42623          	sw	a0,-20(s0)
20405af8:	feb42423          	sw	a1,-24(s0)
C:\wsFreedomStudio\kernel\bsp\build\debug/./metal/machine.h:355
20405afc:	fe842783          	lw	a5,-24(s0)
20405b00:	e791                	bnez	a5,20405b0c <__metal_driver_sifive_plic0_interrupt_parents+0x1e>
C:\wsFreedomStudio\kernel\bsp\build\debug/./metal/machine.h:356
20405b02:	800007b7          	lui	a5,0x80000
20405b06:	08878793          	addi	a5,a5,136 # 80000088 <metal_segment_heap_target_end+0xffffe5b8>
20405b0a:	a011                	j	20405b0e <__metal_driver_sifive_plic0_interrupt_parents+0x20>
C:\wsFreedomStudio\kernel\bsp\build\debug/./metal/machine.h:359
20405b0c:	4781                	li	a5,0
C:\wsFreedomStudio\kernel\bsp\build\debug/./metal/machine.h:361
20405b0e:	853e                	mv	a0,a5
20405b10:	4472                	lw	s0,28(sp)
20405b12:	6105                	addi	sp,sp,32
20405b14:	8082                	ret

20405b16 <__metal_driver_sifive_plic0_interrupt_lines>:
__metal_driver_sifive_plic0_interrupt_lines():
C:\wsFreedomStudio\kernel\bsp\build\debug/./metal/machine.h:364
20405b16:	1101                	addi	sp,sp,-32
20405b18:	ce22                	sw	s0,28(sp)
20405b1a:	1000                	addi	s0,sp,32
20405b1c:	fea42623          	sw	a0,-20(s0)
20405b20:	feb42423          	sw	a1,-24(s0)
C:\wsFreedomStudio\kernel\bsp\build\debug/./metal/machine.h:365
20405b24:	fe842783          	lw	a5,-24(s0)
20405b28:	e399                	bnez	a5,20405b2e <__metal_driver_sifive_plic0_interrupt_lines+0x18>
C:\wsFreedomStudio\kernel\bsp\build\debug/./metal/machine.h:366
20405b2a:	47ad                	li	a5,11
20405b2c:	a011                	j	20405b30 <__metal_driver_sifive_plic0_interrupt_lines+0x1a>
C:\wsFreedomStudio\kernel\bsp\build\debug/./metal/machine.h:369
20405b2e:	4781                	li	a5,0
C:\wsFreedomStudio\kernel\bsp\build\debug/./metal/machine.h:371
20405b30:	853e                	mv	a0,a5
20405b32:	4472                	lw	s0,28(sp)
20405b34:	6105                	addi	sp,sp,32
20405b36:	8082                	ret

20405b38 <__metal_driver_sifive_plic0_context_ids>:
__metal_driver_sifive_plic0_context_ids():
C:\wsFreedomStudio\kernel\bsp\build\debug/./metal/machine.h:374
20405b38:	1101                	addi	sp,sp,-32
20405b3a:	ce22                	sw	s0,28(sp)
20405b3c:	1000                	addi	s0,sp,32
20405b3e:	fea42623          	sw	a0,-20(s0)
C:\wsFreedomStudio\kernel\bsp\build\debug/./metal/machine.h:375
20405b42:	fec42783          	lw	a5,-20(s0)
20405b46:	e399                	bnez	a5,20405b4c <__metal_driver_sifive_plic0_context_ids+0x14>
C:\wsFreedomStudio\kernel\bsp\build\debug/./metal/machine.h:376
20405b48:	4781                	li	a5,0
20405b4a:	a011                	j	20405b4e <__metal_driver_sifive_plic0_context_ids+0x16>
C:\wsFreedomStudio\kernel\bsp\build\debug/./metal/machine.h:379
20405b4c:	57fd                	li	a5,-1
C:\wsFreedomStudio\kernel\bsp\build\debug/./metal/machine.h:381
20405b4e:	853e                	mv	a0,a5
20405b50:	4472                	lw	s0,28(sp)
20405b52:	6105                	addi	sp,sp,32
20405b54:	8082                	ret

20405b56 <__metal_plic0_claim_interrupt>:
__metal_plic0_claim_interrupt():
C:/wsFreedomStudio/kernel/freedom-metal/src/drivers/riscv_plic0.c:18
20405b56:	7179                	addi	sp,sp,-48
20405b58:	d606                	sw	ra,44(sp)
20405b5a:	d422                	sw	s0,40(sp)
20405b5c:	1800                	addi	s0,sp,48
20405b5e:	fca42e23          	sw	a0,-36(s0)
20405b62:	fcb42c23          	sw	a1,-40(s0)
C:/wsFreedomStudio/kernel/freedom-metal/src/drivers/riscv_plic0.c:19
20405b66:	fdc42503          	lw	a0,-36(s0)
20405b6a:	3729                	jal	20405a74 <__metal_driver_sifive_plic0_control_base>
20405b6c:	fea42623          	sw	a0,-20(s0)
C:/wsFreedomStudio/kernel/freedom-metal/src/drivers/riscv_plic0.c:21
20405b70:	fd842783          	lw	a5,-40(s0)
20405b74:	00c79713          	slli	a4,a5,0xc
20405b78:	fec42783          	lw	a5,-20(s0)
20405b7c:	973e                	add	a4,a4,a5
20405b7e:	002007b7          	lui	a5,0x200
20405b82:	0791                	addi	a5,a5,4
20405b84:	97ba                	add	a5,a5,a4
20405b86:	439c                	lw	a5,0(a5)
C:/wsFreedomStudio/kernel/freedom-metal/src/drivers/riscv_plic0.c:25
20405b88:	853e                	mv	a0,a5
20405b8a:	50b2                	lw	ra,44(sp)
20405b8c:	5422                	lw	s0,40(sp)
20405b8e:	6145                	addi	sp,sp,48
20405b90:	8082                	ret

20405b92 <__metal_plic0_complete_interrupt>:
__metal_plic0_complete_interrupt():
C:/wsFreedomStudio/kernel/freedom-metal/src/drivers/riscv_plic0.c:28
20405b92:	7179                	addi	sp,sp,-48
20405b94:	d606                	sw	ra,44(sp)
20405b96:	d422                	sw	s0,40(sp)
20405b98:	1800                	addi	s0,sp,48
20405b9a:	fca42e23          	sw	a0,-36(s0)
20405b9e:	fcb42c23          	sw	a1,-40(s0)
20405ba2:	fcc42a23          	sw	a2,-44(s0)
C:/wsFreedomStudio/kernel/freedom-metal/src/drivers/riscv_plic0.c:29
20405ba6:	fdc42503          	lw	a0,-36(s0)
20405baa:	35e9                	jal	20405a74 <__metal_driver_sifive_plic0_control_base>
20405bac:	fea42623          	sw	a0,-20(s0)
C:/wsFreedomStudio/kernel/freedom-metal/src/drivers/riscv_plic0.c:31
20405bb0:	fd842783          	lw	a5,-40(s0)
20405bb4:	00c79713          	slli	a4,a5,0xc
20405bb8:	fec42783          	lw	a5,-20(s0)
20405bbc:	973e                	add	a4,a4,a5
20405bbe:	002007b7          	lui	a5,0x200
20405bc2:	0791                	addi	a5,a5,4
20405bc4:	97ba                	add	a5,a5,a4
20405bc6:	873e                	mv	a4,a5
C:/wsFreedomStudio/kernel/freedom-metal/src/drivers/riscv_plic0.c:34
20405bc8:	fd442783          	lw	a5,-44(s0)
20405bcc:	c31c                	sw	a5,0(a4)
C:/wsFreedomStudio/kernel/freedom-metal/src/drivers/riscv_plic0.c:35
20405bce:	0001                	nop
20405bd0:	50b2                	lw	ra,44(sp)
20405bd2:	5422                	lw	s0,40(sp)
20405bd4:	6145                	addi	sp,sp,48
20405bd6:	8082                	ret

20405bd8 <__metal_plic0_set_threshold>:
__metal_plic0_set_threshold():
C:/wsFreedomStudio/kernel/freedom-metal/src/drivers/riscv_plic0.c:38
20405bd8:	7179                	addi	sp,sp,-48
20405bda:	d606                	sw	ra,44(sp)
20405bdc:	d422                	sw	s0,40(sp)
20405bde:	1800                	addi	s0,sp,48
20405be0:	fca42e23          	sw	a0,-36(s0)
20405be4:	fcb42c23          	sw	a1,-40(s0)
20405be8:	fcc42a23          	sw	a2,-44(s0)
C:/wsFreedomStudio/kernel/freedom-metal/src/drivers/riscv_plic0.c:40
20405bec:	fdc42503          	lw	a0,-36(s0)
20405bf0:	3551                	jal	20405a74 <__metal_driver_sifive_plic0_control_base>
20405bf2:	fea42623          	sw	a0,-20(s0)
C:/wsFreedomStudio/kernel/freedom-metal/src/drivers/riscv_plic0.c:41
20405bf6:	fd842783          	lw	a5,-40(s0)
20405bfa:	00c79713          	slli	a4,a5,0xc
20405bfe:	fec42783          	lw	a5,-20(s0)
20405c02:	973e                	add	a4,a4,a5
20405c04:	002007b7          	lui	a5,0x200
20405c08:	97ba                	add	a5,a5,a4
20405c0a:	873e                	mv	a4,a5
C:/wsFreedomStudio/kernel/freedom-metal/src/drivers/riscv_plic0.c:44
20405c0c:	fd442783          	lw	a5,-44(s0)
20405c10:	c31c                	sw	a5,0(a4)
C:/wsFreedomStudio/kernel/freedom-metal/src/drivers/riscv_plic0.c:45
20405c12:	4781                	li	a5,0
C:/wsFreedomStudio/kernel/freedom-metal/src/drivers/riscv_plic0.c:46
20405c14:	853e                	mv	a0,a5
20405c16:	50b2                	lw	ra,44(sp)
20405c18:	5422                	lw	s0,40(sp)
20405c1a:	6145                	addi	sp,sp,48
20405c1c:	8082                	ret

20405c1e <__metal_plic0_get_threshold>:
__metal_plic0_get_threshold():
C:/wsFreedomStudio/kernel/freedom-metal/src/drivers/riscv_plic0.c:49
20405c1e:	7179                	addi	sp,sp,-48
20405c20:	d606                	sw	ra,44(sp)
20405c22:	d422                	sw	s0,40(sp)
20405c24:	1800                	addi	s0,sp,48
20405c26:	fca42e23          	sw	a0,-36(s0)
20405c2a:	fcb42c23          	sw	a1,-40(s0)
C:/wsFreedomStudio/kernel/freedom-metal/src/drivers/riscv_plic0.c:51
20405c2e:	fdc42503          	lw	a0,-36(s0)
20405c32:	3589                	jal	20405a74 <__metal_driver_sifive_plic0_control_base>
20405c34:	fea42623          	sw	a0,-20(s0)
C:/wsFreedomStudio/kernel/freedom-metal/src/drivers/riscv_plic0.c:52
20405c38:	fd842783          	lw	a5,-40(s0)
20405c3c:	00c79713          	slli	a4,a5,0xc
20405c40:	fec42783          	lw	a5,-20(s0)
20405c44:	973e                	add	a4,a4,a5
20405c46:	002007b7          	lui	a5,0x200
20405c4a:	97ba                	add	a5,a5,a4
20405c4c:	439c                	lw	a5,0(a5)
C:/wsFreedomStudio/kernel/freedom-metal/src/drivers/riscv_plic0.c:56
20405c4e:	853e                	mv	a0,a5
20405c50:	50b2                	lw	ra,44(sp)
20405c52:	5422                	lw	s0,40(sp)
20405c54:	6145                	addi	sp,sp,48
20405c56:	8082                	ret

20405c58 <__metal_driver_riscv_plic0_set_priority>:
__metal_driver_riscv_plic0_set_priority():
C:/wsFreedomStudio/kernel/freedom-metal/src/drivers/riscv_plic0.c:59
20405c58:	7179                	addi	sp,sp,-48
20405c5a:	d606                	sw	ra,44(sp)
20405c5c:	d422                	sw	s0,40(sp)
20405c5e:	1800                	addi	s0,sp,48
20405c60:	fca42e23          	sw	a0,-36(s0)
20405c64:	fcb42c23          	sw	a1,-40(s0)
20405c68:	fcc42a23          	sw	a2,-44(s0)
C:/wsFreedomStudio/kernel/freedom-metal/src/drivers/riscv_plic0.c:60
20405c6c:	fdc42503          	lw	a0,-36(s0)
20405c70:	3511                	jal	20405a74 <__metal_driver_sifive_plic0_control_base>
20405c72:	fea42623          	sw	a0,-20(s0)
C:/wsFreedomStudio/kernel/freedom-metal/src/drivers/riscv_plic0.c:62
20405c76:	fdc42503          	lw	a0,-36(s0)
20405c7a:	35b1                	jal	20405ac6 <__metal_driver_sifive_plic0_max_priority>
20405c7c:	87aa                	mv	a5,a0
20405c7e:	fef42423          	sw	a5,-24(s0)
C:/wsFreedomStudio/kernel/freedom-metal/src/drivers/riscv_plic0.c:64
20405c82:	fe842783          	lw	a5,-24(s0)
20405c86:	c785                	beqz	a5,20405cae <__metal_driver_riscv_plic0_set_priority+0x56>
C:/wsFreedomStudio/kernel/freedom-metal/src/drivers/riscv_plic0.c:64 (discriminator 1)
20405c88:	fd442703          	lw	a4,-44(s0)
20405c8c:	fe842783          	lw	a5,-24(s0)
20405c90:	00f77f63          	bgeu	a4,a5,20405cae <__metal_driver_riscv_plic0_set_priority+0x56>
C:/wsFreedomStudio/kernel/freedom-metal/src/drivers/riscv_plic0.c:65
20405c94:	fd842783          	lw	a5,-40(s0)
20405c98:	078a                	slli	a5,a5,0x2
20405c9a:	873e                	mv	a4,a5
20405c9c:	fec42783          	lw	a5,-20(s0)
20405ca0:	97ba                	add	a5,a5,a4
20405ca2:	873e                	mv	a4,a5
C:/wsFreedomStudio/kernel/freedom-metal/src/drivers/riscv_plic0.c:67
20405ca4:	fd442783          	lw	a5,-44(s0)
20405ca8:	c31c                	sw	a5,0(a4)
C:/wsFreedomStudio/kernel/freedom-metal/src/drivers/riscv_plic0.c:69
20405caa:	4781                	li	a5,0
20405cac:	a011                	j	20405cb0 <__metal_driver_riscv_plic0_set_priority+0x58>
C:/wsFreedomStudio/kernel/freedom-metal/src/drivers/riscv_plic0.c:71
20405cae:	57fd                	li	a5,-1
C:/wsFreedomStudio/kernel/freedom-metal/src/drivers/riscv_plic0.c:72
20405cb0:	853e                	mv	a0,a5
20405cb2:	50b2                	lw	ra,44(sp)
20405cb4:	5422                	lw	s0,40(sp)
20405cb6:	6145                	addi	sp,sp,48
20405cb8:	8082                	ret

20405cba <__metal_driver_riscv_plic0_get_priority>:
__metal_driver_riscv_plic0_get_priority():
C:/wsFreedomStudio/kernel/freedom-metal/src/drivers/riscv_plic0.c:76
20405cba:	7179                	addi	sp,sp,-48
20405cbc:	d606                	sw	ra,44(sp)
20405cbe:	d422                	sw	s0,40(sp)
20405cc0:	1800                	addi	s0,sp,48
20405cc2:	fca42e23          	sw	a0,-36(s0)
20405cc6:	fcb42c23          	sw	a1,-40(s0)
C:/wsFreedomStudio/kernel/freedom-metal/src/drivers/riscv_plic0.c:78
20405cca:	fdc42503          	lw	a0,-36(s0)
20405cce:	335d                	jal	20405a74 <__metal_driver_sifive_plic0_control_base>
20405cd0:	fea42623          	sw	a0,-20(s0)
C:/wsFreedomStudio/kernel/freedom-metal/src/drivers/riscv_plic0.c:80
20405cd4:	fd842783          	lw	a5,-40(s0)
20405cd8:	078a                	slli	a5,a5,0x2
20405cda:	873e                	mv	a4,a5
20405cdc:	fec42783          	lw	a5,-20(s0)
20405ce0:	97ba                	add	a5,a5,a4
20405ce2:	439c                	lw	a5,0(a5)
C:/wsFreedomStudio/kernel/freedom-metal/src/drivers/riscv_plic0.c:83
20405ce4:	853e                	mv	a0,a5
20405ce6:	50b2                	lw	ra,44(sp)
20405ce8:	5422                	lw	s0,40(sp)
20405cea:	6145                	addi	sp,sp,48
20405cec:	8082                	ret

20405cee <__metal_plic0_enable>:
__metal_plic0_enable():
C:/wsFreedomStudio/kernel/freedom-metal/src/drivers/riscv_plic0.c:86
20405cee:	7179                	addi	sp,sp,-48
20405cf0:	d606                	sw	ra,44(sp)
20405cf2:	d422                	sw	s0,40(sp)
20405cf4:	1800                	addi	s0,sp,48
20405cf6:	fca42e23          	sw	a0,-36(s0)
20405cfa:	fcb42c23          	sw	a1,-40(s0)
20405cfe:	fcc42a23          	sw	a2,-44(s0)
20405d02:	fcd42823          	sw	a3,-48(s0)
C:/wsFreedomStudio/kernel/freedom-metal/src/drivers/riscv_plic0.c:88
20405d06:	fdc42503          	lw	a0,-36(s0)
20405d0a:	d6bff0ef          	jal	ra,20405a74 <__metal_driver_sifive_plic0_control_base>
20405d0e:	fea42623          	sw	a0,-20(s0)
C:/wsFreedomStudio/kernel/freedom-metal/src/drivers/riscv_plic0.c:91
20405d12:	fd842783          	lw	a5,-40(s0)
20405d16:	00779713          	slli	a4,a5,0x7
20405d1a:	fec42783          	lw	a5,-20(s0)
20405d1e:	97ba                	add	a5,a5,a4
20405d20:	fd442703          	lw	a4,-44(s0)
20405d24:	8715                	srai	a4,a4,0x5
20405d26:	070a                	slli	a4,a4,0x2
20405d28:	973e                	add	a4,a4,a5
20405d2a:	6789                	lui	a5,0x2
20405d2c:	97ba                	add	a5,a5,a4
20405d2e:	439c                	lw	a5,0(a5)
20405d30:	fef42423          	sw	a5,-24(s0)
C:/wsFreedomStudio/kernel/freedom-metal/src/drivers/riscv_plic0.c:100
20405d34:	fd042783          	lw	a5,-48(s0)
20405d38:	cf81                	beqz	a5,20405d50 <__metal_plic0_enable+0x62>
C:/wsFreedomStudio/kernel/freedom-metal/src/drivers/riscv_plic0.c:99 (discriminator 1)
20405d3a:	fd442783          	lw	a5,-44(s0)
20405d3e:	8bfd                	andi	a5,a5,31
20405d40:	4705                	li	a4,1
20405d42:	00f717b3          	sll	a5,a4,a5
20405d46:	873e                	mv	a4,a5
C:/wsFreedomStudio/kernel/freedom-metal/src/drivers/riscv_plic0.c:100 (discriminator 1)
20405d48:	fe842783          	lw	a5,-24(s0)
20405d4c:	8fd9                	or	a5,a5,a4
20405d4e:	a829                	j	20405d68 <__metal_plic0_enable+0x7a>
C:/wsFreedomStudio/kernel/freedom-metal/src/drivers/riscv_plic0.c:100 (discriminator 2)
20405d50:	fd442783          	lw	a5,-44(s0)
20405d54:	8bfd                	andi	a5,a5,31
20405d56:	4705                	li	a4,1
20405d58:	00f717b3          	sll	a5,a4,a5
20405d5c:	fff7c793          	not	a5,a5
20405d60:	873e                	mv	a4,a5
20405d62:	fe842783          	lw	a5,-24(s0)
20405d66:	8ff9                	and	a5,a5,a4
C:/wsFreedomStudio/kernel/freedom-metal/src/drivers/riscv_plic0.c:95
20405d68:	fd842703          	lw	a4,-40(s0)
20405d6c:	00771693          	slli	a3,a4,0x7
20405d70:	fec42703          	lw	a4,-20(s0)
20405d74:	9736                	add	a4,a4,a3
20405d76:	fd442683          	lw	a3,-44(s0)
20405d7a:	8695                	srai	a3,a3,0x5
20405d7c:	068a                	slli	a3,a3,0x2
20405d7e:	96ba                	add	a3,a3,a4
20405d80:	6709                	lui	a4,0x2
20405d82:	9736                	add	a4,a4,a3
C:/wsFreedomStudio/kernel/freedom-metal/src/drivers/riscv_plic0.c:98
20405d84:	c31c                	sw	a5,0(a4)
C:/wsFreedomStudio/kernel/freedom-metal/src/drivers/riscv_plic0.c:102
20405d86:	4781                	li	a5,0
C:/wsFreedomStudio/kernel/freedom-metal/src/drivers/riscv_plic0.c:103
20405d88:	853e                	mv	a0,a5
20405d8a:	50b2                	lw	ra,44(sp)
20405d8c:	5422                	lw	s0,40(sp)
20405d8e:	6145                	addi	sp,sp,48
20405d90:	8082                	ret

20405d92 <__metal_plic0_default_handler>:
__metal_plic0_default_handler():
C:/wsFreedomStudio/kernel/freedom-metal/src/drivers/riscv_plic0.c:105
20405d92:	1101                	addi	sp,sp,-32
20405d94:	ce06                	sw	ra,28(sp)
20405d96:	cc22                	sw	s0,24(sp)
20405d98:	1000                	addi	s0,sp,32
20405d9a:	fea42623          	sw	a0,-20(s0)
20405d9e:	feb42423          	sw	a1,-24(s0)
20405da2:	12c00513          	li	a0,300
20405da6:	046020ef          	jal	ra,20407dec <metal_shutdown>

20405daa <__metal_plic0_handler>:
__metal_plic0_handler():
C:/wsFreedomStudio/kernel/freedom-metal/src/drivers/riscv_plic0.c:107
20405daa:	7179                	addi	sp,sp,-48
20405dac:	d606                	sw	ra,44(sp)
20405dae:	d422                	sw	s0,40(sp)
20405db0:	1800                	addi	s0,sp,48
20405db2:	fca42e23          	sw	a0,-36(s0)
20405db6:	fcb42c23          	sw	a1,-40(s0)
C:/wsFreedomStudio/kernel/freedom-metal/src/drivers/riscv_plic0.c:108
20405dba:	fd842783          	lw	a5,-40(s0)
20405dbe:	fef42623          	sw	a5,-20(s0)
C:/wsFreedomStudio/kernel/freedom-metal/src/drivers/riscv_plic0.c:110
20405dc2:	b5afe0ef          	jal	ra,2040411c <__metal_myhart_id>
20405dc6:	87aa                	mv	a5,a0
20405dc8:	853e                	mv	a0,a5
20405dca:	d6fff0ef          	jal	ra,20405b38 <__metal_driver_sifive_plic0_context_ids>
20405dce:	fea42423          	sw	a0,-24(s0)
C:/wsFreedomStudio/kernel/freedom-metal/src/drivers/riscv_plic0.c:111
20405dd2:	fe842583          	lw	a1,-24(s0)
20405dd6:	fec42503          	lw	a0,-20(s0)
20405dda:	d7dff0ef          	jal	ra,20405b56 <__metal_plic0_claim_interrupt>
20405dde:	fea42223          	sw	a0,-28(s0)
C:/wsFreedomStudio/kernel/freedom-metal/src/drivers/riscv_plic0.c:112
20405de2:	fec42503          	lw	a0,-20(s0)
20405de6:	cb9ff0ef          	jal	ra,20405a9e <__metal_driver_sifive_plic0_num_interrupts>
20405dea:	87aa                	mv	a5,a0
20405dec:	fef42023          	sw	a5,-32(s0)
C:/wsFreedomStudio/kernel/freedom-metal/src/drivers/riscv_plic0.c:115
20405df0:	fe442703          	lw	a4,-28(s0)
20405df4:	fe042783          	lw	a5,-32(s0)
20405df8:	04f77263          	bgeu	a4,a5,20405e3c <__metal_plic0_handler+0x92>
C:/wsFreedomStudio/kernel/freedom-metal/src/drivers/riscv_plic0.c:115 (discriminator 1)
20405dfc:	fec42703          	lw	a4,-20(s0)
20405e00:	fe442783          	lw	a5,-28(s0)
20405e04:	078a                	slli	a5,a5,0x2
20405e06:	97ba                	add	a5,a5,a4
20405e08:	479c                	lw	a5,8(a5)
20405e0a:	cb8d                	beqz	a5,20405e3c <__metal_plic0_handler+0x92>
C:/wsFreedomStudio/kernel/freedom-metal/src/drivers/riscv_plic0.c:116
20405e0c:	fec42703          	lw	a4,-20(s0)
20405e10:	fe442783          	lw	a5,-28(s0)
20405e14:	078a                	slli	a5,a5,0x2
20405e16:	97ba                	add	a5,a5,a4
20405e18:	0087a803          	lw	a6,8(a5) # 2008 <__heap_size+0x1808>
20405e1c:	fe442603          	lw	a2,-28(s0)
20405e20:	fec42683          	lw	a3,-20(s0)
20405e24:	fe442703          	lw	a4,-28(s0)
20405e28:	87ba                	mv	a5,a4
20405e2a:	0786                	slli	a5,a5,0x1
20405e2c:	97ba                	add	a5,a5,a4
20405e2e:	078e                	slli	a5,a5,0x3
20405e30:	97b6                	add	a5,a5,a3
20405e32:	0887a783          	lw	a5,136(a5)
20405e36:	85be                	mv	a1,a5
20405e38:	8532                	mv	a0,a2
20405e3a:	9802                	jalr	a6
C:/wsFreedomStudio/kernel/freedom-metal/src/drivers/riscv_plic0.c:120
20405e3c:	fe442603          	lw	a2,-28(s0)
20405e40:	fe842583          	lw	a1,-24(s0)
20405e44:	fec42503          	lw	a0,-20(s0)
20405e48:	d4bff0ef          	jal	ra,20405b92 <__metal_plic0_complete_interrupt>
C:/wsFreedomStudio/kernel/freedom-metal/src/drivers/riscv_plic0.c:121
20405e4c:	0001                	nop
20405e4e:	50b2                	lw	ra,44(sp)
20405e50:	5422                	lw	s0,40(sp)
20405e52:	6145                	addi	sp,sp,48
20405e54:	8082                	ret

20405e56 <__metal_driver_riscv_plic0_init>:
__metal_driver_riscv_plic0_init():
C:/wsFreedomStudio/kernel/freedom-metal/src/drivers/riscv_plic0.c:123
20405e56:	7139                	addi	sp,sp,-64
20405e58:	de06                	sw	ra,60(sp)
20405e5a:	dc22                	sw	s0,56(sp)
20405e5c:	0080                	addi	s0,sp,64
20405e5e:	fca42623          	sw	a0,-52(s0)
C:/wsFreedomStudio/kernel/freedom-metal/src/drivers/riscv_plic0.c:124
20405e62:	fcc42783          	lw	a5,-52(s0)
20405e66:	fef42223          	sw	a5,-28(s0)
C:/wsFreedomStudio/kernel/freedom-metal/src/drivers/riscv_plic0.c:126
20405e6a:	fe442783          	lw	a5,-28(s0)
20405e6e:	43dc                	lw	a5,4(a5)
20405e70:	12079b63          	bnez	a5,20405fa6 <__metal_driver_riscv_plic0_init+0x150>
C:/wsFreedomStudio/kernel/freedom-metal/src/drivers/riscv_plic0.c:130
20405e74:	fe042623          	sw	zero,-20(s0)
20405e78:	aa39                	j	20405f96 <__metal_driver_riscv_plic0_init+0x140>
C:/wsFreedomStudio/kernel/freedom-metal/src/drivers/riscv_plic0.c:132
20405e7a:	fcc42503          	lw	a0,-52(s0)
20405e7e:	c21ff0ef          	jal	ra,20405a9e <__metal_driver_sifive_plic0_num_interrupts>
20405e82:	fea42023          	sw	a0,-32(s0)
C:/wsFreedomStudio/kernel/freedom-metal/src/drivers/riscv_plic0.c:133
20405e86:	fec42583          	lw	a1,-20(s0)
20405e8a:	fcc42503          	lw	a0,-52(s0)
20405e8e:	c61ff0ef          	jal	ra,20405aee <__metal_driver_sifive_plic0_interrupt_parents>
20405e92:	fca42e23          	sw	a0,-36(s0)
C:/wsFreedomStudio/kernel/freedom-metal/src/drivers/riscv_plic0.c:136
20405e96:	fec42583          	lw	a1,-20(s0)
20405e9a:	fcc42503          	lw	a0,-52(s0)
20405e9e:	c79ff0ef          	jal	ra,20405b16 <__metal_driver_sifive_plic0_interrupt_lines>
20405ea2:	fca42c23          	sw	a0,-40(s0)
C:/wsFreedomStudio/kernel/freedom-metal/src/drivers/riscv_plic0.c:139
20405ea6:	fdc42783          	lw	a5,-36(s0)
20405eaa:	439c                	lw	a5,0(a5)
20405eac:	439c                	lw	a5,0(a5)
20405eae:	fdc42503          	lw	a0,-36(s0)
20405eb2:	9782                	jalr	a5
C:/wsFreedomStudio/kernel/freedom-metal/src/drivers/riscv_plic0.c:141
20405eb4:	fe042423          	sw	zero,-24(s0)
20405eb8:	a88d                	j	20405f2a <__metal_driver_riscv_plic0_init+0xd4>
C:/wsFreedomStudio/kernel/freedom-metal/src/drivers/riscv_plic0.c:142
20405eba:	4681                	li	a3,0
20405ebc:	fe842603          	lw	a2,-24(s0)
20405ec0:	fec42583          	lw	a1,-20(s0)
20405ec4:	fe442503          	lw	a0,-28(s0)
20405ec8:	351d                	jal	20405cee <__metal_plic0_enable>
C:/wsFreedomStudio/kernel/freedom-metal/src/drivers/riscv_plic0.c:143
20405eca:	fe842703          	lw	a4,-24(s0)
20405ece:	fe042783          	lw	a5,-32(s0)
20405ed2:	04f75763          	bge	a4,a5,20405f20 <__metal_driver_riscv_plic0_init+0xca>
C:/wsFreedomStudio/kernel/freedom-metal/src/drivers/riscv_plic0.c:144
20405ed6:	4601                	li	a2,0
20405ed8:	fe842583          	lw	a1,-24(s0)
20405edc:	fcc42503          	lw	a0,-52(s0)
20405ee0:	d79ff0ef          	jal	ra,20405c58 <__metal_driver_riscv_plic0_set_priority>
C:/wsFreedomStudio/kernel/freedom-metal/src/drivers/riscv_plic0.c:145
20405ee4:	fe442703          	lw	a4,-28(s0)
20405ee8:	fe842783          	lw	a5,-24(s0)
20405eec:	078a                	slli	a5,a5,0x2
20405eee:	97ba                	add	a5,a5,a4
20405ef0:	0007a423          	sw	zero,8(a5)
C:/wsFreedomStudio/kernel/freedom-metal/src/drivers/riscv_plic0.c:146
20405ef4:	fe442683          	lw	a3,-28(s0)
20405ef8:	fe842703          	lw	a4,-24(s0)
20405efc:	87ba                	mv	a5,a4
20405efe:	0786                	slli	a5,a5,0x1
20405f00:	97ba                	add	a5,a5,a4
20405f02:	078e                	slli	a5,a5,0x3
20405f04:	97b6                	add	a5,a5,a3
20405f06:	0807a223          	sw	zero,132(a5)
C:/wsFreedomStudio/kernel/freedom-metal/src/drivers/riscv_plic0.c:147
20405f0a:	fe442683          	lw	a3,-28(s0)
20405f0e:	fe842703          	lw	a4,-24(s0)
20405f12:	87ba                	mv	a5,a4
20405f14:	0786                	slli	a5,a5,0x1
20405f16:	97ba                	add	a5,a5,a4
20405f18:	078e                	slli	a5,a5,0x3
20405f1a:	97b6                	add	a5,a5,a3
20405f1c:	0807a423          	sw	zero,136(a5)
C:/wsFreedomStudio/kernel/freedom-metal/src/drivers/riscv_plic0.c:141 (discriminator 2)
20405f20:	fe842783          	lw	a5,-24(s0)
20405f24:	0785                	addi	a5,a5,1
20405f26:	fef42423          	sw	a5,-24(s0)
C:/wsFreedomStudio/kernel/freedom-metal/src/drivers/riscv_plic0.c:141 (discriminator 1)
20405f2a:	fe842703          	lw	a4,-24(s0)
20405f2e:	3ff00793          	li	a5,1023
20405f32:	f8e7d4e3          	bge	a5,a4,20405eba <__metal_driver_riscv_plic0_init+0x64>
C:/wsFreedomStudio/kernel/freedom-metal/src/drivers/riscv_plic0.c:151 (discriminator 2)
20405f36:	4601                	li	a2,0
20405f38:	fec42583          	lw	a1,-20(s0)
20405f3c:	fcc42503          	lw	a0,-52(s0)
20405f40:	c99ff0ef          	jal	ra,20405bd8 <__metal_plic0_set_threshold>
C:/wsFreedomStudio/kernel/freedom-metal/src/drivers/riscv_plic0.c:154 (discriminator 2)
20405f44:	fdc42783          	lw	a5,-36(s0)
20405f48:	439c                	lw	a5,0(a5)
20405f4a:	4fdc                	lw	a5,28(a5)
20405f4c:	fe442683          	lw	a3,-28(s0)
20405f50:	4601                	li	a2,0
20405f52:	fd842583          	lw	a1,-40(s0)
20405f56:	fdc42503          	lw	a0,-36(s0)
20405f5a:	9782                	jalr	a5
C:/wsFreedomStudio/kernel/freedom-metal/src/drivers/riscv_plic0.c:156 (discriminator 2)
20405f5c:	fdc42783          	lw	a5,-36(s0)
20405f60:	439c                	lw	a5,0(a5)
20405f62:	4fd8                	lw	a4,28(a5)
20405f64:	fe442683          	lw	a3,-28(s0)
20405f68:	204067b7          	lui	a5,0x20406
20405f6c:	daa78613          	addi	a2,a5,-598 # 20405daa <__metal_plic0_handler>
20405f70:	fd842583          	lw	a1,-40(s0)
20405f74:	fdc42503          	lw	a0,-36(s0)
20405f78:	9702                	jalr	a4
C:/wsFreedomStudio/kernel/freedom-metal/src/drivers/riscv_plic0.c:159 (discriminator 2)
20405f7a:	fdc42783          	lw	a5,-36(s0)
20405f7e:	439c                	lw	a5,0(a5)
20405f80:	53dc                	lw	a5,36(a5)
20405f82:	fd842583          	lw	a1,-40(s0)
20405f86:	fdc42503          	lw	a0,-36(s0)
20405f8a:	9782                	jalr	a5
C:/wsFreedomStudio/kernel/freedom-metal/src/drivers/riscv_plic0.c:130 (discriminator 2)
20405f8c:	fec42783          	lw	a5,-20(s0)
20405f90:	0785                	addi	a5,a5,1
20405f92:	fef42623          	sw	a5,-20(s0)
C:/wsFreedomStudio/kernel/freedom-metal/src/drivers/riscv_plic0.c:130 (discriminator 1)
20405f96:	fec42783          	lw	a5,-20(s0)
20405f9a:	eef050e3          	blez	a5,20405e7a <__metal_driver_riscv_plic0_init+0x24>
C:/wsFreedomStudio/kernel/freedom-metal/src/drivers/riscv_plic0.c:161
20405f9e:	fe442783          	lw	a5,-28(s0)
20405fa2:	4705                	li	a4,1
20405fa4:	c3d8                	sw	a4,4(a5)
C:/wsFreedomStudio/kernel/freedom-metal/src/drivers/riscv_plic0.c:163
20405fa6:	0001                	nop
20405fa8:	50f2                	lw	ra,60(sp)
20405faa:	5462                	lw	s0,56(sp)
20405fac:	6121                	addi	sp,sp,64
20405fae:	8082                	ret

20405fb0 <__metal_driver_riscv_plic0_register>:
__metal_driver_riscv_plic0_register():
C:/wsFreedomStudio/kernel/freedom-metal/src/drivers/riscv_plic0.c:167
20405fb0:	7179                	addi	sp,sp,-48
20405fb2:	d606                	sw	ra,44(sp)
20405fb4:	d422                	sw	s0,40(sp)
20405fb6:	1800                	addi	s0,sp,48
20405fb8:	fca42e23          	sw	a0,-36(s0)
20405fbc:	fcb42c23          	sw	a1,-40(s0)
20405fc0:	fcc42a23          	sw	a2,-44(s0)
20405fc4:	fcd42823          	sw	a3,-48(s0)
C:/wsFreedomStudio/kernel/freedom-metal/src/drivers/riscv_plic0.c:168
20405fc8:	fdc42783          	lw	a5,-36(s0)
20405fcc:	fef42623          	sw	a5,-20(s0)
C:/wsFreedomStudio/kernel/freedom-metal/src/drivers/riscv_plic0.c:170
20405fd0:	fdc42503          	lw	a0,-36(s0)
20405fd4:	acbff0ef          	jal	ra,20405a9e <__metal_driver_sifive_plic0_num_interrupts>
20405fd8:	872a                	mv	a4,a0
20405fda:	fd842783          	lw	a5,-40(s0)
20405fde:	00e7c463          	blt	a5,a4,20405fe6 <__metal_driver_riscv_plic0_register+0x36>
C:/wsFreedomStudio/kernel/freedom-metal/src/drivers/riscv_plic0.c:171
20405fe2:	57fd                	li	a5,-1
20405fe4:	a051                	j	20406068 <__metal_driver_riscv_plic0_register+0xb8>
C:/wsFreedomStudio/kernel/freedom-metal/src/drivers/riscv_plic0.c:174
20405fe6:	fd442783          	lw	a5,-44(s0)
20405fea:	cf9d                	beqz	a5,20406028 <__metal_driver_riscv_plic0_register+0x78>
C:/wsFreedomStudio/kernel/freedom-metal/src/drivers/riscv_plic0.c:175
20405fec:	4609                	li	a2,2
20405fee:	fd842583          	lw	a1,-40(s0)
20405ff2:	fdc42503          	lw	a0,-36(s0)
20405ff6:	c63ff0ef          	jal	ra,20405c58 <__metal_driver_riscv_plic0_set_priority>
C:/wsFreedomStudio/kernel/freedom-metal/src/drivers/riscv_plic0.c:176
20405ffa:	fec42703          	lw	a4,-20(s0)
20405ffe:	fd842783          	lw	a5,-40(s0)
20406002:	078a                	slli	a5,a5,0x2
20406004:	97ba                	add	a5,a5,a4
20406006:	fd442703          	lw	a4,-44(s0)
2040600a:	c798                	sw	a4,8(a5)
C:/wsFreedomStudio/kernel/freedom-metal/src/drivers/riscv_plic0.c:177
2040600c:	fec42683          	lw	a3,-20(s0)
20406010:	fd842703          	lw	a4,-40(s0)
20406014:	87ba                	mv	a5,a4
20406016:	0786                	slli	a5,a5,0x1
20406018:	97ba                	add	a5,a5,a4
2040601a:	078e                	slli	a5,a5,0x3
2040601c:	97b6                	add	a5,a5,a3
2040601e:	fd042703          	lw	a4,-48(s0)
20406022:	08e7a423          	sw	a4,136(a5)
20406026:	a081                	j	20406066 <__metal_driver_riscv_plic0_register+0xb6>
C:/wsFreedomStudio/kernel/freedom-metal/src/drivers/riscv_plic0.c:179
20406028:	4605                	li	a2,1
2040602a:	fd842583          	lw	a1,-40(s0)
2040602e:	fdc42503          	lw	a0,-36(s0)
20406032:	c27ff0ef          	jal	ra,20405c58 <__metal_driver_riscv_plic0_set_priority>
C:/wsFreedomStudio/kernel/freedom-metal/src/drivers/riscv_plic0.c:180
20406036:	fec42703          	lw	a4,-20(s0)
2040603a:	fd842783          	lw	a5,-40(s0)
2040603e:	078a                	slli	a5,a5,0x2
20406040:	97ba                	add	a5,a5,a4
20406042:	20406737          	lui	a4,0x20406
20406046:	d9270713          	addi	a4,a4,-622 # 20405d92 <__metal_plic0_default_handler>
2040604a:	c798                	sw	a4,8(a5)
C:/wsFreedomStudio/kernel/freedom-metal/src/drivers/riscv_plic0.c:181
2040604c:	fec42683          	lw	a3,-20(s0)
20406050:	fd842703          	lw	a4,-40(s0)
20406054:	87ba                	mv	a5,a4
20406056:	0786                	slli	a5,a5,0x1
20406058:	97ba                	add	a5,a5,a4
2040605a:	078e                	slli	a5,a5,0x3
2040605c:	97b6                	add	a5,a5,a3
2040605e:	fd042703          	lw	a4,-48(s0)
20406062:	08e7a223          	sw	a4,132(a5)
C:/wsFreedomStudio/kernel/freedom-metal/src/drivers/riscv_plic0.c:184
20406066:	4781                	li	a5,0
C:/wsFreedomStudio/kernel/freedom-metal/src/drivers/riscv_plic0.c:185
20406068:	853e                	mv	a0,a5
2040606a:	50b2                	lw	ra,44(sp)
2040606c:	5422                	lw	s0,40(sp)
2040606e:	6145                	addi	sp,sp,48
20406070:	8082                	ret

20406072 <__metal_driver_riscv_plic0_enable>:
__metal_driver_riscv_plic0_enable():
C:/wsFreedomStudio/kernel/freedom-metal/src/drivers/riscv_plic0.c:188
20406072:	7179                	addi	sp,sp,-48
20406074:	d606                	sw	ra,44(sp)
20406076:	d422                	sw	s0,40(sp)
20406078:	1800                	addi	s0,sp,48
2040607a:	fca42e23          	sw	a0,-36(s0)
2040607e:	fcb42c23          	sw	a1,-40(s0)
C:/wsFreedomStudio/kernel/freedom-metal/src/drivers/riscv_plic0.c:189
20406082:	fdc42783          	lw	a5,-36(s0)
20406086:	fef42623          	sw	a5,-20(s0)
C:/wsFreedomStudio/kernel/freedom-metal/src/drivers/riscv_plic0.c:191
2040608a:	fdc42503          	lw	a0,-36(s0)
2040608e:	a11ff0ef          	jal	ra,20405a9e <__metal_driver_sifive_plic0_num_interrupts>
20406092:	872a                	mv	a4,a0
20406094:	fd842783          	lw	a5,-40(s0)
20406098:	00e7c463          	blt	a5,a4,204060a0 <__metal_driver_riscv_plic0_enable+0x2e>
C:/wsFreedomStudio/kernel/freedom-metal/src/drivers/riscv_plic0.c:192
2040609c:	57fd                	li	a5,-1
2040609e:	a829                	j	204060b8 <__metal_driver_riscv_plic0_enable+0x46>
C:/wsFreedomStudio/kernel/freedom-metal/src/drivers/riscv_plic0.c:195
204060a0:	87cfe0ef          	jal	ra,2040411c <__metal_myhart_id>
204060a4:	87aa                	mv	a5,a0
204060a6:	4685                	li	a3,1
204060a8:	fd842603          	lw	a2,-40(s0)
204060ac:	85be                	mv	a1,a5
204060ae:	fec42503          	lw	a0,-20(s0)
204060b2:	c3dff0ef          	jal	ra,20405cee <__metal_plic0_enable>
C:/wsFreedomStudio/kernel/freedom-metal/src/drivers/riscv_plic0.c:196
204060b6:	4781                	li	a5,0
C:/wsFreedomStudio/kernel/freedom-metal/src/drivers/riscv_plic0.c:197
204060b8:	853e                	mv	a0,a5
204060ba:	50b2                	lw	ra,44(sp)
204060bc:	5422                	lw	s0,40(sp)
204060be:	6145                	addi	sp,sp,48
204060c0:	8082                	ret

204060c2 <__metal_driver_riscv_plic0_disable>:
__metal_driver_riscv_plic0_disable():
C:/wsFreedomStudio/kernel/freedom-metal/src/drivers/riscv_plic0.c:200
204060c2:	7179                	addi	sp,sp,-48
204060c4:	d606                	sw	ra,44(sp)
204060c6:	d422                	sw	s0,40(sp)
204060c8:	1800                	addi	s0,sp,48
204060ca:	fca42e23          	sw	a0,-36(s0)
204060ce:	fcb42c23          	sw	a1,-40(s0)
C:/wsFreedomStudio/kernel/freedom-metal/src/drivers/riscv_plic0.c:201
204060d2:	fdc42783          	lw	a5,-36(s0)
204060d6:	fef42623          	sw	a5,-20(s0)
C:/wsFreedomStudio/kernel/freedom-metal/src/drivers/riscv_plic0.c:203
204060da:	fdc42503          	lw	a0,-36(s0)
204060de:	9c1ff0ef          	jal	ra,20405a9e <__metal_driver_sifive_plic0_num_interrupts>
204060e2:	872a                	mv	a4,a0
204060e4:	fd842783          	lw	a5,-40(s0)
204060e8:	00e7c463          	blt	a5,a4,204060f0 <__metal_driver_riscv_plic0_disable+0x2e>
C:/wsFreedomStudio/kernel/freedom-metal/src/drivers/riscv_plic0.c:204
204060ec:	57fd                	li	a5,-1
204060ee:	a829                	j	20406108 <__metal_driver_riscv_plic0_disable+0x46>
C:/wsFreedomStudio/kernel/freedom-metal/src/drivers/riscv_plic0.c:206
204060f0:	82cfe0ef          	jal	ra,2040411c <__metal_myhart_id>
204060f4:	87aa                	mv	a5,a0
204060f6:	4681                	li	a3,0
204060f8:	fd842603          	lw	a2,-40(s0)
204060fc:	85be                	mv	a1,a5
204060fe:	fec42503          	lw	a0,-20(s0)
20406102:	bedff0ef          	jal	ra,20405cee <__metal_plic0_enable>
C:/wsFreedomStudio/kernel/freedom-metal/src/drivers/riscv_plic0.c:207
20406106:	4781                	li	a5,0
C:/wsFreedomStudio/kernel/freedom-metal/src/drivers/riscv_plic0.c:208
20406108:	853e                	mv	a0,a5
2040610a:	50b2                	lw	ra,44(sp)
2040610c:	5422                	lw	s0,40(sp)
2040610e:	6145                	addi	sp,sp,48
20406110:	8082                	ret

20406112 <__metal_driver_riscv_plic0_set_threshold>:
__metal_driver_riscv_plic0_set_threshold():
C:/wsFreedomStudio/kernel/freedom-metal/src/drivers/riscv_plic0.c:211
20406112:	1101                	addi	sp,sp,-32
20406114:	ce06                	sw	ra,28(sp)
20406116:	cc22                	sw	s0,24(sp)
20406118:	1000                	addi	s0,sp,32
2040611a:	fea42623          	sw	a0,-20(s0)
2040611e:	feb42423          	sw	a1,-24(s0)
C:/wsFreedomStudio/kernel/freedom-metal/src/drivers/riscv_plic0.c:212
20406122:	ffbfd0ef          	jal	ra,2040411c <__metal_myhart_id>
20406126:	87aa                	mv	a5,a0
20406128:	fe842603          	lw	a2,-24(s0)
2040612c:	85be                	mv	a1,a5
2040612e:	fec42503          	lw	a0,-20(s0)
20406132:	aa7ff0ef          	jal	ra,20405bd8 <__metal_plic0_set_threshold>
20406136:	87aa                	mv	a5,a0
C:/wsFreedomStudio/kernel/freedom-metal/src/drivers/riscv_plic0.c:214
20406138:	853e                	mv	a0,a5
2040613a:	40f2                	lw	ra,28(sp)
2040613c:	4462                	lw	s0,24(sp)
2040613e:	6105                	addi	sp,sp,32
20406140:	8082                	ret

20406142 <__metal_driver_riscv_plic0_get_threshold>:
__metal_driver_riscv_plic0_get_threshold():
C:/wsFreedomStudio/kernel/freedom-metal/src/drivers/riscv_plic0.c:217
20406142:	1101                	addi	sp,sp,-32
20406144:	ce06                	sw	ra,28(sp)
20406146:	cc22                	sw	s0,24(sp)
20406148:	1000                	addi	s0,sp,32
2040614a:	fea42623          	sw	a0,-20(s0)
C:/wsFreedomStudio/kernel/freedom-metal/src/drivers/riscv_plic0.c:218
2040614e:	fcffd0ef          	jal	ra,2040411c <__metal_myhart_id>
20406152:	87aa                	mv	a5,a0
20406154:	85be                	mv	a1,a5
20406156:	fec42503          	lw	a0,-20(s0)
2040615a:	ac5ff0ef          	jal	ra,20405c1e <__metal_plic0_get_threshold>
2040615e:	87aa                	mv	a5,a0
C:/wsFreedomStudio/kernel/freedom-metal/src/drivers/riscv_plic0.c:219
20406160:	853e                	mv	a0,a5
20406162:	40f2                	lw	ra,28(sp)
20406164:	4462                	lw	s0,24(sp)
20406166:	6105                	addi	sp,sp,32
20406168:	8082                	ret

2040616a <__metal_driver_riscv_plic0_affinity_enable>:
__metal_driver_riscv_plic0_affinity_enable():
C:/wsFreedomStudio/kernel/freedom-metal/src/drivers/riscv_plic0.c:223
2040616a:	7179                	addi	sp,sp,-48
2040616c:	d606                	sw	ra,44(sp)
2040616e:	d422                	sw	s0,40(sp)
20406170:	1800                	addi	s0,sp,48
20406172:	fca42e23          	sw	a0,-36(s0)
20406176:	fcb42c23          	sw	a1,-40(s0)
2040617a:	fcc42a23          	sw	a2,-44(s0)
C:/wsFreedomStudio/kernel/freedom-metal/src/drivers/riscv_plic0.c:224
2040617e:	fe042223          	sw	zero,-28(s0)
C:/wsFreedomStudio/kernel/freedom-metal/src/drivers/riscv_plic0.c:227
20406182:	fdc42783          	lw	a5,-36(s0)
20406186:	fef42423          	sw	a5,-24(s0)
C:/wsFreedomStudio/kernel/freedom-metal/src/drivers/riscv_plic0.c:229
2040618a:	fdc42503          	lw	a0,-36(s0)
2040618e:	911ff0ef          	jal	ra,20405a9e <__metal_driver_sifive_plic0_num_interrupts>
20406192:	872a                	mv	a4,a0
20406194:	fd442783          	lw	a5,-44(s0)
20406198:	00e7c863          	blt	a5,a4,204061a8 <__metal_driver_riscv_plic0_affinity_enable+0x3e>
C:/wsFreedomStudio/kernel/freedom-metal/src/drivers/riscv_plic0.c:230
2040619c:	57fd                	li	a5,-1
2040619e:	fef42223          	sw	a5,-28(s0)
C:/wsFreedomStudio/kernel/freedom-metal/src/drivers/riscv_plic0.c:231
204061a2:	fe442783          	lw	a5,-28(s0)
204061a6:	a899                	j	204061fc <__metal_driver_riscv_plic0_affinity_enable+0x92>
C:/wsFreedomStudio/kernel/freedom-metal/src/drivers/riscv_plic0.c:234
204061a8:	fe042623          	sw	zero,-20(s0)
204061ac:	a099                	j	204061f2 <__metal_driver_riscv_plic0_affinity_enable+0x88>
C:/wsFreedomStudio/kernel/freedom-metal/src/drivers/riscv_plic0.c:235
204061ae:	fec42783          	lw	a5,-20(s0)
204061b2:	c795                	beqz	a5,204061de <__metal_driver_riscv_plic0_affinity_enable+0x74>
C:/wsFreedomStudio/kernel/freedom-metal/src/drivers/riscv_plic0.c:236
204061b4:	4685                	li	a3,1
204061b6:	fd442603          	lw	a2,-44(s0)
204061ba:	fec42583          	lw	a1,-20(s0)
204061be:	fe842503          	lw	a0,-24(s0)
204061c2:	b2dff0ef          	jal	ra,20405cee <__metal_plic0_enable>
204061c6:	87aa                	mv	a5,a0
204061c8:	0017f713          	andi	a4,a5,1
204061cc:	fec42783          	lw	a5,-20(s0)
204061d0:	00f71733          	sll	a4,a4,a5
204061d4:	fe442783          	lw	a5,-28(s0)
204061d8:	8fd9                	or	a5,a5,a4
204061da:	fef42223          	sw	a5,-28(s0)
C:/wsFreedomStudio/kernel/freedom-metal/src/drivers/riscv_plic0.c:234 (discriminator 2)
204061de:	fec42783          	lw	a5,-20(s0)
204061e2:	0785                	addi	a5,a5,1
204061e4:	fef42623          	sw	a5,-20(s0)
204061e8:	fd842783          	lw	a5,-40(s0)
204061ec:	8385                	srli	a5,a5,0x1
204061ee:	fcf42c23          	sw	a5,-40(s0)
C:/wsFreedomStudio/kernel/freedom-metal/src/drivers/riscv_plic0.c:234 (discriminator 1)
204061f2:	fd842783          	lw	a5,-40(s0)
204061f6:	ffc5                	bnez	a5,204061ae <__metal_driver_riscv_plic0_affinity_enable+0x44>
C:/wsFreedomStudio/kernel/freedom-metal/src/drivers/riscv_plic0.c:241
204061f8:	fe442783          	lw	a5,-28(s0)
C:/wsFreedomStudio/kernel/freedom-metal/src/drivers/riscv_plic0.c:242 (discriminator 1)
204061fc:	853e                	mv	a0,a5
204061fe:	50b2                	lw	ra,44(sp)
20406200:	5422                	lw	s0,40(sp)
20406202:	6145                	addi	sp,sp,48
20406204:	8082                	ret

20406206 <__metal_driver_riscv_plic0_affinity_disable>:
__metal_driver_riscv_plic0_affinity_disable():
C:/wsFreedomStudio/kernel/freedom-metal/src/drivers/riscv_plic0.c:246
20406206:	7179                	addi	sp,sp,-48
20406208:	d606                	sw	ra,44(sp)
2040620a:	d422                	sw	s0,40(sp)
2040620c:	1800                	addi	s0,sp,48
2040620e:	fca42e23          	sw	a0,-36(s0)
20406212:	fcb42c23          	sw	a1,-40(s0)
20406216:	fcc42a23          	sw	a2,-44(s0)
C:/wsFreedomStudio/kernel/freedom-metal/src/drivers/riscv_plic0.c:247
2040621a:	fe042223          	sw	zero,-28(s0)
C:/wsFreedomStudio/kernel/freedom-metal/src/drivers/riscv_plic0.c:250
2040621e:	fdc42783          	lw	a5,-36(s0)
20406222:	fef42423          	sw	a5,-24(s0)
C:/wsFreedomStudio/kernel/freedom-metal/src/drivers/riscv_plic0.c:252
20406226:	fdc42503          	lw	a0,-36(s0)
2040622a:	875ff0ef          	jal	ra,20405a9e <__metal_driver_sifive_plic0_num_interrupts>
2040622e:	872a                	mv	a4,a0
20406230:	fd442783          	lw	a5,-44(s0)
20406234:	00e7c863          	blt	a5,a4,20406244 <__metal_driver_riscv_plic0_affinity_disable+0x3e>
C:/wsFreedomStudio/kernel/freedom-metal/src/drivers/riscv_plic0.c:253
20406238:	57fd                	li	a5,-1
2040623a:	fef42223          	sw	a5,-28(s0)
C:/wsFreedomStudio/kernel/freedom-metal/src/drivers/riscv_plic0.c:254
2040623e:	fe442783          	lw	a5,-28(s0)
20406242:	a899                	j	20406298 <__metal_driver_riscv_plic0_affinity_disable+0x92>
C:/wsFreedomStudio/kernel/freedom-metal/src/drivers/riscv_plic0.c:257
20406244:	fe042623          	sw	zero,-20(s0)
20406248:	a099                	j	2040628e <__metal_driver_riscv_plic0_affinity_disable+0x88>
C:/wsFreedomStudio/kernel/freedom-metal/src/drivers/riscv_plic0.c:258
2040624a:	fec42783          	lw	a5,-20(s0)
2040624e:	c795                	beqz	a5,2040627a <__metal_driver_riscv_plic0_affinity_disable+0x74>
C:/wsFreedomStudio/kernel/freedom-metal/src/drivers/riscv_plic0.c:259
20406250:	4681                	li	a3,0
20406252:	fd442603          	lw	a2,-44(s0)
20406256:	fec42583          	lw	a1,-20(s0)
2040625a:	fe842503          	lw	a0,-24(s0)
2040625e:	a91ff0ef          	jal	ra,20405cee <__metal_plic0_enable>
20406262:	87aa                	mv	a5,a0
20406264:	0017f713          	andi	a4,a5,1
20406268:	fec42783          	lw	a5,-20(s0)
2040626c:	00f71733          	sll	a4,a4,a5
20406270:	fe442783          	lw	a5,-28(s0)
20406274:	8fd9                	or	a5,a5,a4
20406276:	fef42223          	sw	a5,-28(s0)
C:/wsFreedomStudio/kernel/freedom-metal/src/drivers/riscv_plic0.c:257 (discriminator 2)
2040627a:	fec42783          	lw	a5,-20(s0)
2040627e:	0785                	addi	a5,a5,1
20406280:	fef42623          	sw	a5,-20(s0)
20406284:	fd842783          	lw	a5,-40(s0)
20406288:	8385                	srli	a5,a5,0x1
2040628a:	fcf42c23          	sw	a5,-40(s0)
C:/wsFreedomStudio/kernel/freedom-metal/src/drivers/riscv_plic0.c:257 (discriminator 1)
2040628e:	fd842783          	lw	a5,-40(s0)
20406292:	ffc5                	bnez	a5,2040624a <__metal_driver_riscv_plic0_affinity_disable+0x44>
C:/wsFreedomStudio/kernel/freedom-metal/src/drivers/riscv_plic0.c:264
20406294:	fe442783          	lw	a5,-28(s0)
C:/wsFreedomStudio/kernel/freedom-metal/src/drivers/riscv_plic0.c:265 (discriminator 1)
20406298:	853e                	mv	a0,a5
2040629a:	50b2                	lw	ra,44(sp)
2040629c:	5422                	lw	s0,40(sp)
2040629e:	6145                	addi	sp,sp,48
204062a0:	8082                	ret

204062a2 <__metal_driver_riscv_plic0_affinity_set_threshold>:
__metal_driver_riscv_plic0_affinity_set_threshold():
C:/wsFreedomStudio/kernel/freedom-metal/src/drivers/riscv_plic0.c:269
204062a2:	7179                	addi	sp,sp,-48
204062a4:	d606                	sw	ra,44(sp)
204062a6:	d422                	sw	s0,40(sp)
204062a8:	1800                	addi	s0,sp,48
204062aa:	fca42e23          	sw	a0,-36(s0)
204062ae:	fcb42c23          	sw	a1,-40(s0)
204062b2:	fcc42a23          	sw	a2,-44(s0)
C:/wsFreedomStudio/kernel/freedom-metal/src/drivers/riscv_plic0.c:270
204062b6:	fe042423          	sw	zero,-24(s0)
C:/wsFreedomStudio/kernel/freedom-metal/src/drivers/riscv_plic0.c:273
204062ba:	fe042623          	sw	zero,-20(s0)
204062be:	a091                	j	20406302 <__metal_driver_riscv_plic0_affinity_set_threshold+0x60>
C:/wsFreedomStudio/kernel/freedom-metal/src/drivers/riscv_plic0.c:274
204062c0:	fec42783          	lw	a5,-20(s0)
204062c4:	c78d                	beqz	a5,204062ee <__metal_driver_riscv_plic0_affinity_set_threshold+0x4c>
C:/wsFreedomStudio/kernel/freedom-metal/src/drivers/riscv_plic0.c:275
204062c6:	fd442603          	lw	a2,-44(s0)
204062ca:	fec42583          	lw	a1,-20(s0)
204062ce:	fdc42503          	lw	a0,-36(s0)
204062d2:	907ff0ef          	jal	ra,20405bd8 <__metal_plic0_set_threshold>
204062d6:	87aa                	mv	a5,a0
204062d8:	0017f713          	andi	a4,a5,1
204062dc:	fec42783          	lw	a5,-20(s0)
204062e0:	00f71733          	sll	a4,a4,a5
204062e4:	fe842783          	lw	a5,-24(s0)
204062e8:	8fd9                	or	a5,a5,a4
204062ea:	fef42423          	sw	a5,-24(s0)
C:/wsFreedomStudio/kernel/freedom-metal/src/drivers/riscv_plic0.c:273 (discriminator 2)
204062ee:	fec42783          	lw	a5,-20(s0)
204062f2:	0785                	addi	a5,a5,1
204062f4:	fef42623          	sw	a5,-20(s0)
204062f8:	fd842783          	lw	a5,-40(s0)
204062fc:	8385                	srli	a5,a5,0x1
204062fe:	fcf42c23          	sw	a5,-40(s0)
C:/wsFreedomStudio/kernel/freedom-metal/src/drivers/riscv_plic0.c:273 (discriminator 1)
20406302:	fd842783          	lw	a5,-40(s0)
20406306:	ffcd                	bnez	a5,204062c0 <__metal_driver_riscv_plic0_affinity_set_threshold+0x1e>
C:/wsFreedomStudio/kernel/freedom-metal/src/drivers/riscv_plic0.c:280
20406308:	fe842783          	lw	a5,-24(s0)
C:/wsFreedomStudio/kernel/freedom-metal/src/drivers/riscv_plic0.c:281
2040630c:	853e                	mv	a0,a5
2040630e:	50b2                	lw	ra,44(sp)
20406310:	5422                	lw	s0,40(sp)
20406312:	6145                	addi	sp,sp,48
20406314:	8082                	ret

20406316 <__metal_driver_riscv_plic0_affinity_get_threshold>:
__metal_driver_riscv_plic0_affinity_get_threshold():
C:/wsFreedomStudio/kernel/freedom-metal/src/drivers/riscv_plic0.c:284
20406316:	1101                	addi	sp,sp,-32
20406318:	ce06                	sw	ra,28(sp)
2040631a:	cc22                	sw	s0,24(sp)
2040631c:	1000                	addi	s0,sp,32
2040631e:	fea42623          	sw	a0,-20(s0)
20406322:	feb42423          	sw	a1,-24(s0)
C:/wsFreedomStudio/kernel/freedom-metal/src/drivers/riscv_plic0.c:285
20406326:	fe842583          	lw	a1,-24(s0)
2040632a:	fec42503          	lw	a0,-20(s0)
2040632e:	8f1ff0ef          	jal	ra,20405c1e <__metal_plic0_get_threshold>
C:/wsFreedomStudio/kernel/freedom-metal/src/drivers/riscv_plic0.c:286
20406332:	4781                	li	a5,0
C:/wsFreedomStudio/kernel/freedom-metal/src/drivers/riscv_plic0.c:287
20406334:	853e                	mv	a0,a5
20406336:	40f2                	lw	ra,28(sp)
20406338:	4462                	lw	s0,24(sp)
2040633a:	6105                	addi	sp,sp,32
2040633c:	8082                	ret

2040633e <__metal_driver_sifive_fe310_g000_hfrosc_ref>:
__metal_driver_sifive_fe310_g000_hfrosc_ref():
C:\wsFreedomStudio\kernel\bsp\build\debug/./metal/machine.h:1037
2040633e:	1101                	addi	sp,sp,-32
20406340:	ce22                	sw	s0,28(sp)
20406342:	1000                	addi	s0,sp,32
20406344:	fea42623          	sw	a0,-20(s0)
C:\wsFreedomStudio\kernel\bsp\build\debug/./metal/machine.h:1038
20406348:	800007b7          	lui	a5,0x80000
2040634c:	06c78793          	addi	a5,a5,108 # 8000006c <metal_segment_heap_target_end+0xffffe59c>
C:\wsFreedomStudio\kernel\bsp\build\debug/./metal/machine.h:1039
20406350:	853e                	mv	a0,a5
20406352:	4472                	lw	s0,28(sp)
20406354:	6105                	addi	sp,sp,32
20406356:	8082                	ret

20406358 <__metal_driver_sifive_fe310_g000_hfrosc_config_base>:
__metal_driver_sifive_fe310_g000_hfrosc_config_base():
C:\wsFreedomStudio\kernel\bsp\build\debug/./metal/machine.h:1042
20406358:	1101                	addi	sp,sp,-32
2040635a:	ce22                	sw	s0,28(sp)
2040635c:	1000                	addi	s0,sp,32
2040635e:	fea42623          	sw	a0,-20(s0)
C:\wsFreedomStudio\kernel\bsp\build\debug/./metal/machine.h:1043
20406362:	82418793          	addi	a5,gp,-2012 # 800007c4 <__metal_dt_prci_10008000>
C:\wsFreedomStudio\kernel\bsp\build\debug/./metal/machine.h:1044
20406366:	853e                	mv	a0,a5
20406368:	4472                	lw	s0,28(sp)
2040636a:	6105                	addi	sp,sp,32
2040636c:	8082                	ret

2040636e <__metal_driver_sifive_fe310_g000_hfrosc_config_offset>:
__metal_driver_sifive_fe310_g000_hfrosc_config_offset():
C:\wsFreedomStudio\kernel\bsp\build\debug/./metal/machine.h:1052
2040636e:	1101                	addi	sp,sp,-32
20406370:	ce22                	sw	s0,28(sp)
20406372:	1000                	addi	s0,sp,32
20406374:	fea42623          	sw	a0,-20(s0)
C:\wsFreedomStudio\kernel\bsp\build\debug/./metal/machine.h:1053
20406378:	4781                	li	a5,0
C:\wsFreedomStudio\kernel\bsp\build\debug/./metal/machine.h:1054
2040637a:	853e                	mv	a0,a5
2040637c:	4472                	lw	s0,28(sp)
2040637e:	6105                	addi	sp,sp,32
20406380:	8082                	ret

20406382 <__metal_driver_sifive_fe310_g000_prci_vtable>:
__metal_driver_sifive_fe310_g000_prci_vtable():
C:\wsFreedomStudio\kernel\bsp\build\debug/./metal/machine.h:1169
20406382:	1141                	addi	sp,sp,-16
20406384:	c622                	sw	s0,12(sp)
20406386:	0800                	addi	s0,sp,16
C:\wsFreedomStudio\kernel\bsp\build\debug/./metal/machine.h:1170
20406388:	204017b7          	lui	a5,0x20401
2040638c:	10478793          	addi	a5,a5,260 # 20401104 <__metal_driver_vtable_sifive_fe310_g000_prci>
C:\wsFreedomStudio\kernel\bsp\build\debug/./metal/machine.h:1171
20406390:	853e                	mv	a0,a5
20406392:	4432                	lw	s0,12(sp)
20406394:	0141                	addi	sp,sp,16
20406396:	8082                	ret

20406398 <__metal_driver_sifive_fe310_g000_hfrosc_get_rate_hz>:
__metal_driver_sifive_fe310_g000_hfrosc_get_rate_hz():
C:/wsFreedomStudio/kernel/freedom-metal/src/drivers/sifive_fe310-g000_hfrosc.c:17
20406398:	7139                	addi	sp,sp,-64
2040639a:	de06                	sw	ra,60(sp)
2040639c:	dc22                	sw	s0,56(sp)
2040639e:	0080                	addi	s0,sp,64
204063a0:	fca42623          	sw	a0,-52(s0)
C:/wsFreedomStudio/kernel/freedom-metal/src/drivers/sifive_fe310-g000_hfrosc.c:19
204063a4:	fcc42503          	lw	a0,-52(s0)
204063a8:	3f59                	jal	2040633e <__metal_driver_sifive_fe310_g000_hfrosc_ref>
204063aa:	fea42623          	sw	a0,-20(s0)
C:/wsFreedomStudio/kernel/freedom-metal/src/drivers/sifive_fe310-g000_hfrosc.c:21
204063ae:	fcc42503          	lw	a0,-52(s0)
204063b2:	3f75                	jal	2040636e <__metal_driver_sifive_fe310_g000_hfrosc_config_offset>
204063b4:	fea42423          	sw	a0,-24(s0)
C:/wsFreedomStudio/kernel/freedom-metal/src/drivers/sifive_fe310-g000_hfrosc.c:23
204063b8:	fcc42503          	lw	a0,-52(s0)
204063bc:	3f71                	jal	20406358 <__metal_driver_sifive_fe310_g000_hfrosc_config_base>
204063be:	fea42223          	sw	a0,-28(s0)
C:/wsFreedomStudio/kernel/freedom-metal/src/drivers/sifive_fe310-g000_hfrosc.c:25
204063c2:	37c1                	jal	20406382 <__metal_driver_sifive_fe310_g000_prci_vtable>
204063c4:	fea42023          	sw	a0,-32(s0)
C:/wsFreedomStudio/kernel/freedom-metal/src/drivers/sifive_fe310-g000_hfrosc.c:26
204063c8:	fe042783          	lw	a5,-32(s0)
204063cc:	439c                	lw	a5,0(a5)
204063ce:	fe842583          	lw	a1,-24(s0)
204063d2:	fe442503          	lw	a0,-28(s0)
204063d6:	9782                	jalr	a5
204063d8:	fca42e23          	sw	a0,-36(s0)
C:/wsFreedomStudio/kernel/freedom-metal/src/drivers/sifive_fe310-g000_hfrosc.c:28
204063dc:	fdc42703          	lw	a4,-36(s0)
204063e0:	400007b7          	lui	a5,0x40000
204063e4:	8ff9                	and	a5,a5,a4
204063e6:	e399                	bnez	a5,204063ec <__metal_driver_sifive_fe310_g000_hfrosc_get_rate_hz+0x54>
C:/wsFreedomStudio/kernel/freedom-metal/src/drivers/sifive_fe310-g000_hfrosc.c:29
204063e8:	57fd                	li	a5,-1
204063ea:	a025                	j	20406412 <__metal_driver_sifive_fe310_g000_hfrosc_get_rate_hz+0x7a>
C:/wsFreedomStudio/kernel/freedom-metal/src/drivers/sifive_fe310-g000_hfrosc.c:30
204063ec:	fdc42783          	lw	a5,-36(s0)
204063f0:	0007c463          	bltz	a5,204063f8 <__metal_driver_sifive_fe310_g000_hfrosc_get_rate_hz+0x60>
C:/wsFreedomStudio/kernel/freedom-metal/src/drivers/sifive_fe310-g000_hfrosc.c:31
204063f4:	57fd                	li	a5,-1
204063f6:	a831                	j	20406412 <__metal_driver_sifive_fe310_g000_hfrosc_get_rate_hz+0x7a>
C:/wsFreedomStudio/kernel/freedom-metal/src/drivers/sifive_fe310-g000_hfrosc.c:32
204063f8:	fec42503          	lw	a0,-20(s0)
204063fc:	0f9010ef          	jal	ra,20407cf4 <metal_clock_get_rate_hz>
20406400:	87aa                	mv	a5,a0
20406402:	873e                	mv	a4,a5
20406404:	fdc42783          	lw	a5,-36(s0)
20406408:	03f7f793          	andi	a5,a5,63
2040640c:	0785                	addi	a5,a5,1
2040640e:	02f757b3          	divu	a5,a4,a5
C:/wsFreedomStudio/kernel/freedom-metal/src/drivers/sifive_fe310-g000_hfrosc.c:33
20406412:	853e                	mv	a0,a5
20406414:	50f2                	lw	ra,60(sp)
20406416:	5462                	lw	s0,56(sp)
20406418:	6121                	addi	sp,sp,64
2040641a:	8082                	ret

2040641c <__metal_driver_sifive_fe310_g000_hfrosc_set_rate_hz>:
__metal_driver_sifive_fe310_g000_hfrosc_set_rate_hz():
C:/wsFreedomStudio/kernel/freedom-metal/src/drivers/sifive_fe310-g000_hfrosc.c:36
2040641c:	1101                	addi	sp,sp,-32
2040641e:	ce06                	sw	ra,28(sp)
20406420:	cc22                	sw	s0,24(sp)
20406422:	1000                	addi	s0,sp,32
20406424:	fea42623          	sw	a0,-20(s0)
20406428:	feb42423          	sw	a1,-24(s0)
C:/wsFreedomStudio/kernel/freedom-metal/src/drivers/sifive_fe310-g000_hfrosc.c:37
2040642c:	fec42503          	lw	a0,-20(s0)
20406430:	37a5                	jal	20406398 <__metal_driver_sifive_fe310_g000_hfrosc_get_rate_hz>
20406432:	87aa                	mv	a5,a0
C:/wsFreedomStudio/kernel/freedom-metal/src/drivers/sifive_fe310-g000_hfrosc.c:38
20406434:	853e                	mv	a0,a5
20406436:	40f2                	lw	ra,28(sp)
20406438:	4462                	lw	s0,24(sp)
2040643a:	6105                	addi	sp,sp,32
2040643c:	8082                	ret

2040643e <__metal_driver_sifive_fe310_g000_hfxosc_ref>:
__metal_driver_sifive_fe310_g000_hfxosc_ref():
C:\wsFreedomStudio\kernel\bsp\build\debug/./metal/machine.h:1060
2040643e:	1101                	addi	sp,sp,-32
20406440:	ce22                	sw	s0,28(sp)
20406442:	1000                	addi	s0,sp,32
20406444:	fea42623          	sw	a0,-20(s0)
C:\wsFreedomStudio\kernel\bsp\build\debug/./metal/machine.h:1061
20406448:	800007b7          	lui	a5,0x80000
2040644c:	06078793          	addi	a5,a5,96 # 80000060 <metal_segment_heap_target_end+0xffffe590>
C:\wsFreedomStudio\kernel\bsp\build\debug/./metal/machine.h:1062
20406450:	853e                	mv	a0,a5
20406452:	4472                	lw	s0,28(sp)
20406454:	6105                	addi	sp,sp,32
20406456:	8082                	ret

20406458 <__metal_driver_sifive_fe310_g000_hfxosc_config_base>:
__metal_driver_sifive_fe310_g000_hfxosc_config_base():
C:\wsFreedomStudio\kernel\bsp\build\debug/./metal/machine.h:1065
20406458:	1101                	addi	sp,sp,-32
2040645a:	ce22                	sw	s0,28(sp)
2040645c:	1000                	addi	s0,sp,32
2040645e:	fea42623          	sw	a0,-20(s0)
C:\wsFreedomStudio\kernel\bsp\build\debug/./metal/machine.h:1066
20406462:	82418793          	addi	a5,gp,-2012 # 800007c4 <__metal_dt_prci_10008000>
C:\wsFreedomStudio\kernel\bsp\build\debug/./metal/machine.h:1067
20406466:	853e                	mv	a0,a5
20406468:	4472                	lw	s0,28(sp)
2040646a:	6105                	addi	sp,sp,32
2040646c:	8082                	ret

2040646e <__metal_driver_sifive_fe310_g000_hfxosc_config_offset>:
__metal_driver_sifive_fe310_g000_hfxosc_config_offset():
C:\wsFreedomStudio\kernel\bsp\build\debug/./metal/machine.h:1070
2040646e:	1101                	addi	sp,sp,-32
20406470:	ce22                	sw	s0,28(sp)
20406472:	1000                	addi	s0,sp,32
20406474:	fea42623          	sw	a0,-20(s0)
C:\wsFreedomStudio\kernel\bsp\build\debug/./metal/machine.h:1071
20406478:	4791                	li	a5,4
C:\wsFreedomStudio\kernel\bsp\build\debug/./metal/machine.h:1072
2040647a:	853e                	mv	a0,a5
2040647c:	4472                	lw	s0,28(sp)
2040647e:	6105                	addi	sp,sp,32
20406480:	8082                	ret

20406482 <__metal_driver_sifive_fe310_g000_prci_vtable>:
__metal_driver_sifive_fe310_g000_prci_vtable():
C:\wsFreedomStudio\kernel\bsp\build\debug/./metal/machine.h:1169
20406482:	1141                	addi	sp,sp,-16
20406484:	c622                	sw	s0,12(sp)
20406486:	0800                	addi	s0,sp,16
C:\wsFreedomStudio\kernel\bsp\build\debug/./metal/machine.h:1170
20406488:	204017b7          	lui	a5,0x20401
2040648c:	10478793          	addi	a5,a5,260 # 20401104 <__metal_driver_vtable_sifive_fe310_g000_prci>
C:\wsFreedomStudio\kernel\bsp\build\debug/./metal/machine.h:1171
20406490:	853e                	mv	a0,a5
20406492:	4432                	lw	s0,12(sp)
20406494:	0141                	addi	sp,sp,16
20406496:	8082                	ret

20406498 <__metal_driver_sifive_fe310_g000_hfxosc_get_rate_hz>:
__metal_driver_sifive_fe310_g000_hfxosc_get_rate_hz():
C:/wsFreedomStudio/kernel/freedom-metal/src/drivers/sifive_fe310-g000_hfxosc.c:15
20406498:	7139                	addi	sp,sp,-64
2040649a:	de06                	sw	ra,60(sp)
2040649c:	dc22                	sw	s0,56(sp)
2040649e:	0080                	addi	s0,sp,64
204064a0:	fca42623          	sw	a0,-52(s0)
C:/wsFreedomStudio/kernel/freedom-metal/src/drivers/sifive_fe310-g000_hfxosc.c:17
204064a4:	fcc42503          	lw	a0,-52(s0)
204064a8:	3f59                	jal	2040643e <__metal_driver_sifive_fe310_g000_hfxosc_ref>
204064aa:	fea42623          	sw	a0,-20(s0)
C:/wsFreedomStudio/kernel/freedom-metal/src/drivers/sifive_fe310-g000_hfxosc.c:19
204064ae:	fcc42503          	lw	a0,-52(s0)
204064b2:	3f75                	jal	2040646e <__metal_driver_sifive_fe310_g000_hfxosc_config_offset>
204064b4:	fea42423          	sw	a0,-24(s0)
C:/wsFreedomStudio/kernel/freedom-metal/src/drivers/sifive_fe310-g000_hfxosc.c:21
204064b8:	fcc42503          	lw	a0,-52(s0)
204064bc:	3f71                	jal	20406458 <__metal_driver_sifive_fe310_g000_hfxosc_config_base>
204064be:	fea42223          	sw	a0,-28(s0)
C:/wsFreedomStudio/kernel/freedom-metal/src/drivers/sifive_fe310-g000_hfxosc.c:23
204064c2:	37c1                	jal	20406482 <__metal_driver_sifive_fe310_g000_prci_vtable>
204064c4:	fea42023          	sw	a0,-32(s0)
C:/wsFreedomStudio/kernel/freedom-metal/src/drivers/sifive_fe310-g000_hfxosc.c:24
204064c8:	fe042783          	lw	a5,-32(s0)
204064cc:	439c                	lw	a5,0(a5)
204064ce:	fe842583          	lw	a1,-24(s0)
204064d2:	fe442503          	lw	a0,-28(s0)
204064d6:	9782                	jalr	a5
204064d8:	fca42e23          	sw	a0,-36(s0)
C:/wsFreedomStudio/kernel/freedom-metal/src/drivers/sifive_fe310-g000_hfxosc.c:26
204064dc:	fdc42703          	lw	a4,-36(s0)
204064e0:	400007b7          	lui	a5,0x40000
204064e4:	8ff9                	and	a5,a5,a4
204064e6:	e399                	bnez	a5,204064ec <__metal_driver_sifive_fe310_g000_hfxosc_get_rate_hz+0x54>
C:/wsFreedomStudio/kernel/freedom-metal/src/drivers/sifive_fe310-g000_hfxosc.c:27
204064e8:	57fd                	li	a5,-1
204064ea:	a821                	j	20406502 <__metal_driver_sifive_fe310_g000_hfxosc_get_rate_hz+0x6a>
C:/wsFreedomStudio/kernel/freedom-metal/src/drivers/sifive_fe310-g000_hfxosc.c:28
204064ec:	fdc42783          	lw	a5,-36(s0)
204064f0:	0007c463          	bltz	a5,204064f8 <__metal_driver_sifive_fe310_g000_hfxosc_get_rate_hz+0x60>
C:/wsFreedomStudio/kernel/freedom-metal/src/drivers/sifive_fe310-g000_hfxosc.c:29
204064f4:	57fd                	li	a5,-1
204064f6:	a031                	j	20406502 <__metal_driver_sifive_fe310_g000_hfxosc_get_rate_hz+0x6a>
C:/wsFreedomStudio/kernel/freedom-metal/src/drivers/sifive_fe310-g000_hfxosc.c:30
204064f8:	fec42503          	lw	a0,-20(s0)
204064fc:	7f8010ef          	jal	ra,20407cf4 <metal_clock_get_rate_hz>
20406500:	87aa                	mv	a5,a0
C:/wsFreedomStudio/kernel/freedom-metal/src/drivers/sifive_fe310-g000_hfxosc.c:31
20406502:	853e                	mv	a0,a5
20406504:	50f2                	lw	ra,60(sp)
20406506:	5462                	lw	s0,56(sp)
20406508:	6121                	addi	sp,sp,64
2040650a:	8082                	ret

2040650c <__metal_driver_sifive_fe310_g000_hfxosc_set_rate_hz>:
__metal_driver_sifive_fe310_g000_hfxosc_set_rate_hz():
C:/wsFreedomStudio/kernel/freedom-metal/src/drivers/sifive_fe310-g000_hfxosc.c:34
2040650c:	1101                	addi	sp,sp,-32
2040650e:	ce06                	sw	ra,28(sp)
20406510:	cc22                	sw	s0,24(sp)
20406512:	1000                	addi	s0,sp,32
20406514:	fea42623          	sw	a0,-20(s0)
20406518:	feb42423          	sw	a1,-24(s0)
C:/wsFreedomStudio/kernel/freedom-metal/src/drivers/sifive_fe310-g000_hfxosc.c:35
2040651c:	fec42503          	lw	a0,-20(s0)
20406520:	3fa5                	jal	20406498 <__metal_driver_sifive_fe310_g000_hfxosc_get_rate_hz>
20406522:	87aa                	mv	a5,a0
C:/wsFreedomStudio/kernel/freedom-metal/src/drivers/sifive_fe310-g000_hfxosc.c:36
20406524:	853e                	mv	a0,a5
20406526:	40f2                	lw	ra,28(sp)
20406528:	4462                	lw	s0,24(sp)
2040652a:	6105                	addi	sp,sp,32
2040652c:	8082                	ret

2040652e <__metal_driver_sifive_fe310_g000_pll_pllsel0>:
__metal_driver_sifive_fe310_g000_pll_pllsel0():
C:\wsFreedomStudio\kernel\bsp\build\debug/./metal/machine.h:1121
2040652e:	1101                	addi	sp,sp,-32
20406530:	ce22                	sw	s0,28(sp)
20406532:	1000                	addi	s0,sp,32
20406534:	fea42623          	sw	a0,-20(s0)
C:\wsFreedomStudio\kernel\bsp\build\debug/./metal/machine.h:1122
20406538:	800007b7          	lui	a5,0x80000
2040653c:	77878793          	addi	a5,a5,1912 # 80000778 <metal_segment_heap_target_end+0xffffeca8>
C:\wsFreedomStudio\kernel\bsp\build\debug/./metal/machine.h:1123
20406540:	853e                	mv	a0,a5
20406542:	4472                	lw	s0,28(sp)
20406544:	6105                	addi	sp,sp,32
20406546:	8082                	ret

20406548 <__metal_driver_sifive_fe310_g000_pll_pllref>:
__metal_driver_sifive_fe310_g000_pll_pllref():
C:\wsFreedomStudio\kernel\bsp\build\debug/./metal/machine.h:1126
20406548:	1101                	addi	sp,sp,-32
2040654a:	ce22                	sw	s0,28(sp)
2040654c:	1000                	addi	s0,sp,32
2040654e:	fea42623          	sw	a0,-20(s0)
C:\wsFreedomStudio\kernel\bsp\build\debug/./metal/machine.h:1127
20406552:	800007b7          	lui	a5,0x80000
20406556:	78478793          	addi	a5,a5,1924 # 80000784 <metal_segment_heap_target_end+0xffffecb4>
C:\wsFreedomStudio\kernel\bsp\build\debug/./metal/machine.h:1128
2040655a:	853e                	mv	a0,a5
2040655c:	4472                	lw	s0,28(sp)
2040655e:	6105                	addi	sp,sp,32
20406560:	8082                	ret

20406562 <__metal_driver_sifive_fe310_g000_pll_divider_base>:
__metal_driver_sifive_fe310_g000_pll_divider_base():
C:\wsFreedomStudio\kernel\bsp\build\debug/./metal/machine.h:1131
20406562:	1101                	addi	sp,sp,-32
20406564:	ce22                	sw	s0,28(sp)
20406566:	1000                	addi	s0,sp,32
20406568:	fea42623          	sw	a0,-20(s0)
C:\wsFreedomStudio\kernel\bsp\build\debug/./metal/machine.h:1132
2040656c:	82418793          	addi	a5,gp,-2012 # 800007c4 <__metal_dt_prci_10008000>
C:\wsFreedomStudio\kernel\bsp\build\debug/./metal/machine.h:1133
20406570:	853e                	mv	a0,a5
20406572:	4472                	lw	s0,28(sp)
20406574:	6105                	addi	sp,sp,32
20406576:	8082                	ret

20406578 <__metal_driver_sifive_fe310_g000_pll_divider_offset>:
__metal_driver_sifive_fe310_g000_pll_divider_offset():
C:\wsFreedomStudio\kernel\bsp\build\debug/./metal/machine.h:1136
20406578:	1101                	addi	sp,sp,-32
2040657a:	ce22                	sw	s0,28(sp)
2040657c:	1000                	addi	s0,sp,32
2040657e:	fea42623          	sw	a0,-20(s0)
C:\wsFreedomStudio\kernel\bsp\build\debug/./metal/machine.h:1137
20406582:	47b1                	li	a5,12
C:\wsFreedomStudio\kernel\bsp\build\debug/./metal/machine.h:1138
20406584:	853e                	mv	a0,a5
20406586:	4472                	lw	s0,28(sp)
20406588:	6105                	addi	sp,sp,32
2040658a:	8082                	ret

2040658c <__metal_driver_sifive_fe310_g000_pll_config_base>:
__metal_driver_sifive_fe310_g000_pll_config_base():
C:\wsFreedomStudio\kernel\bsp\build\debug/./metal/machine.h:1141
2040658c:	1141                	addi	sp,sp,-16
2040658e:	c622                	sw	s0,12(sp)
20406590:	0800                	addi	s0,sp,16
C:\wsFreedomStudio\kernel\bsp\build\debug/./metal/machine.h:1142
20406592:	82418793          	addi	a5,gp,-2012 # 800007c4 <__metal_dt_prci_10008000>
C:\wsFreedomStudio\kernel\bsp\build\debug/./metal/machine.h:1143
20406596:	853e                	mv	a0,a5
20406598:	4432                	lw	s0,12(sp)
2040659a:	0141                	addi	sp,sp,16
2040659c:	8082                	ret

2040659e <__metal_driver_sifive_fe310_g000_pll_config_offset>:
__metal_driver_sifive_fe310_g000_pll_config_offset():
C:\wsFreedomStudio\kernel\bsp\build\debug/./metal/machine.h:1146
2040659e:	1141                	addi	sp,sp,-16
204065a0:	c622                	sw	s0,12(sp)
204065a2:	0800                	addi	s0,sp,16
C:\wsFreedomStudio\kernel\bsp\build\debug/./metal/machine.h:1147
204065a4:	47a1                	li	a5,8
C:\wsFreedomStudio\kernel\bsp\build\debug/./metal/machine.h:1148
204065a6:	853e                	mv	a0,a5
204065a8:	4432                	lw	s0,12(sp)
204065aa:	0141                	addi	sp,sp,16
204065ac:	8082                	ret

204065ae <__metal_driver_sifive_fe310_g000_pll_init_rate>:
__metal_driver_sifive_fe310_g000_pll_init_rate():
C:\wsFreedomStudio\kernel\bsp\build\debug/./metal/machine.h:1151
204065ae:	1141                	addi	sp,sp,-16
204065b0:	c622                	sw	s0,12(sp)
204065b2:	0800                	addi	s0,sp,16
C:\wsFreedomStudio\kernel\bsp\build\debug/./metal/machine.h:1152
204065b4:	00f427b7          	lui	a5,0xf42
204065b8:	40078793          	addi	a5,a5,1024 # f42400 <__heap_size+0xf41c00>
C:\wsFreedomStudio\kernel\bsp\build\debug/./metal/machine.h:1153
204065bc:	853e                	mv	a0,a5
204065be:	4432                	lw	s0,12(sp)
204065c0:	0141                	addi	sp,sp,16
204065c2:	8082                	ret

204065c4 <__metal_driver_sifive_fe310_g000_prci_base>:
__metal_driver_sifive_fe310_g000_prci_base():
C:\wsFreedomStudio\kernel\bsp\build\debug/./metal/machine.h:1159
204065c4:	1141                	addi	sp,sp,-16
204065c6:	c622                	sw	s0,12(sp)
204065c8:	0800                	addi	s0,sp,16
C:\wsFreedomStudio\kernel\bsp\build\debug/./metal/machine.h:1160
204065ca:	100087b7          	lui	a5,0x10008
C:\wsFreedomStudio\kernel\bsp\build\debug/./metal/machine.h:1161
204065ce:	853e                	mv	a0,a5
204065d0:	4432                	lw	s0,12(sp)
204065d2:	0141                	addi	sp,sp,16
204065d4:	8082                	ret

204065d6 <__metal_driver_sifive_fe310_g000_prci_vtable>:
__metal_driver_sifive_fe310_g000_prci_vtable():
C:\wsFreedomStudio\kernel\bsp\build\debug/./metal/machine.h:1169
204065d6:	1141                	addi	sp,sp,-16
204065d8:	c622                	sw	s0,12(sp)
204065da:	0800                	addi	s0,sp,16
C:\wsFreedomStudio\kernel\bsp\build\debug/./metal/machine.h:1170
204065dc:	204017b7          	lui	a5,0x20401
204065e0:	10478793          	addi	a5,a5,260 # 20401104 <__metal_driver_vtable_sifive_fe310_g000_prci>
C:\wsFreedomStudio\kernel\bsp\build\debug/./metal/machine.h:1171
204065e4:	853e                	mv	a0,a5
204065e6:	4432                	lw	s0,12(sp)
204065e8:	0141                	addi	sp,sp,16
204065ea:	8082                	ret

204065ec <get_pll_config_freq>:
get_pll_config_freq():
C:/wsFreedomStudio/kernel/freedom-metal/src/drivers/sifive_fe310-g000_pll.c:141
204065ec:	1101                	addi	sp,sp,-32
204065ee:	ce22                	sw	s0,28(sp)
204065f0:	1000                	addi	s0,sp,32
204065f2:	fea42623          	sw	a0,-20(s0)
204065f6:	feb42423          	sw	a1,-24(s0)
C:/wsFreedomStudio/kernel/freedom-metal/src/drivers/sifive_fe310-g000_pll.c:142
204065fa:	fe842783          	lw	a5,-24(s0)
204065fe:	479c                	lw	a5,8(a5)
20406600:	fec42703          	lw	a4,-20(s0)
20406604:	00f76963          	bltu	a4,a5,20406616 <get_pll_config_freq+0x2a>
C:/wsFreedomStudio/kernel/freedom-metal/src/drivers/sifive_fe310-g000_pll.c:143 (discriminator 1)
20406608:	fe842783          	lw	a5,-24(s0)
2040660c:	47dc                	lw	a5,12(a5)
C:/wsFreedomStudio/kernel/freedom-metal/src/drivers/sifive_fe310-g000_pll.c:142 (discriminator 1)
2040660e:	fec42703          	lw	a4,-20(s0)
20406612:	00e7f463          	bgeu	a5,a4,2040661a <get_pll_config_freq+0x2e>
C:/wsFreedomStudio/kernel/freedom-metal/src/drivers/sifive_fe310-g000_pll.c:144
20406616:	57fd                	li	a5,-1
20406618:	a829                	j	20406632 <get_pll_config_freq+0x46>
C:/wsFreedomStudio/kernel/freedom-metal/src/drivers/sifive_fe310-g000_pll.c:146
2040661a:	fe842783          	lw	a5,-24(s0)
2040661e:	4398                	lw	a4,0(a5)
20406620:	fec42783          	lw	a5,-20(s0)
20406624:	02f70733          	mul	a4,a4,a5
20406628:	fe842783          	lw	a5,-24(s0)
2040662c:	43dc                	lw	a5,4(a5)
2040662e:	02f757b3          	divu	a5,a4,a5
C:/wsFreedomStudio/kernel/freedom-metal/src/drivers/sifive_fe310-g000_pll.c:147
20406632:	853e                	mv	a0,a5
20406634:	4472                	lw	s0,28(sp)
20406636:	6105                	addi	sp,sp,32
20406638:	8082                	ret

2040663a <__metal_driver_sifive_fe310_g000_pll_init>:
__metal_driver_sifive_fe310_g000_pll_init():
C:/wsFreedomStudio/kernel/freedom-metal/src/drivers/sifive_fe310-g000_pll.c:162
2040663a:	7139                	addi	sp,sp,-64
2040663c:	de06                	sw	ra,60(sp)
2040663e:	dc22                	sw	s0,56(sp)
20406640:	0080                	addi	s0,sp,64
20406642:	fca42623          	sw	a0,-52(s0)
C:/wsFreedomStudio/kernel/freedom-metal/src/drivers/sifive_fe310-g000_pll.c:164
20406646:	fcc42783          	lw	a5,-52(s0)
2040664a:	853e                	mv	a0,a5
2040664c:	3df5                	jal	20406548 <__metal_driver_sifive_fe310_g000_pll_pllref>
2040664e:	fea42623          	sw	a0,-20(s0)
C:/wsFreedomStudio/kernel/freedom-metal/src/drivers/sifive_fe310-g000_pll.c:165
20406652:	3fb1                	jal	204065ae <__metal_driver_sifive_fe310_g000_pll_init_rate>
20406654:	fea42423          	sw	a0,-24(s0)
C:/wsFreedomStudio/kernel/freedom-metal/src/drivers/sifive_fe310-g000_pll.c:166
20406658:	3799                	jal	2040659e <__metal_driver_sifive_fe310_g000_pll_config_offset>
2040665a:	fea42223          	sw	a0,-28(s0)
C:/wsFreedomStudio/kernel/freedom-metal/src/drivers/sifive_fe310-g000_pll.c:167
2040665e:	379d                	jal	204065c4 <__metal_driver_sifive_fe310_g000_prci_base>
20406660:	fea42023          	sw	a0,-32(s0)
C:/wsFreedomStudio/kernel/freedom-metal/src/drivers/sifive_fe310-g000_pll.c:169
20406664:	fe042703          	lw	a4,-32(s0)
20406668:	fe442783          	lw	a5,-28(s0)
2040666c:	97ba                	add	a5,a5,a4
2040666e:	fcf42e23          	sw	a5,-36(s0)
C:/wsFreedomStudio/kernel/freedom-metal/src/drivers/sifive_fe310-g000_pll.c:173
20406672:	fcc42783          	lw	a5,-52(s0)
20406676:	43dc                	lw	a5,4(a5)
20406678:	853e                	mv	a0,a5
2040667a:	5e4010ef          	jal	ra,20407c5e <_metal_clock_call_all_callbacks>
C:/wsFreedomStudio/kernel/freedom-metal/src/drivers/sifive_fe310-g000_pll.c:177
2040667e:	fdc42783          	lw	a5,-36(s0)
20406682:	4398                	lw	a4,0(a5)
20406684:	67c1                	lui	a5,0x10
20406686:	8ff9                	and	a5,a5,a4
20406688:	cb91                	beqz	a5,2040669c <__metal_driver_sifive_fe310_g000_pll_init+0x62>
C:/wsFreedomStudio/kernel/freedom-metal/src/drivers/sifive_fe310-g000_pll.c:178
2040668a:	fdc42783          	lw	a5,-36(s0)
2040668e:	4398                	lw	a4,0(a5)
20406690:	77c1                	lui	a5,0xffff0
20406692:	17fd                	addi	a5,a5,-1
20406694:	8f7d                	and	a4,a4,a5
20406696:	fdc42783          	lw	a5,-36(s0)
2040669a:	c398                	sw	a4,0(a5)
C:/wsFreedomStudio/kernel/freedom-metal/src/drivers/sifive_fe310-g000_pll.c:181
2040669c:	fec42783          	lw	a5,-20(s0)
204066a0:	cb91                	beqz	a5,204066b4 <__metal_driver_sifive_fe310_g000_pll_init+0x7a>
C:/wsFreedomStudio/kernel/freedom-metal/src/drivers/sifive_fe310-g000_pll.c:182
204066a2:	fdc42783          	lw	a5,-36(s0)
204066a6:	4398                	lw	a4,0(a5)
204066a8:	000207b7          	lui	a5,0x20
204066ac:	8f5d                	or	a4,a4,a5
204066ae:	fdc42783          	lw	a5,-36(s0)
204066b2:	c398                	sw	a4,0(a5)
C:/wsFreedomStudio/kernel/freedom-metal/src/drivers/sifive_fe310-g000_pll.c:187
204066b4:	fcc42783          	lw	a5,-52(s0)
204066b8:	439c                	lw	a5,0(a5)
204066ba:	43d8                	lw	a4,4(a5)
204066bc:	fcc42783          	lw	a5,-52(s0)
204066c0:	fe842583          	lw	a1,-24(s0)
204066c4:	853e                	mv	a0,a5
204066c6:	9702                	jalr	a4
C:/wsFreedomStudio/kernel/freedom-metal/src/drivers/sifive_fe310-g000_pll.c:190
204066c8:	fcc42783          	lw	a5,-52(s0)
204066cc:	479c                	lw	a5,8(a5)
204066ce:	853e                	mv	a0,a5
204066d0:	58e010ef          	jal	ra,20407c5e <_metal_clock_call_all_callbacks>
C:/wsFreedomStudio/kernel/freedom-metal/src/drivers/sifive_fe310-g000_pll.c:191
204066d4:	0001                	nop
204066d6:	50f2                	lw	ra,60(sp)
204066d8:	5462                	lw	s0,56(sp)
204066da:	6121                	addi	sp,sp,64
204066dc:	8082                	ret

204066de <__metal_driver_sifive_fe310_g000_pll_get_rate_hz>:
__metal_driver_sifive_fe310_g000_pll_get_rate_hz():
C:/wsFreedomStudio/kernel/freedom-metal/src/drivers/sifive_fe310-g000_pll.c:194
204066de:	711d                	addi	sp,sp,-96
204066e0:	ce86                	sw	ra,92(sp)
204066e2:	cca2                	sw	s0,88(sp)
204066e4:	1080                	addi	s0,sp,96
204066e6:	faa42623          	sw	a0,-84(s0)
C:/wsFreedomStudio/kernel/freedom-metal/src/drivers/sifive_fe310-g000_pll.c:196
204066ea:	fac42503          	lw	a0,-84(s0)
204066ee:	e5bff0ef          	jal	ra,20406548 <__metal_driver_sifive_fe310_g000_pll_pllref>
204066f2:	fea42623          	sw	a0,-20(s0)
C:/wsFreedomStudio/kernel/freedom-metal/src/drivers/sifive_fe310-g000_pll.c:198
204066f6:	fac42503          	lw	a0,-84(s0)
204066fa:	e35ff0ef          	jal	ra,2040652e <__metal_driver_sifive_fe310_g000_pll_pllsel0>
204066fe:	fea42423          	sw	a0,-24(s0)
C:/wsFreedomStudio/kernel/freedom-metal/src/drivers/sifive_fe310-g000_pll.c:200
20406702:	fac42503          	lw	a0,-84(s0)
20406706:	e99ff0ef          	jal	ra,2040659e <__metal_driver_sifive_fe310_g000_pll_config_offset>
2040670a:	fea42223          	sw	a0,-28(s0)
C:/wsFreedomStudio/kernel/freedom-metal/src/drivers/sifive_fe310-g000_pll.c:202
2040670e:	fac42503          	lw	a0,-84(s0)
20406712:	e7bff0ef          	jal	ra,2040658c <__metal_driver_sifive_fe310_g000_pll_config_base>
20406716:	fea42023          	sw	a0,-32(s0)
C:/wsFreedomStudio/kernel/freedom-metal/src/drivers/sifive_fe310-g000_pll.c:204
2040671a:	fac42503          	lw	a0,-84(s0)
2040671e:	e5bff0ef          	jal	ra,20406578 <__metal_driver_sifive_fe310_g000_pll_divider_offset>
20406722:	fca42e23          	sw	a0,-36(s0)
C:/wsFreedomStudio/kernel/freedom-metal/src/drivers/sifive_fe310-g000_pll.c:206
20406726:	fac42503          	lw	a0,-84(s0)
2040672a:	e39ff0ef          	jal	ra,20406562 <__metal_driver_sifive_fe310_g000_pll_divider_base>
2040672e:	fca42c23          	sw	a0,-40(s0)
C:/wsFreedomStudio/kernel/freedom-metal/src/drivers/sifive_fe310-g000_pll.c:208
20406732:	3555                	jal	204065d6 <__metal_driver_sifive_fe310_g000_prci_vtable>
20406734:	fca42a23          	sw	a0,-44(s0)
C:/wsFreedomStudio/kernel/freedom-metal/src/drivers/sifive_fe310-g000_pll.c:210
20406738:	fd442783          	lw	a5,-44(s0)
2040673c:	439c                	lw	a5,0(a5)
2040673e:	fe442583          	lw	a1,-28(s0)
20406742:	fe042503          	lw	a0,-32(s0)
20406746:	9782                	jalr	a5
20406748:	fca42823          	sw	a0,-48(s0)
C:/wsFreedomStudio/kernel/freedom-metal/src/drivers/sifive_fe310-g000_pll.c:211
2040674c:	fd442783          	lw	a5,-44(s0)
20406750:	439c                	lw	a5,0(a5)
20406752:	fdc42583          	lw	a1,-36(s0)
20406756:	fd842503          	lw	a0,-40(s0)
2040675a:	9782                	jalr	a5
2040675c:	fca42623          	sw	a0,-52(s0)
C:/wsFreedomStudio/kernel/freedom-metal/src/drivers/sifive_fe310-g000_pll.c:215
20406760:	fd042703          	lw	a4,-48(s0)
20406764:	67c1                	lui	a5,0x10
20406766:	8f7d                	and	a4,a4,a5
20406768:	67c1                	lui	a5,0x10
2040676a:	00f77863          	bgeu	a4,a5,2040677a <__metal_driver_sifive_fe310_g000_pll_get_rate_hz+0x9c>
C:/wsFreedomStudio/kernel/freedom-metal/src/drivers/sifive_fe310-g000_pll.c:216
2040676e:	fe842503          	lw	a0,-24(s0)
20406772:	582010ef          	jal	ra,20407cf4 <metal_clock_get_rate_hz>
20406776:	87aa                	mv	a5,a0
20406778:	a8e1                	j	20406850 <__metal_driver_sifive_fe310_g000_pll_get_rate_hz+0x172>
C:/wsFreedomStudio/kernel/freedom-metal/src/drivers/sifive_fe310-g000_pll.c:221
2040677a:	fd042703          	lw	a4,-48(s0)
2040677e:	000207b7          	lui	a5,0x20
20406782:	8f7d                	and	a4,a4,a5
C:/wsFreedomStudio/kernel/freedom-metal/src/drivers/sifive_fe310-g000_pll.c:220
20406784:	000207b7          	lui	a5,0x20
20406788:	00f76563          	bltu	a4,a5,20406792 <__metal_driver_sifive_fe310_g000_pll_get_rate_hz+0xb4>
C:/wsFreedomStudio/kernel/freedom-metal/src/drivers/sifive_fe310-g000_pll.c:220 (discriminator 1)
2040678c:	fec42783          	lw	a5,-20(s0)
20406790:	a019                	j	20406796 <__metal_driver_sifive_fe310_g000_pll_get_rate_hz+0xb8>
C:/wsFreedomStudio/kernel/freedom-metal/src/drivers/sifive_fe310-g000_pll.c:220 (discriminator 2)
20406792:	fe842783          	lw	a5,-24(s0)
C:/wsFreedomStudio/kernel/freedom-metal/src/drivers/sifive_fe310-g000_pll.c:220 (discriminator 4)
20406796:	853e                	mv	a0,a5
20406798:	55c010ef          	jal	ra,20407cf4 <metal_clock_get_rate_hz>
2040679c:	fca42423          	sw	a0,-56(s0)
C:/wsFreedomStudio/kernel/freedom-metal/src/drivers/sifive_fe310-g000_pll.c:225 (discriminator 4)
204067a0:	fd042703          	lw	a4,-48(s0)
204067a4:	000407b7          	lui	a5,0x40
204067a8:	8f7d                	and	a4,a4,a5
204067aa:	000407b7          	lui	a5,0x40
204067ae:	00f76563          	bltu	a4,a5,204067b8 <__metal_driver_sifive_fe310_g000_pll_get_rate_hz+0xda>
C:/wsFreedomStudio/kernel/freedom-metal/src/drivers/sifive_fe310-g000_pll.c:226
204067b2:	fc842783          	lw	a5,-56(s0)
204067b6:	a869                	j	20406850 <__metal_driver_sifive_fe310_g000_pll_get_rate_hz+0x172>
C:/wsFreedomStudio/kernel/freedom-metal/src/drivers/sifive_fe310-g000_pll.c:229
204067b8:	fd042783          	lw	a5,-48(s0)
204067bc:	8b9d                	andi	a5,a5,7
204067be:	0785                	addi	a5,a5,1
204067c0:	fcf42223          	sw	a5,-60(s0)
C:/wsFreedomStudio/kernel/freedom-metal/src/drivers/sifive_fe310-g000_pll.c:230
204067c4:	fd042783          	lw	a5,-48(s0)
204067c8:	3f07f793          	andi	a5,a5,1008
204067cc:	8391                	srli	a5,a5,0x4
204067ce:	0785                	addi	a5,a5,1
204067d0:	0786                	slli	a5,a5,0x1
204067d2:	fcf42023          	sw	a5,-64(s0)
C:/wsFreedomStudio/kernel/freedom-metal/src/drivers/sifive_fe310-g000_pll.c:231
204067d6:	fd042703          	lw	a4,-48(s0)
204067da:	6785                	lui	a5,0x1
204067dc:	c0078793          	addi	a5,a5,-1024 # c00 <__heap_size+0x400>
204067e0:	8f7d                	and	a4,a4,a5
204067e2:	3ff00793          	li	a5,1023
204067e6:	00e7e463          	bltu	a5,a4,204067ee <__metal_driver_sifive_fe310_g000_pll_get_rate_hz+0x110>
C:/wsFreedomStudio/kernel/freedom-metal/src/drivers/sifive_fe310-g000_pll.c:232
204067ea:	57fd                	li	a5,-1
204067ec:	a095                	j	20406850 <__metal_driver_sifive_fe310_g000_pll_get_rate_hz+0x172>
C:/wsFreedomStudio/kernel/freedom-metal/src/drivers/sifive_fe310-g000_pll.c:233
204067ee:	fd042703          	lw	a4,-48(s0)
204067f2:	6785                	lui	a5,0x1
204067f4:	c0078793          	addi	a5,a5,-1024 # c00 <__heap_size+0x400>
204067f8:	8ff9                	and	a5,a5,a4
204067fa:	83a9                	srli	a5,a5,0xa
204067fc:	4705                	li	a4,1
204067fe:	00f717b3          	sll	a5,a4,a5
20406802:	faf42e23          	sw	a5,-68(s0)
C:/wsFreedomStudio/kernel/freedom-metal/src/drivers/sifive_fe310-g000_pll.c:238
20406806:	fc842703          	lw	a4,-56(s0)
2040680a:	fc442783          	lw	a5,-60(s0)
2040680e:	02f74733          	div	a4,a4,a5
20406812:	fc042783          	lw	a5,-64(s0)
20406816:	02f70733          	mul	a4,a4,a5
2040681a:	fbc42783          	lw	a5,-68(s0)
2040681e:	02f747b3          	div	a5,a4,a5
20406822:	faf42c23          	sw	a5,-72(s0)
C:/wsFreedomStudio/kernel/freedom-metal/src/drivers/sifive_fe310-g000_pll.c:239
20406826:	fcc42783          	lw	a5,-52(s0)
2040682a:	1007f713          	andi	a4,a5,256
2040682e:	0ff00793          	li	a5,255
20406832:	00e7f563          	bgeu	a5,a4,2040683c <__metal_driver_sifive_fe310_g000_pll_get_rate_hz+0x15e>
C:/wsFreedomStudio/kernel/freedom-metal/src/drivers/sifive_fe310-g000_pll.c:240
20406836:	fb842783          	lw	a5,-72(s0)
2040683a:	a819                	j	20406850 <__metal_driver_sifive_fe310_g000_pll_get_rate_hz+0x172>
C:/wsFreedomStudio/kernel/freedom-metal/src/drivers/sifive_fe310-g000_pll.c:242
2040683c:	fb842703          	lw	a4,-72(s0)
20406840:	fcc42783          	lw	a5,-52(s0)
20406844:	03f7f793          	andi	a5,a5,63
20406848:	0785                	addi	a5,a5,1
2040684a:	0786                	slli	a5,a5,0x1
2040684c:	02f757b3          	divu	a5,a4,a5
C:/wsFreedomStudio/kernel/freedom-metal/src/drivers/sifive_fe310-g000_pll.c:243
20406850:	853e                	mv	a0,a5
20406852:	40f6                	lw	ra,92(sp)
20406854:	4466                	lw	s0,88(sp)
20406856:	6125                	addi	sp,sp,96
20406858:	8082                	ret

2040685a <find_closest_config>:
find_closest_config():
C:/wsFreedomStudio/kernel/freedom-metal/src/drivers/sifive_fe310-g000_pll.c:253
2040685a:	7139                	addi	sp,sp,-64
2040685c:	de06                	sw	ra,60(sp)
2040685e:	dc22                	sw	s0,56(sp)
20406860:	0080                	addi	s0,sp,64
20406862:	fca42623          	sw	a0,-52(s0)
20406866:	fcb42423          	sw	a1,-56(s0)
C:/wsFreedomStudio/kernel/freedom-metal/src/drivers/sifive_fe310-g000_pll.c:254
2040686a:	57fd                	li	a5,-1
2040686c:	fef42623          	sw	a5,-20(s0)
C:/wsFreedomStudio/kernel/freedom-metal/src/drivers/sifive_fe310-g000_pll.c:255
20406870:	800007b7          	lui	a5,0x80000
20406874:	fff7c793          	not	a5,a5
20406878:	fef42423          	sw	a5,-24(s0)
C:/wsFreedomStudio/kernel/freedom-metal/src/drivers/sifive_fe310-g000_pll.c:259
2040687c:	04300793          	li	a5,67
20406880:	fef42223          	sw	a5,-28(s0)
20406884:	a0b5                	j	204068f0 <find_closest_config+0x96>
C:/wsFreedomStudio/kernel/freedom-metal/src/drivers/sifive_fe310-g000_pll.c:261
20406886:	fcc42683          	lw	a3,-52(s0)
2040688a:	fe442783          	lw	a5,-28(s0)
2040688e:	00579713          	slli	a4,a5,0x5
20406892:	204007b7          	lui	a5,0x20400
20406896:	7a478793          	addi	a5,a5,1956 # 204007a4 <pll_configs>
2040689a:	97ba                	add	a5,a5,a4
2040689c:	85be                	mv	a1,a5
2040689e:	8536                	mv	a0,a3
204068a0:	d4dff0ef          	jal	ra,204065ec <get_pll_config_freq>
204068a4:	fea42023          	sw	a0,-32(s0)
C:/wsFreedomStudio/kernel/freedom-metal/src/drivers/sifive_fe310-g000_pll.c:262
204068a8:	fe042703          	lw	a4,-32(s0)
204068ac:	57fd                	li	a5,-1
204068ae:	02f70c63          	beq	a4,a5,204068e6 <find_closest_config+0x8c>
C:/wsFreedomStudio/kernel/freedom-metal/src/drivers/sifive_fe310-g000_pll.c:263
204068b2:	fe042703          	lw	a4,-32(s0)
204068b6:	fc842783          	lw	a5,-56(s0)
204068ba:	8f1d                	sub	a4,a4,a5
204068bc:	41f75793          	srai	a5,a4,0x1f
204068c0:	8f3d                	xor	a4,a4,a5
204068c2:	40f707b3          	sub	a5,a4,a5
204068c6:	fcf42e23          	sw	a5,-36(s0)
C:/wsFreedomStudio/kernel/freedom-metal/src/drivers/sifive_fe310-g000_pll.c:265
204068ca:	fdc42703          	lw	a4,-36(s0)
204068ce:	fe842783          	lw	a5,-24(s0)
204068d2:	00f75a63          	bge	a4,a5,204068e6 <find_closest_config+0x8c>
C:/wsFreedomStudio/kernel/freedom-metal/src/drivers/sifive_fe310-g000_pll.c:266
204068d6:	fe442783          	lw	a5,-28(s0)
204068da:	fef42623          	sw	a5,-20(s0)
C:/wsFreedomStudio/kernel/freedom-metal/src/drivers/sifive_fe310-g000_pll.c:267
204068de:	fdc42783          	lw	a5,-36(s0)
204068e2:	fef42423          	sw	a5,-24(s0)
C:/wsFreedomStudio/kernel/freedom-metal/src/drivers/sifive_fe310-g000_pll.c:260
204068e6:	fe442783          	lw	a5,-28(s0)
204068ea:	17fd                	addi	a5,a5,-1
204068ec:	fef42223          	sw	a5,-28(s0)
C:/wsFreedomStudio/kernel/freedom-metal/src/drivers/sifive_fe310-g000_pll.c:259 (discriminator 1)
204068f0:	fe442783          	lw	a5,-28(s0)
204068f4:	f807d9e3          	bgez	a5,20406886 <find_closest_config+0x2c>
C:/wsFreedomStudio/kernel/freedom-metal/src/drivers/sifive_fe310-g000_pll.c:272
204068f8:	fec42783          	lw	a5,-20(s0)
C:/wsFreedomStudio/kernel/freedom-metal/src/drivers/sifive_fe310-g000_pll.c:273
204068fc:	853e                	mv	a0,a5
204068fe:	50f2                	lw	ra,60(sp)
20406900:	5462                	lw	s0,56(sp)
20406902:	6121                	addi	sp,sp,64
20406904:	8082                	ret

20406906 <configure_pll>:
configure_pll():
C:/wsFreedomStudio/kernel/freedom-metal/src/drivers/sifive_fe310-g000_pll.c:290
20406906:	7179                	addi	sp,sp,-48
20406908:	d606                	sw	ra,44(sp)
2040690a:	d422                	sw	s0,40(sp)
2040690c:	1800                	addi	s0,sp,48
2040690e:	fca42e23          	sw	a0,-36(s0)
20406912:	fcb42c23          	sw	a1,-40(s0)
20406916:	fcc42a23          	sw	a2,-44(s0)
C:/wsFreedomStudio/kernel/freedom-metal/src/drivers/sifive_fe310-g000_pll.c:291
2040691a:	fdc42783          	lw	a5,-36(s0)
2040691e:	439c                	lw	a5,0(a5)
20406920:	ff87f713          	andi	a4,a5,-8
20406924:	fdc42783          	lw	a5,-36(s0)
20406928:	c398                	sw	a4,0(a5)
C:/wsFreedomStudio/kernel/freedom-metal/src/drivers/sifive_fe310-g000_pll.c:292
2040692a:	fdc42783          	lw	a5,-36(s0)
2040692e:	4398                	lw	a4,0(a5)
20406930:	fd442783          	lw	a5,-44(s0)
20406934:	4b9c                	lw	a5,16(a5)
20406936:	8b9d                	andi	a5,a5,7
20406938:	8f5d                	or	a4,a4,a5
2040693a:	fdc42783          	lw	a5,-36(s0)
2040693e:	c398                	sw	a4,0(a5)
C:/wsFreedomStudio/kernel/freedom-metal/src/drivers/sifive_fe310-g000_pll.c:294
20406940:	fdc42783          	lw	a5,-36(s0)
20406944:	439c                	lw	a5,0(a5)
20406946:	c0f7f713          	andi	a4,a5,-1009
2040694a:	fdc42783          	lw	a5,-36(s0)
2040694e:	c398                	sw	a4,0(a5)
C:/wsFreedomStudio/kernel/freedom-metal/src/drivers/sifive_fe310-g000_pll.c:295
20406950:	fdc42783          	lw	a5,-36(s0)
20406954:	4398                	lw	a4,0(a5)
20406956:	fd442783          	lw	a5,-44(s0)
2040695a:	4bdc                	lw	a5,20(a5)
2040695c:	0792                	slli	a5,a5,0x4
2040695e:	3f07f793          	andi	a5,a5,1008
20406962:	8f5d                	or	a4,a4,a5
20406964:	fdc42783          	lw	a5,-36(s0)
20406968:	c398                	sw	a4,0(a5)
C:/wsFreedomStudio/kernel/freedom-metal/src/drivers/sifive_fe310-g000_pll.c:297
2040696a:	fdc42783          	lw	a5,-36(s0)
2040696e:	4398                	lw	a4,0(a5)
20406970:	77fd                	lui	a5,0xfffff
20406972:	3ff78793          	addi	a5,a5,1023 # fffff3ff <metal_segment_heap_target_end+0x7fffd92f>
20406976:	8f7d                	and	a4,a4,a5
20406978:	fdc42783          	lw	a5,-36(s0)
2040697c:	c398                	sw	a4,0(a5)
C:/wsFreedomStudio/kernel/freedom-metal/src/drivers/sifive_fe310-g000_pll.c:298
2040697e:	fdc42783          	lw	a5,-36(s0)
20406982:	4398                	lw	a4,0(a5)
20406984:	fd442783          	lw	a5,-44(s0)
20406988:	4f9c                	lw	a5,24(a5)
2040698a:	00a79693          	slli	a3,a5,0xa
2040698e:	6785                	lui	a5,0x1
20406990:	c0078793          	addi	a5,a5,-1024 # c00 <__heap_size+0x400>
20406994:	8ff5                	and	a5,a5,a3
20406996:	8f5d                	or	a4,a4,a5
20406998:	fdc42783          	lw	a5,-36(s0)
2040699c:	c398                	sw	a4,0(a5)
C:/wsFreedomStudio/kernel/freedom-metal/src/drivers/sifive_fe310-g000_pll.c:300
2040699e:	fd442783          	lw	a5,-44(s0)
204069a2:	4fdc                	lw	a5,28(a5)
204069a4:	0207db63          	bgez	a5,204069da <configure_pll+0xd4>
C:/wsFreedomStudio/kernel/freedom-metal/src/drivers/sifive_fe310-g000_pll.c:302
204069a8:	fd842783          	lw	a5,-40(s0)
204069ac:	439c                	lw	a5,0(a5)
204069ae:	1007e713          	ori	a4,a5,256
204069b2:	fd842783          	lw	a5,-40(s0)
204069b6:	c398                	sw	a4,0(a5)
C:/wsFreedomStudio/kernel/freedom-metal/src/drivers/sifive_fe310-g000_pll.c:304
204069b8:	fd842783          	lw	a5,-40(s0)
204069bc:	439c                	lw	a5,0(a5)
204069be:	fc07f713          	andi	a4,a5,-64
204069c2:	fd842783          	lw	a5,-40(s0)
204069c6:	c398                	sw	a4,0(a5)
C:/wsFreedomStudio/kernel/freedom-metal/src/drivers/sifive_fe310-g000_pll.c:305
204069c8:	fd842783          	lw	a5,-40(s0)
204069cc:	439c                	lw	a5,0(a5)
204069ce:	0017e713          	ori	a4,a5,1
204069d2:	fd842783          	lw	a5,-40(s0)
204069d6:	c398                	sw	a4,0(a5)
204069d8:	a82d                	j	20406a12 <configure_pll+0x10c>
C:/wsFreedomStudio/kernel/freedom-metal/src/drivers/sifive_fe310-g000_pll.c:307
204069da:	fd842783          	lw	a5,-40(s0)
204069de:	439c                	lw	a5,0(a5)
204069e0:	eff7f713          	andi	a4,a5,-257
204069e4:	fd842783          	lw	a5,-40(s0)
204069e8:	c398                	sw	a4,0(a5)
C:/wsFreedomStudio/kernel/freedom-metal/src/drivers/sifive_fe310-g000_pll.c:309
204069ea:	fd842783          	lw	a5,-40(s0)
204069ee:	439c                	lw	a5,0(a5)
204069f0:	fc07f713          	andi	a4,a5,-64
204069f4:	fd842783          	lw	a5,-40(s0)
204069f8:	c398                	sw	a4,0(a5)
C:/wsFreedomStudio/kernel/freedom-metal/src/drivers/sifive_fe310-g000_pll.c:310
204069fa:	fd842783          	lw	a5,-40(s0)
204069fe:	4398                	lw	a4,0(a5)
20406a00:	fd442783          	lw	a5,-44(s0)
20406a04:	4fdc                	lw	a5,28(a5)
20406a06:	03f7f793          	andi	a5,a5,63
20406a0a:	8f5d                	or	a4,a4,a5
20406a0c:	fd842783          	lw	a5,-40(s0)
20406a10:	c398                	sw	a4,0(a5)
C:/wsFreedomStudio/kernel/freedom-metal/src/drivers/sifive_fe310-g000_pll.c:313
20406a12:	fdc42783          	lw	a5,-36(s0)
20406a16:	4398                	lw	a4,0(a5)
20406a18:	fffc07b7          	lui	a5,0xfffc0
20406a1c:	17fd                	addi	a5,a5,-1
20406a1e:	8f7d                	and	a4,a4,a5
20406a20:	fdc42783          	lw	a5,-36(s0)
20406a24:	c398                	sw	a4,0(a5)
C:/wsFreedomStudio/kernel/freedom-metal/src/drivers/sifive_fe310-g000_pll.c:318
20406a26:	fe040793          	addi	a5,s0,-32
20406a2a:	863e                	mv	a2,a5
20406a2c:	4585                	li	a1,1
20406a2e:	800007b7          	lui	a5,0x80000
20406a32:	7ac78513          	addi	a0,a5,1964 # 800007ac <metal_segment_heap_target_end+0xffffecdc>
20406a36:	c72fd0ef          	jal	ra,20403ea8 <__metal_driver_riscv_clint0_command_request>
C:/wsFreedomStudio/kernel/freedom-metal/src/drivers/sifive_fe310-g000_pll.c:320
20406a3a:	fe042603          	lw	a2,-32(s0)
20406a3e:	fe442683          	lw	a3,-28(s0)
20406a42:	4511                	li	a0,4
20406a44:	4581                	li	a1,0
20406a46:	00a60733          	add	a4,a2,a0
20406a4a:	883a                	mv	a6,a4
20406a4c:	00c83833          	sltu	a6,a6,a2
20406a50:	00b687b3          	add	a5,a3,a1
20406a54:	00f806b3          	add	a3,a6,a5
20406a58:	87b6                	mv	a5,a3
20406a5a:	fee42423          	sw	a4,-24(s0)
20406a5e:	fef42623          	sw	a5,-20(s0)
C:/wsFreedomStudio/kernel/freedom-metal/src/drivers/sifive_fe310-g000_pll.c:321
20406a62:	a819                	j	20406a78 <configure_pll+0x172>
C:/wsFreedomStudio/kernel/freedom-metal/src/drivers/sifive_fe310-g000_pll.c:322
20406a64:	fe040793          	addi	a5,s0,-32
20406a68:	863e                	mv	a2,a5
20406a6a:	4585                	li	a1,1
20406a6c:	800007b7          	lui	a5,0x80000
20406a70:	7ac78513          	addi	a0,a5,1964 # 800007ac <metal_segment_heap_target_end+0xffffecdc>
20406a74:	c34fd0ef          	jal	ra,20403ea8 <__metal_driver_riscv_clint0_command_request>
C:/wsFreedomStudio/kernel/freedom-metal/src/drivers/sifive_fe310-g000_pll.c:321
20406a78:	fe042703          	lw	a4,-32(s0)
20406a7c:	fe442783          	lw	a5,-28(s0)
20406a80:	fec42683          	lw	a3,-20(s0)
20406a84:	863e                	mv	a2,a5
20406a86:	00c6ec63          	bltu	a3,a2,20406a9e <configure_pll+0x198>
20406a8a:	fec42683          	lw	a3,-20(s0)
20406a8e:	863e                	mv	a2,a5
20406a90:	fcc69ae3          	bne	a3,a2,20406a64 <configure_pll+0x15e>
20406a94:	fe842683          	lw	a3,-24(s0)
20406a98:	87ba                	mv	a5,a4
20406a9a:	fcf6f5e3          	bgeu	a3,a5,20406a64 <configure_pll+0x15e>
C:/wsFreedomStudio/kernel/freedom-metal/src/drivers/sifive_fe310-g000_pll.c:340
20406a9e:	0001                	nop
C:/wsFreedomStudio/kernel/freedom-metal/src/drivers/sifive_fe310-g000_pll.c:340 (discriminator 1)
20406aa0:	fdc42783          	lw	a5,-36(s0)
20406aa4:	439c                	lw	a5,0(a5)
20406aa6:	fe07dde3          	bgez	a5,20406aa0 <configure_pll+0x19a>
C:/wsFreedomStudio/kernel/freedom-metal/src/drivers/sifive_fe310-g000_pll.c:342
20406aaa:	0001                	nop
20406aac:	0001                	nop
20406aae:	50b2                	lw	ra,44(sp)
20406ab0:	5422                	lw	s0,40(sp)
20406ab2:	6145                	addi	sp,sp,48
20406ab4:	8082                	ret

20406ab6 <__metal_driver_sifive_fe310_g000_pll_set_rate_hz>:
__metal_driver_sifive_fe310_g000_pll_set_rate_hz():
C:/wsFreedomStudio/kernel/freedom-metal/src/drivers/sifive_fe310-g000_pll.c:345
20406ab6:	715d                	addi	sp,sp,-80
20406ab8:	c686                	sw	ra,76(sp)
20406aba:	c4a2                	sw	s0,72(sp)
20406abc:	0880                	addi	s0,sp,80
20406abe:	faa42e23          	sw	a0,-68(s0)
20406ac2:	fab42c23          	sw	a1,-72(s0)
C:/wsFreedomStudio/kernel/freedom-metal/src/drivers/sifive_fe310-g000_pll.c:347
20406ac6:	fbc42503          	lw	a0,-68(s0)
20406aca:	a7fff0ef          	jal	ra,20406548 <__metal_driver_sifive_fe310_g000_pll_pllref>
20406ace:	fea42623          	sw	a0,-20(s0)
C:/wsFreedomStudio/kernel/freedom-metal/src/drivers/sifive_fe310-g000_pll.c:349
20406ad2:	fbc42503          	lw	a0,-68(s0)
20406ad6:	a59ff0ef          	jal	ra,2040652e <__metal_driver_sifive_fe310_g000_pll_pllsel0>
20406ada:	fea42423          	sw	a0,-24(s0)
C:/wsFreedomStudio/kernel/freedom-metal/src/drivers/sifive_fe310-g000_pll.c:351
20406ade:	fbc42503          	lw	a0,-68(s0)
20406ae2:	abdff0ef          	jal	ra,2040659e <__metal_driver_sifive_fe310_g000_pll_config_offset>
20406ae6:	fea42223          	sw	a0,-28(s0)
C:/wsFreedomStudio/kernel/freedom-metal/src/drivers/sifive_fe310-g000_pll.c:353
20406aea:	fbc42503          	lw	a0,-68(s0)
20406aee:	a8bff0ef          	jal	ra,20406578 <__metal_driver_sifive_fe310_g000_pll_divider_offset>
20406af2:	fea42023          	sw	a0,-32(s0)
C:/wsFreedomStudio/kernel/freedom-metal/src/drivers/sifive_fe310-g000_pll.c:354
20406af6:	acfff0ef          	jal	ra,204065c4 <__metal_driver_sifive_fe310_g000_prci_base>
20406afa:	fca42e23          	sw	a0,-36(s0)
C:/wsFreedomStudio/kernel/freedom-metal/src/drivers/sifive_fe310-g000_pll.c:356
20406afe:	fdc42703          	lw	a4,-36(s0)
20406b02:	fe442783          	lw	a5,-28(s0)
20406b06:	97ba                	add	a5,a5,a4
20406b08:	fcf42c23          	sw	a5,-40(s0)
C:/wsFreedomStudio/kernel/freedom-metal/src/drivers/sifive_fe310-g000_pll.c:357
20406b0c:	fdc42703          	lw	a4,-36(s0)
20406b10:	fe042783          	lw	a5,-32(s0)
20406b14:	97ba                	add	a5,a5,a4
20406b16:	fcf42a23          	sw	a5,-44(s0)
C:/wsFreedomStudio/kernel/freedom-metal/src/drivers/sifive_fe310-g000_pll.c:360
20406b1a:	fd842783          	lw	a5,-40(s0)
20406b1e:	4398                	lw	a4,0(a5)
20406b20:	67c1                	lui	a5,0x10
20406b22:	8ff9                	and	a5,a5,a4
20406b24:	cb91                	beqz	a5,20406b38 <__metal_driver_sifive_fe310_g000_pll_set_rate_hz+0x82>
C:/wsFreedomStudio/kernel/freedom-metal/src/drivers/sifive_fe310-g000_pll.c:361
20406b26:	fd842783          	lw	a5,-40(s0)
20406b2a:	4398                	lw	a4,0(a5)
20406b2c:	77c1                	lui	a5,0xffff0
20406b2e:	17fd                	addi	a5,a5,-1
20406b30:	8f7d                	and	a4,a4,a5
20406b32:	fd842783          	lw	a5,-40(s0)
20406b36:	c398                	sw	a4,0(a5)
C:/wsFreedomStudio/kernel/freedom-metal/src/drivers/sifive_fe310-g000_pll.c:366
20406b38:	fd842783          	lw	a5,-40(s0)
20406b3c:	4398                	lw	a4,0(a5)
20406b3e:	000207b7          	lui	a5,0x20
20406b42:	8ff9                	and	a5,a5,a4
C:/wsFreedomStudio/kernel/freedom-metal/src/drivers/sifive_fe310-g000_pll.c:365
20406b44:	c781                	beqz	a5,20406b4c <__metal_driver_sifive_fe310_g000_pll_set_rate_hz+0x96>
C:/wsFreedomStudio/kernel/freedom-metal/src/drivers/sifive_fe310-g000_pll.c:365 (discriminator 1)
20406b46:	fec42783          	lw	a5,-20(s0)
20406b4a:	a019                	j	20406b50 <__metal_driver_sifive_fe310_g000_pll_set_rate_hz+0x9a>
C:/wsFreedomStudio/kernel/freedom-metal/src/drivers/sifive_fe310-g000_pll.c:365 (discriminator 2)
20406b4c:	fe842783          	lw	a5,-24(s0)
C:/wsFreedomStudio/kernel/freedom-metal/src/drivers/sifive_fe310-g000_pll.c:365 (discriminator 4)
20406b50:	853e                	mv	a0,a5
20406b52:	1a2010ef          	jal	ra,20407cf4 <metal_clock_get_rate_hz>
20406b56:	fca42823          	sw	a0,-48(s0)
C:/wsFreedomStudio/kernel/freedom-metal/src/drivers/sifive_fe310-g000_pll.c:370 (discriminator 4)
20406b5a:	fd042703          	lw	a4,-48(s0)
20406b5e:	87ba                	mv	a5,a4
20406b60:	0786                	slli	a5,a5,0x1
20406b62:	97ba                	add	a5,a5,a4
20406b64:	41f7d713          	srai	a4,a5,0x1f
20406b68:	8b0d                	andi	a4,a4,3
20406b6a:	97ba                	add	a5,a5,a4
20406b6c:	8789                	srai	a5,a5,0x2
20406b6e:	873e                	mv	a4,a5
20406b70:	fb842783          	lw	a5,-72(s0)
20406b74:	02e7cb63          	blt	a5,a4,20406baa <__metal_driver_sifive_fe310_g000_pll_set_rate_hz+0xf4>
C:/wsFreedomStudio/kernel/freedom-metal/src/drivers/sifive_fe310-g000_pll.c:370 (discriminator 1)
20406b78:	fd042703          	lw	a4,-48(s0)
20406b7c:	87ba                	mv	a5,a4
20406b7e:	078a                	slli	a5,a5,0x2
20406b80:	97ba                	add	a5,a5,a4
20406b82:	41f7d713          	srai	a4,a5,0x1f
20406b86:	8b0d                	andi	a4,a4,3
20406b88:	97ba                	add	a5,a5,a4
20406b8a:	8789                	srai	a5,a5,0x2
20406b8c:	873e                	mv	a4,a5
20406b8e:	fb842783          	lw	a5,-72(s0)
20406b92:	00f74c63          	blt	a4,a5,20406baa <__metal_driver_sifive_fe310_g000_pll_set_rate_hz+0xf4>
C:/wsFreedomStudio/kernel/freedom-metal/src/drivers/sifive_fe310-g000_pll.c:371
20406b96:	fd842783          	lw	a5,-40(s0)
20406b9a:	4398                	lw	a4,0(a5)
20406b9c:	000407b7          	lui	a5,0x40
20406ba0:	8f5d                	or	a4,a4,a5
20406ba2:	fd842783          	lw	a5,-40(s0)
20406ba6:	c398                	sw	a4,0(a5)
20406ba8:	a881                	j	20406bf8 <__metal_driver_sifive_fe310_g000_pll_set_rate_hz+0x142>
C:/wsFreedomStudio/kernel/freedom-metal/src/drivers/sifive_fe310-g000_pll.c:373
20406baa:	fb842583          	lw	a1,-72(s0)
20406bae:	fd042503          	lw	a0,-48(s0)
20406bb2:	ca9ff0ef          	jal	ra,2040685a <find_closest_config>
20406bb6:	fca42623          	sw	a0,-52(s0)
C:/wsFreedomStudio/kernel/freedom-metal/src/drivers/sifive_fe310-g000_pll.c:374
20406bba:	fcc42703          	lw	a4,-52(s0)
20406bbe:	57fd                	li	a5,-1
20406bc0:	02f70363          	beq	a4,a5,20406be6 <__metal_driver_sifive_fe310_g000_pll_set_rate_hz+0x130>
C:/wsFreedomStudio/kernel/freedom-metal/src/drivers/sifive_fe310-g000_pll.c:375
20406bc4:	fcc42783          	lw	a5,-52(s0)
20406bc8:	00579713          	slli	a4,a5,0x5
20406bcc:	204007b7          	lui	a5,0x20400
20406bd0:	7a478793          	addi	a5,a5,1956 # 204007a4 <pll_configs>
20406bd4:	97ba                	add	a5,a5,a4
20406bd6:	863e                	mv	a2,a5
20406bd8:	fd442583          	lw	a1,-44(s0)
20406bdc:	fd842503          	lw	a0,-40(s0)
20406be0:	d27ff0ef          	jal	ra,20406906 <configure_pll>
20406be4:	a811                	j	20406bf8 <__metal_driver_sifive_fe310_g000_pll_set_rate_hz+0x142>
C:/wsFreedomStudio/kernel/freedom-metal/src/drivers/sifive_fe310-g000_pll.c:378
20406be6:	fd842783          	lw	a5,-40(s0)
20406bea:	4398                	lw	a4,0(a5)
20406bec:	000407b7          	lui	a5,0x40
20406bf0:	8f5d                	or	a4,a4,a5
20406bf2:	fd842783          	lw	a5,-40(s0)
20406bf6:	c398                	sw	a4,0(a5)
C:/wsFreedomStudio/kernel/freedom-metal/src/drivers/sifive_fe310-g000_pll.c:383
20406bf8:	fd842783          	lw	a5,-40(s0)
20406bfc:	4398                	lw	a4,0(a5)
20406bfe:	67c1                	lui	a5,0x10
20406c00:	8f5d                	or	a4,a4,a5
20406c02:	fd842783          	lw	a5,-40(s0)
20406c06:	c398                	sw	a4,0(a5)
C:/wsFreedomStudio/kernel/freedom-metal/src/drivers/sifive_fe310-g000_pll.c:385
20406c08:	fbc42503          	lw	a0,-68(s0)
20406c0c:	ad3ff0ef          	jal	ra,204066de <__metal_driver_sifive_fe310_g000_pll_get_rate_hz>
20406c10:	87aa                	mv	a5,a0
C:/wsFreedomStudio/kernel/freedom-metal/src/drivers/sifive_fe310-g000_pll.c:386
20406c12:	853e                	mv	a0,a5
20406c14:	40b6                	lw	ra,76(sp)
20406c16:	4426                	lw	s0,72(sp)
20406c18:	6161                	addi	sp,sp,80
20406c1a:	8082                	ret

20406c1c <__metal_driver_sifive_fe310_g000_prci_base>:
__metal_driver_sifive_fe310_g000_prci_base():
C:\wsFreedomStudio\kernel\bsp\build\debug/./metal/machine.h:1159
20406c1c:	1141                	addi	sp,sp,-16
20406c1e:	c622                	sw	s0,12(sp)
20406c20:	0800                	addi	s0,sp,16
C:\wsFreedomStudio\kernel\bsp\build\debug/./metal/machine.h:1160
20406c22:	100087b7          	lui	a5,0x10008
C:\wsFreedomStudio\kernel\bsp\build\debug/./metal/machine.h:1161
20406c26:	853e                	mv	a0,a5
20406c28:	4432                	lw	s0,12(sp)
20406c2a:	0141                	addi	sp,sp,16
20406c2c:	8082                	ret

20406c2e <__metal_driver_sifive_fe310_g000_prci_get_reg>:
__metal_driver_sifive_fe310_g000_prci_get_reg():
C:/wsFreedomStudio/kernel/freedom-metal/src/drivers/sifive_fe310-g000_prci.c:12
20406c2e:	7179                	addi	sp,sp,-48
20406c30:	d606                	sw	ra,44(sp)
20406c32:	d422                	sw	s0,40(sp)
20406c34:	1800                	addi	s0,sp,48
20406c36:	fca42e23          	sw	a0,-36(s0)
20406c3a:	fcb42c23          	sw	a1,-40(s0)
C:/wsFreedomStudio/kernel/freedom-metal/src/drivers/sifive_fe310-g000_prci.c:13
20406c3e:	3ff9                	jal	20406c1c <__metal_driver_sifive_fe310_g000_prci_base>
20406c40:	87aa                	mv	a5,a0
20406c42:	fef42623          	sw	a5,-20(s0)
C:/wsFreedomStudio/kernel/freedom-metal/src/drivers/sifive_fe310-g000_prci.c:14
20406c46:	fd842703          	lw	a4,-40(s0)
20406c4a:	fec42783          	lw	a5,-20(s0)
20406c4e:	97ba                	add	a5,a5,a4
20406c50:	439c                	lw	a5,0(a5)
C:/wsFreedomStudio/kernel/freedom-metal/src/drivers/sifive_fe310-g000_prci.c:15
20406c52:	853e                	mv	a0,a5
20406c54:	50b2                	lw	ra,44(sp)
20406c56:	5422                	lw	s0,40(sp)
20406c58:	6145                	addi	sp,sp,48
20406c5a:	8082                	ret

20406c5c <__metal_driver_sifive_fe310_g000_prci_set_reg>:
__metal_driver_sifive_fe310_g000_prci_set_reg():
C:/wsFreedomStudio/kernel/freedom-metal/src/drivers/sifive_fe310-g000_prci.c:19
20406c5c:	7179                	addi	sp,sp,-48
20406c5e:	d606                	sw	ra,44(sp)
20406c60:	d422                	sw	s0,40(sp)
20406c62:	1800                	addi	s0,sp,48
20406c64:	fca42e23          	sw	a0,-36(s0)
20406c68:	fcb42c23          	sw	a1,-40(s0)
20406c6c:	fcc42a23          	sw	a2,-44(s0)
C:/wsFreedomStudio/kernel/freedom-metal/src/drivers/sifive_fe310-g000_prci.c:20
20406c70:	3775                	jal	20406c1c <__metal_driver_sifive_fe310_g000_prci_base>
20406c72:	87aa                	mv	a5,a0
20406c74:	fef42623          	sw	a5,-20(s0)
C:/wsFreedomStudio/kernel/freedom-metal/src/drivers/sifive_fe310-g000_prci.c:21
20406c78:	fd842703          	lw	a4,-40(s0)
20406c7c:	fec42783          	lw	a5,-20(s0)
20406c80:	97ba                	add	a5,a5,a4
20406c82:	873e                	mv	a4,a5
20406c84:	fd442783          	lw	a5,-44(s0)
20406c88:	c31c                	sw	a5,0(a4)
C:/wsFreedomStudio/kernel/freedom-metal/src/drivers/sifive_fe310-g000_prci.c:22
20406c8a:	853e                	mv	a0,a5
20406c8c:	50b2                	lw	ra,44(sp)
20406c8e:	5422                	lw	s0,40(sp)
20406c90:	6145                	addi	sp,sp,48
20406c92:	8082                	ret

20406c94 <__metal_driver_sifive_gpio0_base>:
__metal_driver_sifive_gpio0_base():
C:\wsFreedomStudio\kernel\bsp\build\debug/./metal/machine.h:474
20406c94:	1101                	addi	sp,sp,-32
20406c96:	ce22                	sw	s0,28(sp)
20406c98:	1000                	addi	s0,sp,32
20406c9a:	fea42623          	sw	a0,-20(s0)
C:\wsFreedomStudio\kernel\bsp\build\debug/./metal/machine.h:475
20406c9e:	fec42703          	lw	a4,-20(s0)
20406ca2:	81c18793          	addi	a5,gp,-2020 # 800007bc <__metal_dt_gpio_10012000>
20406ca6:	00f71563          	bne	a4,a5,20406cb0 <__metal_driver_sifive_gpio0_base+0x1c>
C:\wsFreedomStudio\kernel\bsp\build\debug/./metal/machine.h:476
20406caa:	100127b7          	lui	a5,0x10012
20406cae:	a011                	j	20406cb2 <__metal_driver_sifive_gpio0_base+0x1e>
C:\wsFreedomStudio\kernel\bsp\build\debug/./metal/machine.h:479
20406cb0:	4781                	li	a5,0
C:\wsFreedomStudio\kernel\bsp\build\debug/./metal/machine.h:481
20406cb2:	853e                	mv	a0,a5
20406cb4:	4472                	lw	s0,28(sp)
20406cb6:	6105                	addi	sp,sp,32
20406cb8:	8082                	ret

20406cba <__metal_driver_sifive_gpio0_interrupt_parent>:
__metal_driver_sifive_gpio0_interrupt_parent():
C:\wsFreedomStudio\kernel\bsp\build\debug/./metal/machine.h:504
20406cba:	1101                	addi	sp,sp,-32
20406cbc:	ce22                	sw	s0,28(sp)
20406cbe:	1000                	addi	s0,sp,32
20406cc0:	fea42623          	sw	a0,-20(s0)
C:\wsFreedomStudio\kernel\bsp\build\debug/./metal/machine.h:505
20406cc4:	fec42703          	lw	a4,-20(s0)
20406cc8:	81c18793          	addi	a5,gp,-2020 # 800007bc <__metal_dt_gpio_10012000>
20406ccc:	00f71763          	bne	a4,a5,20406cda <__metal_driver_sifive_gpio0_interrupt_parent+0x20>
C:\wsFreedomStudio\kernel\bsp\build\debug/./metal/machine.h:506
20406cd0:	800007b7          	lui	a5,0x80000
20406cd4:	45878793          	addi	a5,a5,1112 # 80000458 <metal_segment_heap_target_end+0xffffe988>
20406cd8:	a011                	j	20406cdc <__metal_driver_sifive_gpio0_interrupt_parent+0x22>
C:\wsFreedomStudio\kernel\bsp\build\debug/./metal/machine.h:509
20406cda:	4781                	li	a5,0
C:\wsFreedomStudio\kernel\bsp\build\debug/./metal/machine.h:511
20406cdc:	853e                	mv	a0,a5
20406cde:	4472                	lw	s0,28(sp)
20406ce0:	6105                	addi	sp,sp,32
20406ce2:	8082                	ret

20406ce4 <__metal_driver_sifive_gpio0_interrupt_lines>:
__metal_driver_sifive_gpio0_interrupt_lines():
C:\wsFreedomStudio\kernel\bsp\build\debug/./metal/machine.h:514
20406ce4:	1101                	addi	sp,sp,-32
20406ce6:	ce22                	sw	s0,28(sp)
20406ce8:	1000                	addi	s0,sp,32
20406cea:	fea42623          	sw	a0,-20(s0)
20406cee:	feb42423          	sw	a1,-24(s0)
C:\wsFreedomStudio\kernel\bsp\build\debug/./metal/machine.h:515
20406cf2:	fec42703          	lw	a4,-20(s0)
20406cf6:	81c18793          	addi	a5,gp,-2020 # 800007bc <__metal_dt_gpio_10012000>
20406cfa:	00f71763          	bne	a4,a5,20406d08 <__metal_driver_sifive_gpio0_interrupt_lines+0x24>
C:\wsFreedomStudio\kernel\bsp\build\debug/./metal/machine.h:515 (discriminator 1)
20406cfe:	fe842783          	lw	a5,-24(s0)
20406d02:	e399                	bnez	a5,20406d08 <__metal_driver_sifive_gpio0_interrupt_lines+0x24>
C:\wsFreedomStudio\kernel\bsp\build\debug/./metal/machine.h:516
20406d04:	479d                	li	a5,7
20406d06:	a269                	j	20406e90 <__metal_driver_sifive_gpio0_interrupt_lines+0x1ac>
C:\wsFreedomStudio\kernel\bsp\build\debug/./metal/machine.h:518
20406d08:	fec42703          	lw	a4,-20(s0)
20406d0c:	81c18793          	addi	a5,gp,-2020 # 800007bc <__metal_dt_gpio_10012000>
20406d10:	00f71963          	bne	a4,a5,20406d22 <__metal_driver_sifive_gpio0_interrupt_lines+0x3e>
C:\wsFreedomStudio\kernel\bsp\build\debug/./metal/machine.h:518 (discriminator 1)
20406d14:	fe842703          	lw	a4,-24(s0)
20406d18:	4785                	li	a5,1
20406d1a:	00f71463          	bne	a4,a5,20406d22 <__metal_driver_sifive_gpio0_interrupt_lines+0x3e>
C:\wsFreedomStudio\kernel\bsp\build\debug/./metal/machine.h:519
20406d1e:	47a1                	li	a5,8
20406d20:	aa85                	j	20406e90 <__metal_driver_sifive_gpio0_interrupt_lines+0x1ac>
C:\wsFreedomStudio\kernel\bsp\build\debug/./metal/machine.h:521
20406d22:	fec42703          	lw	a4,-20(s0)
20406d26:	81c18793          	addi	a5,gp,-2020 # 800007bc <__metal_dt_gpio_10012000>
20406d2a:	00f71963          	bne	a4,a5,20406d3c <__metal_driver_sifive_gpio0_interrupt_lines+0x58>
C:\wsFreedomStudio\kernel\bsp\build\debug/./metal/machine.h:521 (discriminator 1)
20406d2e:	fe842703          	lw	a4,-24(s0)
20406d32:	4789                	li	a5,2
20406d34:	00f71463          	bne	a4,a5,20406d3c <__metal_driver_sifive_gpio0_interrupt_lines+0x58>
C:\wsFreedomStudio\kernel\bsp\build\debug/./metal/machine.h:522
20406d38:	47a5                	li	a5,9
20406d3a:	aa99                	j	20406e90 <__metal_driver_sifive_gpio0_interrupt_lines+0x1ac>
C:\wsFreedomStudio\kernel\bsp\build\debug/./metal/machine.h:524
20406d3c:	fec42703          	lw	a4,-20(s0)
20406d40:	81c18793          	addi	a5,gp,-2020 # 800007bc <__metal_dt_gpio_10012000>
20406d44:	00f71963          	bne	a4,a5,20406d56 <__metal_driver_sifive_gpio0_interrupt_lines+0x72>
C:\wsFreedomStudio\kernel\bsp\build\debug/./metal/machine.h:524 (discriminator 1)
20406d48:	fe842703          	lw	a4,-24(s0)
20406d4c:	478d                	li	a5,3
20406d4e:	00f71463          	bne	a4,a5,20406d56 <__metal_driver_sifive_gpio0_interrupt_lines+0x72>
C:\wsFreedomStudio\kernel\bsp\build\debug/./metal/machine.h:525
20406d52:	47a9                	li	a5,10
20406d54:	aa35                	j	20406e90 <__metal_driver_sifive_gpio0_interrupt_lines+0x1ac>
C:\wsFreedomStudio\kernel\bsp\build\debug/./metal/machine.h:527
20406d56:	fec42703          	lw	a4,-20(s0)
20406d5a:	81c18793          	addi	a5,gp,-2020 # 800007bc <__metal_dt_gpio_10012000>
20406d5e:	00f71963          	bne	a4,a5,20406d70 <__metal_driver_sifive_gpio0_interrupt_lines+0x8c>
C:\wsFreedomStudio\kernel\bsp\build\debug/./metal/machine.h:527 (discriminator 1)
20406d62:	fe842703          	lw	a4,-24(s0)
20406d66:	4791                	li	a5,4
20406d68:	00f71463          	bne	a4,a5,20406d70 <__metal_driver_sifive_gpio0_interrupt_lines+0x8c>
C:\wsFreedomStudio\kernel\bsp\build\debug/./metal/machine.h:528
20406d6c:	47ad                	li	a5,11
20406d6e:	a20d                	j	20406e90 <__metal_driver_sifive_gpio0_interrupt_lines+0x1ac>
C:\wsFreedomStudio\kernel\bsp\build\debug/./metal/machine.h:530
20406d70:	fec42703          	lw	a4,-20(s0)
20406d74:	81c18793          	addi	a5,gp,-2020 # 800007bc <__metal_dt_gpio_10012000>
20406d78:	00f71963          	bne	a4,a5,20406d8a <__metal_driver_sifive_gpio0_interrupt_lines+0xa6>
C:\wsFreedomStudio\kernel\bsp\build\debug/./metal/machine.h:530 (discriminator 1)
20406d7c:	fe842703          	lw	a4,-24(s0)
20406d80:	4795                	li	a5,5
20406d82:	00f71463          	bne	a4,a5,20406d8a <__metal_driver_sifive_gpio0_interrupt_lines+0xa6>
C:\wsFreedomStudio\kernel\bsp\build\debug/./metal/machine.h:531
20406d86:	47b1                	li	a5,12
20406d88:	a221                	j	20406e90 <__metal_driver_sifive_gpio0_interrupt_lines+0x1ac>
C:\wsFreedomStudio\kernel\bsp\build\debug/./metal/machine.h:533
20406d8a:	fec42703          	lw	a4,-20(s0)
20406d8e:	81c18793          	addi	a5,gp,-2020 # 800007bc <__metal_dt_gpio_10012000>
20406d92:	00f71963          	bne	a4,a5,20406da4 <__metal_driver_sifive_gpio0_interrupt_lines+0xc0>
C:\wsFreedomStudio\kernel\bsp\build\debug/./metal/machine.h:533 (discriminator 1)
20406d96:	fe842703          	lw	a4,-24(s0)
20406d9a:	4799                	li	a5,6
20406d9c:	00f71463          	bne	a4,a5,20406da4 <__metal_driver_sifive_gpio0_interrupt_lines+0xc0>
C:\wsFreedomStudio\kernel\bsp\build\debug/./metal/machine.h:534
20406da0:	47b5                	li	a5,13
20406da2:	a0fd                	j	20406e90 <__metal_driver_sifive_gpio0_interrupt_lines+0x1ac>
C:\wsFreedomStudio\kernel\bsp\build\debug/./metal/machine.h:536
20406da4:	fec42703          	lw	a4,-20(s0)
20406da8:	81c18793          	addi	a5,gp,-2020 # 800007bc <__metal_dt_gpio_10012000>
20406dac:	00f71963          	bne	a4,a5,20406dbe <__metal_driver_sifive_gpio0_interrupt_lines+0xda>
C:\wsFreedomStudio\kernel\bsp\build\debug/./metal/machine.h:536 (discriminator 1)
20406db0:	fe842703          	lw	a4,-24(s0)
20406db4:	479d                	li	a5,7
20406db6:	00f71463          	bne	a4,a5,20406dbe <__metal_driver_sifive_gpio0_interrupt_lines+0xda>
C:\wsFreedomStudio\kernel\bsp\build\debug/./metal/machine.h:537
20406dba:	47b9                	li	a5,14
20406dbc:	a8d1                	j	20406e90 <__metal_driver_sifive_gpio0_interrupt_lines+0x1ac>
C:\wsFreedomStudio\kernel\bsp\build\debug/./metal/machine.h:539
20406dbe:	fec42703          	lw	a4,-20(s0)
20406dc2:	81c18793          	addi	a5,gp,-2020 # 800007bc <__metal_dt_gpio_10012000>
20406dc6:	00f71963          	bne	a4,a5,20406dd8 <__metal_driver_sifive_gpio0_interrupt_lines+0xf4>
C:\wsFreedomStudio\kernel\bsp\build\debug/./metal/machine.h:539 (discriminator 1)
20406dca:	fe842703          	lw	a4,-24(s0)
20406dce:	47a1                	li	a5,8
20406dd0:	00f71463          	bne	a4,a5,20406dd8 <__metal_driver_sifive_gpio0_interrupt_lines+0xf4>
C:\wsFreedomStudio\kernel\bsp\build\debug/./metal/machine.h:540
20406dd4:	47bd                	li	a5,15
20406dd6:	a86d                	j	20406e90 <__metal_driver_sifive_gpio0_interrupt_lines+0x1ac>
C:\wsFreedomStudio\kernel\bsp\build\debug/./metal/machine.h:542
20406dd8:	fec42703          	lw	a4,-20(s0)
20406ddc:	81c18793          	addi	a5,gp,-2020 # 800007bc <__metal_dt_gpio_10012000>
20406de0:	00f71963          	bne	a4,a5,20406df2 <__metal_driver_sifive_gpio0_interrupt_lines+0x10e>
C:\wsFreedomStudio\kernel\bsp\build\debug/./metal/machine.h:542 (discriminator 1)
20406de4:	fe842703          	lw	a4,-24(s0)
20406de8:	47a5                	li	a5,9
20406dea:	00f71463          	bne	a4,a5,20406df2 <__metal_driver_sifive_gpio0_interrupt_lines+0x10e>
C:\wsFreedomStudio\kernel\bsp\build\debug/./metal/machine.h:543
20406dee:	47c1                	li	a5,16
20406df0:	a045                	j	20406e90 <__metal_driver_sifive_gpio0_interrupt_lines+0x1ac>
C:\wsFreedomStudio\kernel\bsp\build\debug/./metal/machine.h:545
20406df2:	fec42703          	lw	a4,-20(s0)
20406df6:	81c18793          	addi	a5,gp,-2020 # 800007bc <__metal_dt_gpio_10012000>
20406dfa:	00f71963          	bne	a4,a5,20406e0c <__metal_driver_sifive_gpio0_interrupt_lines+0x128>
C:\wsFreedomStudio\kernel\bsp\build\debug/./metal/machine.h:545 (discriminator 1)
20406dfe:	fe842703          	lw	a4,-24(s0)
20406e02:	47a9                	li	a5,10
20406e04:	00f71463          	bne	a4,a5,20406e0c <__metal_driver_sifive_gpio0_interrupt_lines+0x128>
C:\wsFreedomStudio\kernel\bsp\build\debug/./metal/machine.h:546
20406e08:	47c5                	li	a5,17
20406e0a:	a059                	j	20406e90 <__metal_driver_sifive_gpio0_interrupt_lines+0x1ac>
C:\wsFreedomStudio\kernel\bsp\build\debug/./metal/machine.h:548
20406e0c:	fec42703          	lw	a4,-20(s0)
20406e10:	81c18793          	addi	a5,gp,-2020 # 800007bc <__metal_dt_gpio_10012000>
20406e14:	00f71963          	bne	a4,a5,20406e26 <__metal_driver_sifive_gpio0_interrupt_lines+0x142>
C:\wsFreedomStudio\kernel\bsp\build\debug/./metal/machine.h:548 (discriminator 1)
20406e18:	fe842703          	lw	a4,-24(s0)
20406e1c:	47ad                	li	a5,11
20406e1e:	00f71463          	bne	a4,a5,20406e26 <__metal_driver_sifive_gpio0_interrupt_lines+0x142>
C:\wsFreedomStudio\kernel\bsp\build\debug/./metal/machine.h:549
20406e22:	47c9                	li	a5,18
20406e24:	a0b5                	j	20406e90 <__metal_driver_sifive_gpio0_interrupt_lines+0x1ac>
C:\wsFreedomStudio\kernel\bsp\build\debug/./metal/machine.h:551
20406e26:	fec42703          	lw	a4,-20(s0)
20406e2a:	81c18793          	addi	a5,gp,-2020 # 800007bc <__metal_dt_gpio_10012000>
20406e2e:	00f71963          	bne	a4,a5,20406e40 <__metal_driver_sifive_gpio0_interrupt_lines+0x15c>
C:\wsFreedomStudio\kernel\bsp\build\debug/./metal/machine.h:551 (discriminator 1)
20406e32:	fe842703          	lw	a4,-24(s0)
20406e36:	47b1                	li	a5,12
20406e38:	00f71463          	bne	a4,a5,20406e40 <__metal_driver_sifive_gpio0_interrupt_lines+0x15c>
C:\wsFreedomStudio\kernel\bsp\build\debug/./metal/machine.h:552
20406e3c:	47cd                	li	a5,19
20406e3e:	a889                	j	20406e90 <__metal_driver_sifive_gpio0_interrupt_lines+0x1ac>
C:\wsFreedomStudio\kernel\bsp\build\debug/./metal/machine.h:554
20406e40:	fec42703          	lw	a4,-20(s0)
20406e44:	81c18793          	addi	a5,gp,-2020 # 800007bc <__metal_dt_gpio_10012000>
20406e48:	00f71963          	bne	a4,a5,20406e5a <__metal_driver_sifive_gpio0_interrupt_lines+0x176>
C:\wsFreedomStudio\kernel\bsp\build\debug/./metal/machine.h:554 (discriminator 1)
20406e4c:	fe842703          	lw	a4,-24(s0)
20406e50:	47b5                	li	a5,13
20406e52:	00f71463          	bne	a4,a5,20406e5a <__metal_driver_sifive_gpio0_interrupt_lines+0x176>
C:\wsFreedomStudio\kernel\bsp\build\debug/./metal/machine.h:555
20406e56:	47d1                	li	a5,20
20406e58:	a825                	j	20406e90 <__metal_driver_sifive_gpio0_interrupt_lines+0x1ac>
C:\wsFreedomStudio\kernel\bsp\build\debug/./metal/machine.h:557
20406e5a:	fec42703          	lw	a4,-20(s0)
20406e5e:	81c18793          	addi	a5,gp,-2020 # 800007bc <__metal_dt_gpio_10012000>
20406e62:	00f71963          	bne	a4,a5,20406e74 <__metal_driver_sifive_gpio0_interrupt_lines+0x190>
C:\wsFreedomStudio\kernel\bsp\build\debug/./metal/machine.h:557 (discriminator 1)
20406e66:	fe842703          	lw	a4,-24(s0)
20406e6a:	47b9                	li	a5,14
20406e6c:	00f71463          	bne	a4,a5,20406e74 <__metal_driver_sifive_gpio0_interrupt_lines+0x190>
C:\wsFreedomStudio\kernel\bsp\build\debug/./metal/machine.h:558
20406e70:	47d5                	li	a5,21
20406e72:	a839                	j	20406e90 <__metal_driver_sifive_gpio0_interrupt_lines+0x1ac>
C:\wsFreedomStudio\kernel\bsp\build\debug/./metal/machine.h:560
20406e74:	fec42703          	lw	a4,-20(s0)
20406e78:	81c18793          	addi	a5,gp,-2020 # 800007bc <__metal_dt_gpio_10012000>
20406e7c:	00f71963          	bne	a4,a5,20406e8e <__metal_driver_sifive_gpio0_interrupt_lines+0x1aa>
C:\wsFreedomStudio\kernel\bsp\build\debug/./metal/machine.h:560 (discriminator 1)
20406e80:	fe842703          	lw	a4,-24(s0)
20406e84:	47bd                	li	a5,15
20406e86:	00f71463          	bne	a4,a5,20406e8e <__metal_driver_sifive_gpio0_interrupt_lines+0x1aa>
C:\wsFreedomStudio\kernel\bsp\build\debug/./metal/machine.h:561
20406e8a:	47d9                	li	a5,22
20406e8c:	a011                	j	20406e90 <__metal_driver_sifive_gpio0_interrupt_lines+0x1ac>
C:\wsFreedomStudio\kernel\bsp\build\debug/./metal/machine.h:564
20406e8e:	4781                	li	a5,0
C:\wsFreedomStudio\kernel\bsp\build\debug/./metal/machine.h:566
20406e90:	853e                	mv	a0,a5
20406e92:	4472                	lw	s0,28(sp)
20406e94:	6105                	addi	sp,sp,32
20406e96:	8082                	ret

20406e98 <__metal_driver_sifive_gpio0_enable_input>:
__metal_driver_sifive_gpio0_enable_input():
C:/wsFreedomStudio/kernel/freedom-metal/src/drivers/sifive_gpio0.c:13
20406e98:	7179                	addi	sp,sp,-48
20406e9a:	d606                	sw	ra,44(sp)
20406e9c:	d422                	sw	s0,40(sp)
20406e9e:	1800                	addi	s0,sp,48
20406ea0:	fca42e23          	sw	a0,-36(s0)
20406ea4:	fcb42c23          	sw	a1,-40(s0)
C:/wsFreedomStudio/kernel/freedom-metal/src/drivers/sifive_gpio0.c:14
20406ea8:	fdc42503          	lw	a0,-36(s0)
20406eac:	de9ff0ef          	jal	ra,20406c94 <__metal_driver_sifive_gpio0_base>
20406eb0:	87aa                	mv	a5,a0
20406eb2:	fef42623          	sw	a5,-20(s0)
C:/wsFreedomStudio/kernel/freedom-metal/src/drivers/sifive_gpio0.c:17
20406eb6:	fec42783          	lw	a5,-20(s0)
20406eba:	0791                	addi	a5,a5,4
20406ebc:	4398                	lw	a4,0(a5)
20406ebe:	fd842783          	lw	a5,-40(s0)
20406ec2:	fec42683          	lw	a3,-20(s0)
20406ec6:	0691                	addi	a3,a3,4
20406ec8:	8fd9                	or	a5,a5,a4
20406eca:	c29c                	sw	a5,0(a3)
C:/wsFreedomStudio/kernel/freedom-metal/src/drivers/sifive_gpio0.c:19
20406ecc:	4781                	li	a5,0
C:/wsFreedomStudio/kernel/freedom-metal/src/drivers/sifive_gpio0.c:20
20406ece:	853e                	mv	a0,a5
20406ed0:	50b2                	lw	ra,44(sp)
20406ed2:	5422                	lw	s0,40(sp)
20406ed4:	6145                	addi	sp,sp,48
20406ed6:	8082                	ret

20406ed8 <__metal_driver_sifive_gpio0_disable_input>:
__metal_driver_sifive_gpio0_disable_input():
C:/wsFreedomStudio/kernel/freedom-metal/src/drivers/sifive_gpio0.c:23
20406ed8:	7179                	addi	sp,sp,-48
20406eda:	d606                	sw	ra,44(sp)
20406edc:	d422                	sw	s0,40(sp)
20406ede:	1800                	addi	s0,sp,48
20406ee0:	fca42e23          	sw	a0,-36(s0)
20406ee4:	fcb42c23          	sw	a1,-40(s0)
C:/wsFreedomStudio/kernel/freedom-metal/src/drivers/sifive_gpio0.c:24
20406ee8:	fdc42503          	lw	a0,-36(s0)
20406eec:	da9ff0ef          	jal	ra,20406c94 <__metal_driver_sifive_gpio0_base>
20406ef0:	87aa                	mv	a5,a0
20406ef2:	fef42623          	sw	a5,-20(s0)
C:/wsFreedomStudio/kernel/freedom-metal/src/drivers/sifive_gpio0.c:27
20406ef6:	fec42783          	lw	a5,-20(s0)
20406efa:	0791                	addi	a5,a5,4
20406efc:	439c                	lw	a5,0(a5)
20406efe:	fd842703          	lw	a4,-40(s0)
20406f02:	fff74713          	not	a4,a4
20406f06:	86ba                	mv	a3,a4
20406f08:	fec42703          	lw	a4,-20(s0)
20406f0c:	0711                	addi	a4,a4,4
20406f0e:	8ff5                	and	a5,a5,a3
20406f10:	c31c                	sw	a5,0(a4)
C:/wsFreedomStudio/kernel/freedom-metal/src/drivers/sifive_gpio0.c:29
20406f12:	4781                	li	a5,0
C:/wsFreedomStudio/kernel/freedom-metal/src/drivers/sifive_gpio0.c:30
20406f14:	853e                	mv	a0,a5
20406f16:	50b2                	lw	ra,44(sp)
20406f18:	5422                	lw	s0,40(sp)
20406f1a:	6145                	addi	sp,sp,48
20406f1c:	8082                	ret

20406f1e <__metal_driver_sifive_gpio0_input>:
__metal_driver_sifive_gpio0_input():
C:/wsFreedomStudio/kernel/freedom-metal/src/drivers/sifive_gpio0.c:32
20406f1e:	7179                	addi	sp,sp,-48
20406f20:	d606                	sw	ra,44(sp)
20406f22:	d422                	sw	s0,40(sp)
20406f24:	1800                	addi	s0,sp,48
20406f26:	fca42e23          	sw	a0,-36(s0)
C:/wsFreedomStudio/kernel/freedom-metal/src/drivers/sifive_gpio0.c:33
20406f2a:	fdc42503          	lw	a0,-36(s0)
20406f2e:	d67ff0ef          	jal	ra,20406c94 <__metal_driver_sifive_gpio0_base>
20406f32:	87aa                	mv	a5,a0
20406f34:	fef42623          	sw	a5,-20(s0)
C:/wsFreedomStudio/kernel/freedom-metal/src/drivers/sifive_gpio0.c:35
20406f38:	fec42783          	lw	a5,-20(s0)
20406f3c:	439c                	lw	a5,0(a5)
C:/wsFreedomStudio/kernel/freedom-metal/src/drivers/sifive_gpio0.c:37
20406f3e:	853e                	mv	a0,a5
20406f40:	50b2                	lw	ra,44(sp)
20406f42:	5422                	lw	s0,40(sp)
20406f44:	6145                	addi	sp,sp,48
20406f46:	8082                	ret

20406f48 <__metal_driver_sifive_gpio0_output>:
__metal_driver_sifive_gpio0_output():
C:/wsFreedomStudio/kernel/freedom-metal/src/drivers/sifive_gpio0.c:39
20406f48:	7179                	addi	sp,sp,-48
20406f4a:	d606                	sw	ra,44(sp)
20406f4c:	d422                	sw	s0,40(sp)
20406f4e:	1800                	addi	s0,sp,48
20406f50:	fca42e23          	sw	a0,-36(s0)
C:/wsFreedomStudio/kernel/freedom-metal/src/drivers/sifive_gpio0.c:40
20406f54:	fdc42503          	lw	a0,-36(s0)
20406f58:	d3dff0ef          	jal	ra,20406c94 <__metal_driver_sifive_gpio0_base>
20406f5c:	87aa                	mv	a5,a0
20406f5e:	fef42623          	sw	a5,-20(s0)
C:/wsFreedomStudio/kernel/freedom-metal/src/drivers/sifive_gpio0.c:42
20406f62:	fec42783          	lw	a5,-20(s0)
20406f66:	07b1                	addi	a5,a5,12
20406f68:	439c                	lw	a5,0(a5)
C:/wsFreedomStudio/kernel/freedom-metal/src/drivers/sifive_gpio0.c:44
20406f6a:	853e                	mv	a0,a5
20406f6c:	50b2                	lw	ra,44(sp)
20406f6e:	5422                	lw	s0,40(sp)
20406f70:	6145                	addi	sp,sp,48
20406f72:	8082                	ret

20406f74 <__metal_driver_sifive_gpio0_disable_output>:
__metal_driver_sifive_gpio0_disable_output():
C:/wsFreedomStudio/kernel/freedom-metal/src/drivers/sifive_gpio0.c:47
20406f74:	7179                	addi	sp,sp,-48
20406f76:	d606                	sw	ra,44(sp)
20406f78:	d422                	sw	s0,40(sp)
20406f7a:	1800                	addi	s0,sp,48
20406f7c:	fca42e23          	sw	a0,-36(s0)
20406f80:	fcb42c23          	sw	a1,-40(s0)
C:/wsFreedomStudio/kernel/freedom-metal/src/drivers/sifive_gpio0.c:48
20406f84:	fdc42503          	lw	a0,-36(s0)
20406f88:	d0dff0ef          	jal	ra,20406c94 <__metal_driver_sifive_gpio0_base>
20406f8c:	87aa                	mv	a5,a0
20406f8e:	fef42623          	sw	a5,-20(s0)
C:/wsFreedomStudio/kernel/freedom-metal/src/drivers/sifive_gpio0.c:51
20406f92:	fec42783          	lw	a5,-20(s0)
20406f96:	07a1                	addi	a5,a5,8
20406f98:	439c                	lw	a5,0(a5)
20406f9a:	fd842703          	lw	a4,-40(s0)
20406f9e:	fff74713          	not	a4,a4
20406fa2:	86ba                	mv	a3,a4
20406fa4:	fec42703          	lw	a4,-20(s0)
20406fa8:	0721                	addi	a4,a4,8
20406faa:	8ff5                	and	a5,a5,a3
20406fac:	c31c                	sw	a5,0(a4)
C:/wsFreedomStudio/kernel/freedom-metal/src/drivers/sifive_gpio0.c:53
20406fae:	4781                	li	a5,0
C:/wsFreedomStudio/kernel/freedom-metal/src/drivers/sifive_gpio0.c:54
20406fb0:	853e                	mv	a0,a5
20406fb2:	50b2                	lw	ra,44(sp)
20406fb4:	5422                	lw	s0,40(sp)
20406fb6:	6145                	addi	sp,sp,48
20406fb8:	8082                	ret

20406fba <__metal_driver_sifive_gpio0_enable_output>:
__metal_driver_sifive_gpio0_enable_output():
C:/wsFreedomStudio/kernel/freedom-metal/src/drivers/sifive_gpio0.c:57
20406fba:	7179                	addi	sp,sp,-48
20406fbc:	d606                	sw	ra,44(sp)
20406fbe:	d422                	sw	s0,40(sp)
20406fc0:	1800                	addi	s0,sp,48
20406fc2:	fca42e23          	sw	a0,-36(s0)
20406fc6:	fcb42c23          	sw	a1,-40(s0)
C:/wsFreedomStudio/kernel/freedom-metal/src/drivers/sifive_gpio0.c:58
20406fca:	fdc42503          	lw	a0,-36(s0)
20406fce:	cc7ff0ef          	jal	ra,20406c94 <__metal_driver_sifive_gpio0_base>
20406fd2:	87aa                	mv	a5,a0
20406fd4:	fef42623          	sw	a5,-20(s0)
C:/wsFreedomStudio/kernel/freedom-metal/src/drivers/sifive_gpio0.c:61
20406fd8:	fec42783          	lw	a5,-20(s0)
20406fdc:	07a1                	addi	a5,a5,8
20406fde:	4398                	lw	a4,0(a5)
20406fe0:	fd842783          	lw	a5,-40(s0)
20406fe4:	fec42683          	lw	a3,-20(s0)
20406fe8:	06a1                	addi	a3,a3,8
20406fea:	8fd9                	or	a5,a5,a4
20406fec:	c29c                	sw	a5,0(a3)
C:/wsFreedomStudio/kernel/freedom-metal/src/drivers/sifive_gpio0.c:63
20406fee:	4781                	li	a5,0
C:/wsFreedomStudio/kernel/freedom-metal/src/drivers/sifive_gpio0.c:64
20406ff0:	853e                	mv	a0,a5
20406ff2:	50b2                	lw	ra,44(sp)
20406ff4:	5422                	lw	s0,40(sp)
20406ff6:	6145                	addi	sp,sp,48
20406ff8:	8082                	ret

20406ffa <__metal_driver_sifive_gpio0_output_set>:
__metal_driver_sifive_gpio0_output_set():
C:/wsFreedomStudio/kernel/freedom-metal/src/drivers/sifive_gpio0.c:67
20406ffa:	7179                	addi	sp,sp,-48
20406ffc:	d606                	sw	ra,44(sp)
20406ffe:	d422                	sw	s0,40(sp)
20407000:	1800                	addi	s0,sp,48
20407002:	fca42e23          	sw	a0,-36(s0)
20407006:	fcb42c23          	sw	a1,-40(s0)
C:/wsFreedomStudio/kernel/freedom-metal/src/drivers/sifive_gpio0.c:68
2040700a:	fdc42503          	lw	a0,-36(s0)
2040700e:	c87ff0ef          	jal	ra,20406c94 <__metal_driver_sifive_gpio0_base>
20407012:	87aa                	mv	a5,a0
20407014:	fef42623          	sw	a5,-20(s0)
C:/wsFreedomStudio/kernel/freedom-metal/src/drivers/sifive_gpio0.c:70
20407018:	fec42783          	lw	a5,-20(s0)
2040701c:	07b1                	addi	a5,a5,12
2040701e:	4398                	lw	a4,0(a5)
20407020:	fd842783          	lw	a5,-40(s0)
20407024:	fec42683          	lw	a3,-20(s0)
20407028:	06b1                	addi	a3,a3,12
2040702a:	8fd9                	or	a5,a5,a4
2040702c:	c29c                	sw	a5,0(a3)
C:/wsFreedomStudio/kernel/freedom-metal/src/drivers/sifive_gpio0.c:73
2040702e:	4781                	li	a5,0
C:/wsFreedomStudio/kernel/freedom-metal/src/drivers/sifive_gpio0.c:74
20407030:	853e                	mv	a0,a5
20407032:	50b2                	lw	ra,44(sp)
20407034:	5422                	lw	s0,40(sp)
20407036:	6145                	addi	sp,sp,48
20407038:	8082                	ret

2040703a <__metal_driver_sifive_gpio0_output_clear>:
__metal_driver_sifive_gpio0_output_clear():
C:/wsFreedomStudio/kernel/freedom-metal/src/drivers/sifive_gpio0.c:77
2040703a:	7179                	addi	sp,sp,-48
2040703c:	d606                	sw	ra,44(sp)
2040703e:	d422                	sw	s0,40(sp)
20407040:	1800                	addi	s0,sp,48
20407042:	fca42e23          	sw	a0,-36(s0)
20407046:	fcb42c23          	sw	a1,-40(s0)
C:/wsFreedomStudio/kernel/freedom-metal/src/drivers/sifive_gpio0.c:78
2040704a:	fdc42503          	lw	a0,-36(s0)
2040704e:	c47ff0ef          	jal	ra,20406c94 <__metal_driver_sifive_gpio0_base>
20407052:	87aa                	mv	a5,a0
20407054:	fef42623          	sw	a5,-20(s0)
C:/wsFreedomStudio/kernel/freedom-metal/src/drivers/sifive_gpio0.c:80
20407058:	fec42783          	lw	a5,-20(s0)
2040705c:	07b1                	addi	a5,a5,12
2040705e:	439c                	lw	a5,0(a5)
C:/wsFreedomStudio/kernel/freedom-metal/src/drivers/sifive_gpio0.c:81
20407060:	fd842703          	lw	a4,-40(s0)
20407064:	fff74713          	not	a4,a4
20407068:	86ba                	mv	a3,a4
C:/wsFreedomStudio/kernel/freedom-metal/src/drivers/sifive_gpio0.c:80
2040706a:	fec42703          	lw	a4,-20(s0)
2040706e:	0731                	addi	a4,a4,12
20407070:	8ff5                	and	a5,a5,a3
20407072:	c31c                	sw	a5,0(a4)
C:/wsFreedomStudio/kernel/freedom-metal/src/drivers/sifive_gpio0.c:83
20407074:	4781                	li	a5,0
C:/wsFreedomStudio/kernel/freedom-metal/src/drivers/sifive_gpio0.c:84
20407076:	853e                	mv	a0,a5
20407078:	50b2                	lw	ra,44(sp)
2040707a:	5422                	lw	s0,40(sp)
2040707c:	6145                	addi	sp,sp,48
2040707e:	8082                	ret

20407080 <__metal_driver_sifive_gpio0_output_toggle>:
__metal_driver_sifive_gpio0_output_toggle():
C:/wsFreedomStudio/kernel/freedom-metal/src/drivers/sifive_gpio0.c:87
20407080:	7179                	addi	sp,sp,-48
20407082:	d606                	sw	ra,44(sp)
20407084:	d422                	sw	s0,40(sp)
20407086:	1800                	addi	s0,sp,48
20407088:	fca42e23          	sw	a0,-36(s0)
2040708c:	fcb42c23          	sw	a1,-40(s0)
C:/wsFreedomStudio/kernel/freedom-metal/src/drivers/sifive_gpio0.c:88
20407090:	fdc42503          	lw	a0,-36(s0)
20407094:	c01ff0ef          	jal	ra,20406c94 <__metal_driver_sifive_gpio0_base>
20407098:	87aa                	mv	a5,a0
2040709a:	fef42623          	sw	a5,-20(s0)
C:/wsFreedomStudio/kernel/freedom-metal/src/drivers/sifive_gpio0.c:91
2040709e:	fec42783          	lw	a5,-20(s0)
204070a2:	07b1                	addi	a5,a5,12
204070a4:	4398                	lw	a4,0(a5)
C:/wsFreedomStudio/kernel/freedom-metal/src/drivers/sifive_gpio0.c:92
204070a6:	fd842783          	lw	a5,-40(s0)
C:/wsFreedomStudio/kernel/freedom-metal/src/drivers/sifive_gpio0.c:90
204070aa:	fec42683          	lw	a3,-20(s0)
204070ae:	06b1                	addi	a3,a3,12
C:/wsFreedomStudio/kernel/freedom-metal/src/drivers/sifive_gpio0.c:92
204070b0:	8fb9                	xor	a5,a5,a4
C:/wsFreedomStudio/kernel/freedom-metal/src/drivers/sifive_gpio0.c:90
204070b2:	c29c                	sw	a5,0(a3)
C:/wsFreedomStudio/kernel/freedom-metal/src/drivers/sifive_gpio0.c:95
204070b4:	4781                	li	a5,0
C:/wsFreedomStudio/kernel/freedom-metal/src/drivers/sifive_gpio0.c:96
204070b6:	853e                	mv	a0,a5
204070b8:	50b2                	lw	ra,44(sp)
204070ba:	5422                	lw	s0,40(sp)
204070bc:	6145                	addi	sp,sp,48
204070be:	8082                	ret

204070c0 <__metal_driver_sifive_gpio0_enable_io>:
__metal_driver_sifive_gpio0_enable_io():
C:/wsFreedomStudio/kernel/freedom-metal/src/drivers/sifive_gpio0.c:99
204070c0:	7179                	addi	sp,sp,-48
204070c2:	d606                	sw	ra,44(sp)
204070c4:	d422                	sw	s0,40(sp)
204070c6:	1800                	addi	s0,sp,48
204070c8:	fca42e23          	sw	a0,-36(s0)
204070cc:	fcb42c23          	sw	a1,-40(s0)
204070d0:	fcc42a23          	sw	a2,-44(s0)
C:/wsFreedomStudio/kernel/freedom-metal/src/drivers/sifive_gpio0.c:100
204070d4:	fdc42503          	lw	a0,-36(s0)
204070d8:	bbdff0ef          	jal	ra,20406c94 <__metal_driver_sifive_gpio0_base>
204070dc:	87aa                	mv	a5,a0
204070de:	fef42623          	sw	a5,-20(s0)
C:/wsFreedomStudio/kernel/freedom-metal/src/drivers/sifive_gpio0.c:103
204070e2:	fec42783          	lw	a5,-20(s0)
204070e6:	03c78793          	addi	a5,a5,60
204070ea:	4398                	lw	a4,0(a5)
204070ec:	fd842783          	lw	a5,-40(s0)
204070f0:	fec42683          	lw	a3,-20(s0)
204070f4:	03c68693          	addi	a3,a3,60
204070f8:	8fd9                	or	a5,a5,a4
204070fa:	c29c                	sw	a5,0(a3)
C:/wsFreedomStudio/kernel/freedom-metal/src/drivers/sifive_gpio0.c:104
204070fc:	fec42783          	lw	a5,-20(s0)
20407100:	03878793          	addi	a5,a5,56
20407104:	4398                	lw	a4,0(a5)
20407106:	fd442783          	lw	a5,-44(s0)
2040710a:	fec42683          	lw	a3,-20(s0)
2040710e:	03868693          	addi	a3,a3,56
20407112:	8fd9                	or	a5,a5,a4
20407114:	c29c                	sw	a5,0(a3)
C:/wsFreedomStudio/kernel/freedom-metal/src/drivers/sifive_gpio0.c:107
20407116:	4781                	li	a5,0
C:/wsFreedomStudio/kernel/freedom-metal/src/drivers/sifive_gpio0.c:108
20407118:	853e                	mv	a0,a5
2040711a:	50b2                	lw	ra,44(sp)
2040711c:	5422                	lw	s0,40(sp)
2040711e:	6145                	addi	sp,sp,48
20407120:	8082                	ret

20407122 <__metal_driver_sifive_gpio0_disable_io>:
__metal_driver_sifive_gpio0_disable_io():
C:/wsFreedomStudio/kernel/freedom-metal/src/drivers/sifive_gpio0.c:111
20407122:	7179                	addi	sp,sp,-48
20407124:	d606                	sw	ra,44(sp)
20407126:	d422                	sw	s0,40(sp)
20407128:	1800                	addi	s0,sp,48
2040712a:	fca42e23          	sw	a0,-36(s0)
2040712e:	fcb42c23          	sw	a1,-40(s0)
C:/wsFreedomStudio/kernel/freedom-metal/src/drivers/sifive_gpio0.c:112
20407132:	fdc42503          	lw	a0,-36(s0)
20407136:	b5fff0ef          	jal	ra,20406c94 <__metal_driver_sifive_gpio0_base>
2040713a:	87aa                	mv	a5,a0
2040713c:	fef42623          	sw	a5,-20(s0)
C:/wsFreedomStudio/kernel/freedom-metal/src/drivers/sifive_gpio0.c:114
20407140:	fec42783          	lw	a5,-20(s0)
20407144:	03878793          	addi	a5,a5,56
20407148:	439c                	lw	a5,0(a5)
C:/wsFreedomStudio/kernel/freedom-metal/src/drivers/sifive_gpio0.c:115
2040714a:	fd842703          	lw	a4,-40(s0)
2040714e:	fff74713          	not	a4,a4
20407152:	86ba                	mv	a3,a4
C:/wsFreedomStudio/kernel/freedom-metal/src/drivers/sifive_gpio0.c:114
20407154:	fec42703          	lw	a4,-20(s0)
20407158:	03870713          	addi	a4,a4,56
2040715c:	8ff5                	and	a5,a5,a3
2040715e:	c31c                	sw	a5,0(a4)
C:/wsFreedomStudio/kernel/freedom-metal/src/drivers/sifive_gpio0.c:117
20407160:	4781                	li	a5,0
C:/wsFreedomStudio/kernel/freedom-metal/src/drivers/sifive_gpio0.c:118
20407162:	853e                	mv	a0,a5
20407164:	50b2                	lw	ra,44(sp)
20407166:	5422                	lw	s0,40(sp)
20407168:	6145                	addi	sp,sp,48
2040716a:	8082                	ret

2040716c <__metal_driver_sifive_gpio0_config_int>:
__metal_driver_sifive_gpio0_config_int():
C:/wsFreedomStudio/kernel/freedom-metal/src/drivers/sifive_gpio0.c:121
2040716c:	7179                	addi	sp,sp,-48
2040716e:	d606                	sw	ra,44(sp)
20407170:	d422                	sw	s0,40(sp)
20407172:	1800                	addi	s0,sp,48
20407174:	fca42e23          	sw	a0,-36(s0)
20407178:	fcb42c23          	sw	a1,-40(s0)
2040717c:	fcc42a23          	sw	a2,-44(s0)
C:/wsFreedomStudio/kernel/freedom-metal/src/drivers/sifive_gpio0.c:122
20407180:	fdc42503          	lw	a0,-36(s0)
20407184:	b11ff0ef          	jal	ra,20406c94 <__metal_driver_sifive_gpio0_base>
20407188:	87aa                	mv	a5,a0
2040718a:	fef42623          	sw	a5,-20(s0)
2040718e:	fd442703          	lw	a4,-44(s0)
20407192:	479d                	li	a5,7
20407194:	1ce7e963          	bltu	a5,a4,20407366 <__metal_driver_sifive_gpio0_config_int+0x1fa>
20407198:	fd442783          	lw	a5,-44(s0)
2040719c:	00279713          	slli	a4,a5,0x2
204071a0:	204017b7          	lui	a5,0x20401
204071a4:	03078793          	addi	a5,a5,48 # 20401030 <__metal_driver_vtable_sifive_fe310_g000_pll+0xc>
204071a8:	97ba                	add	a5,a5,a4
204071aa:	439c                	lw	a5,0(a5)
204071ac:	8782                	jr	a5
C:/wsFreedomStudio/kernel/freedom-metal/src/drivers/sifive_gpio0.c:127
204071ae:	fec42783          	lw	a5,-20(s0)
204071b2:	07e1                	addi	a5,a5,24
204071b4:	439c                	lw	a5,0(a5)
204071b6:	fd842703          	lw	a4,-40(s0)
204071ba:	fff74713          	not	a4,a4
204071be:	86ba                	mv	a3,a4
204071c0:	fec42703          	lw	a4,-20(s0)
204071c4:	0761                	addi	a4,a4,24
204071c6:	8ff5                	and	a5,a5,a3
204071c8:	c31c                	sw	a5,0(a4)
C:/wsFreedomStudio/kernel/freedom-metal/src/drivers/sifive_gpio0.c:129
204071ca:	fec42783          	lw	a5,-20(s0)
204071ce:	02078793          	addi	a5,a5,32
204071d2:	439c                	lw	a5,0(a5)
204071d4:	fd842703          	lw	a4,-40(s0)
204071d8:	fff74713          	not	a4,a4
204071dc:	86ba                	mv	a3,a4
204071de:	fec42703          	lw	a4,-20(s0)
204071e2:	02070713          	addi	a4,a4,32
204071e6:	8ff5                	and	a5,a5,a3
204071e8:	c31c                	sw	a5,0(a4)
C:/wsFreedomStudio/kernel/freedom-metal/src/drivers/sifive_gpio0.c:131
204071ea:	fec42783          	lw	a5,-20(s0)
204071ee:	02878793          	addi	a5,a5,40
204071f2:	439c                	lw	a5,0(a5)
204071f4:	fd842703          	lw	a4,-40(s0)
204071f8:	fff74713          	not	a4,a4
204071fc:	86ba                	mv	a3,a4
204071fe:	fec42703          	lw	a4,-20(s0)
20407202:	02870713          	addi	a4,a4,40
20407206:	8ff5                	and	a5,a5,a3
20407208:	c31c                	sw	a5,0(a4)
C:/wsFreedomStudio/kernel/freedom-metal/src/drivers/sifive_gpio0.c:133
2040720a:	fec42783          	lw	a5,-20(s0)
2040720e:	03078793          	addi	a5,a5,48
20407212:	439c                	lw	a5,0(a5)
20407214:	fd842703          	lw	a4,-40(s0)
20407218:	fff74713          	not	a4,a4
2040721c:	86ba                	mv	a3,a4
2040721e:	fec42703          	lw	a4,-20(s0)
20407222:	03070713          	addi	a4,a4,48
20407226:	8ff5                	and	a5,a5,a3
20407228:	c31c                	sw	a5,0(a4)
C:/wsFreedomStudio/kernel/freedom-metal/src/drivers/sifive_gpio0.c:134
2040722a:	aa35                	j	20407366 <__metal_driver_sifive_gpio0_config_int+0x1fa>
C:/wsFreedomStudio/kernel/freedom-metal/src/drivers/sifive_gpio0.c:137
2040722c:	fec42783          	lw	a5,-20(s0)
20407230:	07e1                	addi	a5,a5,24
20407232:	4398                	lw	a4,0(a5)
20407234:	fd842783          	lw	a5,-40(s0)
20407238:	fec42683          	lw	a3,-20(s0)
2040723c:	06e1                	addi	a3,a3,24
2040723e:	8fd9                	or	a5,a5,a4
20407240:	c29c                	sw	a5,0(a3)
C:/wsFreedomStudio/kernel/freedom-metal/src/drivers/sifive_gpio0.c:138
20407242:	a215                	j	20407366 <__metal_driver_sifive_gpio0_config_int+0x1fa>
C:/wsFreedomStudio/kernel/freedom-metal/src/drivers/sifive_gpio0.c:141
20407244:	fec42783          	lw	a5,-20(s0)
20407248:	02078793          	addi	a5,a5,32
2040724c:	4398                	lw	a4,0(a5)
2040724e:	fd842783          	lw	a5,-40(s0)
20407252:	fec42683          	lw	a3,-20(s0)
20407256:	02068693          	addi	a3,a3,32
2040725a:	8fd9                	or	a5,a5,a4
2040725c:	c29c                	sw	a5,0(a3)
C:/wsFreedomStudio/kernel/freedom-metal/src/drivers/sifive_gpio0.c:142
2040725e:	a221                	j	20407366 <__metal_driver_sifive_gpio0_config_int+0x1fa>
C:/wsFreedomStudio/kernel/freedom-metal/src/drivers/sifive_gpio0.c:145
20407260:	fec42783          	lw	a5,-20(s0)
20407264:	07e1                	addi	a5,a5,24
20407266:	4398                	lw	a4,0(a5)
20407268:	fd842783          	lw	a5,-40(s0)
2040726c:	fec42683          	lw	a3,-20(s0)
20407270:	06e1                	addi	a3,a3,24
20407272:	8fd9                	or	a5,a5,a4
20407274:	c29c                	sw	a5,0(a3)
C:/wsFreedomStudio/kernel/freedom-metal/src/drivers/sifive_gpio0.c:147
20407276:	fec42783          	lw	a5,-20(s0)
2040727a:	02078793          	addi	a5,a5,32
2040727e:	4398                	lw	a4,0(a5)
20407280:	fd842783          	lw	a5,-40(s0)
20407284:	fec42683          	lw	a3,-20(s0)
20407288:	02068693          	addi	a3,a3,32
2040728c:	8fd9                	or	a5,a5,a4
2040728e:	c29c                	sw	a5,0(a3)
C:/wsFreedomStudio/kernel/freedom-metal/src/drivers/sifive_gpio0.c:148
20407290:	a8d9                	j	20407366 <__metal_driver_sifive_gpio0_config_int+0x1fa>
C:/wsFreedomStudio/kernel/freedom-metal/src/drivers/sifive_gpio0.c:151
20407292:	fec42783          	lw	a5,-20(s0)
20407296:	02878793          	addi	a5,a5,40
2040729a:	4398                	lw	a4,0(a5)
2040729c:	fd842783          	lw	a5,-40(s0)
204072a0:	fec42683          	lw	a3,-20(s0)
204072a4:	02868693          	addi	a3,a3,40
204072a8:	8fd9                	or	a5,a5,a4
204072aa:	c29c                	sw	a5,0(a3)
C:/wsFreedomStudio/kernel/freedom-metal/src/drivers/sifive_gpio0.c:152
204072ac:	a86d                	j	20407366 <__metal_driver_sifive_gpio0_config_int+0x1fa>
C:/wsFreedomStudio/kernel/freedom-metal/src/drivers/sifive_gpio0.c:155
204072ae:	fec42783          	lw	a5,-20(s0)
204072b2:	03078793          	addi	a5,a5,48
204072b6:	4398                	lw	a4,0(a5)
204072b8:	fd842783          	lw	a5,-40(s0)
204072bc:	fec42683          	lw	a3,-20(s0)
204072c0:	03068693          	addi	a3,a3,48
204072c4:	8fd9                	or	a5,a5,a4
204072c6:	c29c                	sw	a5,0(a3)
C:/wsFreedomStudio/kernel/freedom-metal/src/drivers/sifive_gpio0.c:156
204072c8:	a879                	j	20407366 <__metal_driver_sifive_gpio0_config_int+0x1fa>
C:/wsFreedomStudio/kernel/freedom-metal/src/drivers/sifive_gpio0.c:159
204072ca:	fec42783          	lw	a5,-20(s0)
204072ce:	02878793          	addi	a5,a5,40
204072d2:	4398                	lw	a4,0(a5)
204072d4:	fd842783          	lw	a5,-40(s0)
204072d8:	fec42683          	lw	a3,-20(s0)
204072dc:	02868693          	addi	a3,a3,40
204072e0:	8fd9                	or	a5,a5,a4
204072e2:	c29c                	sw	a5,0(a3)
C:/wsFreedomStudio/kernel/freedom-metal/src/drivers/sifive_gpio0.c:161
204072e4:	fec42783          	lw	a5,-20(s0)
204072e8:	03078793          	addi	a5,a5,48
204072ec:	4398                	lw	a4,0(a5)
204072ee:	fd842783          	lw	a5,-40(s0)
204072f2:	fec42683          	lw	a3,-20(s0)
204072f6:	03068693          	addi	a3,a3,48
204072fa:	8fd9                	or	a5,a5,a4
204072fc:	c29c                	sw	a5,0(a3)
C:/wsFreedomStudio/kernel/freedom-metal/src/drivers/sifive_gpio0.c:162
204072fe:	a0a5                	j	20407366 <__metal_driver_sifive_gpio0_config_int+0x1fa>
C:/wsFreedomStudio/kernel/freedom-metal/src/drivers/sifive_gpio0.c:165
20407300:	fec42783          	lw	a5,-20(s0)
20407304:	07e1                	addi	a5,a5,24
20407306:	4398                	lw	a4,0(a5)
20407308:	fd842783          	lw	a5,-40(s0)
2040730c:	fec42683          	lw	a3,-20(s0)
20407310:	06e1                	addi	a3,a3,24
20407312:	8fd9                	or	a5,a5,a4
20407314:	c29c                	sw	a5,0(a3)
C:/wsFreedomStudio/kernel/freedom-metal/src/drivers/sifive_gpio0.c:167
20407316:	fec42783          	lw	a5,-20(s0)
2040731a:	02078793          	addi	a5,a5,32
2040731e:	4398                	lw	a4,0(a5)
20407320:	fd842783          	lw	a5,-40(s0)
20407324:	fec42683          	lw	a3,-20(s0)
20407328:	02068693          	addi	a3,a3,32
2040732c:	8fd9                	or	a5,a5,a4
2040732e:	c29c                	sw	a5,0(a3)
C:/wsFreedomStudio/kernel/freedom-metal/src/drivers/sifive_gpio0.c:169
20407330:	fec42783          	lw	a5,-20(s0)
20407334:	02878793          	addi	a5,a5,40
20407338:	4398                	lw	a4,0(a5)
2040733a:	fd842783          	lw	a5,-40(s0)
2040733e:	fec42683          	lw	a3,-20(s0)
20407342:	02868693          	addi	a3,a3,40
20407346:	8fd9                	or	a5,a5,a4
20407348:	c29c                	sw	a5,0(a3)
C:/wsFreedomStudio/kernel/freedom-metal/src/drivers/sifive_gpio0.c:171
2040734a:	fec42783          	lw	a5,-20(s0)
2040734e:	03078793          	addi	a5,a5,48
20407352:	4398                	lw	a4,0(a5)
20407354:	fd842783          	lw	a5,-40(s0)
20407358:	fec42683          	lw	a3,-20(s0)
2040735c:	03068693          	addi	a3,a3,48
20407360:	8fd9                	or	a5,a5,a4
20407362:	c29c                	sw	a5,0(a3)
C:/wsFreedomStudio/kernel/freedom-metal/src/drivers/sifive_gpio0.c:172
20407364:	0001                	nop
C:/wsFreedomStudio/kernel/freedom-metal/src/drivers/sifive_gpio0.c:174
20407366:	4781                	li	a5,0
C:/wsFreedomStudio/kernel/freedom-metal/src/drivers/sifive_gpio0.c:175
20407368:	853e                	mv	a0,a5
2040736a:	50b2                	lw	ra,44(sp)
2040736c:	5422                	lw	s0,40(sp)
2040736e:	6145                	addi	sp,sp,48
20407370:	8082                	ret

20407372 <__metal_driver_sifive_gpio0_clear_int>:
__metal_driver_sifive_gpio0_clear_int():
C:/wsFreedomStudio/kernel/freedom-metal/src/drivers/sifive_gpio0.c:178
20407372:	7179                	addi	sp,sp,-48
20407374:	d606                	sw	ra,44(sp)
20407376:	d422                	sw	s0,40(sp)
20407378:	1800                	addi	s0,sp,48
2040737a:	fca42e23          	sw	a0,-36(s0)
2040737e:	fcb42c23          	sw	a1,-40(s0)
20407382:	fcc42a23          	sw	a2,-44(s0)
C:/wsFreedomStudio/kernel/freedom-metal/src/drivers/sifive_gpio0.c:179
20407386:	fdc42503          	lw	a0,-36(s0)
2040738a:	90bff0ef          	jal	ra,20406c94 <__metal_driver_sifive_gpio0_base>
2040738e:	87aa                	mv	a5,a0
20407390:	fef42623          	sw	a5,-20(s0)
20407394:	fd442703          	lw	a4,-44(s0)
20407398:	479d                	li	a5,7
2040739a:	14e7ea63          	bltu	a5,a4,204074ee <__metal_driver_sifive_gpio0_clear_int+0x17c>
2040739e:	fd442783          	lw	a5,-44(s0)
204073a2:	00279713          	slli	a4,a5,0x2
204073a6:	204017b7          	lui	a5,0x20401
204073aa:	05078793          	addi	a5,a5,80 # 20401050 <__metal_driver_vtable_sifive_fe310_g000_pll+0x2c>
204073ae:	97ba                	add	a5,a5,a4
204073b0:	439c                	lw	a5,0(a5)
204073b2:	8782                	jr	a5
C:/wsFreedomStudio/kernel/freedom-metal/src/drivers/sifive_gpio0.c:184
204073b4:	fec42783          	lw	a5,-20(s0)
204073b8:	07f1                	addi	a5,a5,28
204073ba:	4398                	lw	a4,0(a5)
204073bc:	fd842783          	lw	a5,-40(s0)
204073c0:	fec42683          	lw	a3,-20(s0)
204073c4:	06f1                	addi	a3,a3,28
204073c6:	8fd9                	or	a5,a5,a4
204073c8:	c29c                	sw	a5,0(a3)
C:/wsFreedomStudio/kernel/freedom-metal/src/drivers/sifive_gpio0.c:185
204073ca:	a215                	j	204074ee <__metal_driver_sifive_gpio0_clear_int+0x17c>
C:/wsFreedomStudio/kernel/freedom-metal/src/drivers/sifive_gpio0.c:188
204073cc:	fec42783          	lw	a5,-20(s0)
204073d0:	02478793          	addi	a5,a5,36
204073d4:	4398                	lw	a4,0(a5)
204073d6:	fd842783          	lw	a5,-40(s0)
204073da:	fec42683          	lw	a3,-20(s0)
204073de:	02468693          	addi	a3,a3,36
204073e2:	8fd9                	or	a5,a5,a4
204073e4:	c29c                	sw	a5,0(a3)
C:/wsFreedomStudio/kernel/freedom-metal/src/drivers/sifive_gpio0.c:189
204073e6:	a221                	j	204074ee <__metal_driver_sifive_gpio0_clear_int+0x17c>
C:/wsFreedomStudio/kernel/freedom-metal/src/drivers/sifive_gpio0.c:192
204073e8:	fec42783          	lw	a5,-20(s0)
204073ec:	07f1                	addi	a5,a5,28
204073ee:	4398                	lw	a4,0(a5)
204073f0:	fd842783          	lw	a5,-40(s0)
204073f4:	fec42683          	lw	a3,-20(s0)
204073f8:	06f1                	addi	a3,a3,28
204073fa:	8fd9                	or	a5,a5,a4
204073fc:	c29c                	sw	a5,0(a3)
C:/wsFreedomStudio/kernel/freedom-metal/src/drivers/sifive_gpio0.c:194
204073fe:	fec42783          	lw	a5,-20(s0)
20407402:	02478793          	addi	a5,a5,36
20407406:	4398                	lw	a4,0(a5)
20407408:	fd842783          	lw	a5,-40(s0)
2040740c:	fec42683          	lw	a3,-20(s0)
20407410:	02468693          	addi	a3,a3,36
20407414:	8fd9                	or	a5,a5,a4
20407416:	c29c                	sw	a5,0(a3)
C:/wsFreedomStudio/kernel/freedom-metal/src/drivers/sifive_gpio0.c:195
20407418:	a8d9                	j	204074ee <__metal_driver_sifive_gpio0_clear_int+0x17c>
C:/wsFreedomStudio/kernel/freedom-metal/src/drivers/sifive_gpio0.c:198
2040741a:	fec42783          	lw	a5,-20(s0)
2040741e:	02c78793          	addi	a5,a5,44
20407422:	4398                	lw	a4,0(a5)
20407424:	fd842783          	lw	a5,-40(s0)
20407428:	fec42683          	lw	a3,-20(s0)
2040742c:	02c68693          	addi	a3,a3,44
20407430:	8fd9                	or	a5,a5,a4
20407432:	c29c                	sw	a5,0(a3)
C:/wsFreedomStudio/kernel/freedom-metal/src/drivers/sifive_gpio0.c:199
20407434:	a86d                	j	204074ee <__metal_driver_sifive_gpio0_clear_int+0x17c>
C:/wsFreedomStudio/kernel/freedom-metal/src/drivers/sifive_gpio0.c:202
20407436:	fec42783          	lw	a5,-20(s0)
2040743a:	03478793          	addi	a5,a5,52
2040743e:	4398                	lw	a4,0(a5)
20407440:	fd842783          	lw	a5,-40(s0)
20407444:	fec42683          	lw	a3,-20(s0)
20407448:	03468693          	addi	a3,a3,52
2040744c:	8fd9                	or	a5,a5,a4
2040744e:	c29c                	sw	a5,0(a3)
C:/wsFreedomStudio/kernel/freedom-metal/src/drivers/sifive_gpio0.c:203
20407450:	a879                	j	204074ee <__metal_driver_sifive_gpio0_clear_int+0x17c>
C:/wsFreedomStudio/kernel/freedom-metal/src/drivers/sifive_gpio0.c:206
20407452:	fec42783          	lw	a5,-20(s0)
20407456:	02c78793          	addi	a5,a5,44
2040745a:	4398                	lw	a4,0(a5)
2040745c:	fd842783          	lw	a5,-40(s0)
20407460:	fec42683          	lw	a3,-20(s0)
20407464:	02c68693          	addi	a3,a3,44
20407468:	8fd9                	or	a5,a5,a4
2040746a:	c29c                	sw	a5,0(a3)
C:/wsFreedomStudio/kernel/freedom-metal/src/drivers/sifive_gpio0.c:208
2040746c:	fec42783          	lw	a5,-20(s0)
20407470:	03478793          	addi	a5,a5,52
20407474:	4398                	lw	a4,0(a5)
20407476:	fd842783          	lw	a5,-40(s0)
2040747a:	fec42683          	lw	a3,-20(s0)
2040747e:	03468693          	addi	a3,a3,52
20407482:	8fd9                	or	a5,a5,a4
20407484:	c29c                	sw	a5,0(a3)
C:/wsFreedomStudio/kernel/freedom-metal/src/drivers/sifive_gpio0.c:209
20407486:	a0a5                	j	204074ee <__metal_driver_sifive_gpio0_clear_int+0x17c>
C:/wsFreedomStudio/kernel/freedom-metal/src/drivers/sifive_gpio0.c:212
20407488:	fec42783          	lw	a5,-20(s0)
2040748c:	07f1                	addi	a5,a5,28
2040748e:	4398                	lw	a4,0(a5)
20407490:	fd842783          	lw	a5,-40(s0)
20407494:	fec42683          	lw	a3,-20(s0)
20407498:	06f1                	addi	a3,a3,28
2040749a:	8fd9                	or	a5,a5,a4
2040749c:	c29c                	sw	a5,0(a3)
C:/wsFreedomStudio/kernel/freedom-metal/src/drivers/sifive_gpio0.c:214
2040749e:	fec42783          	lw	a5,-20(s0)
204074a2:	02478793          	addi	a5,a5,36
204074a6:	4398                	lw	a4,0(a5)
204074a8:	fd842783          	lw	a5,-40(s0)
204074ac:	fec42683          	lw	a3,-20(s0)
204074b0:	02468693          	addi	a3,a3,36
204074b4:	8fd9                	or	a5,a5,a4
204074b6:	c29c                	sw	a5,0(a3)
C:/wsFreedomStudio/kernel/freedom-metal/src/drivers/sifive_gpio0.c:216
204074b8:	fec42783          	lw	a5,-20(s0)
204074bc:	02c78793          	addi	a5,a5,44
204074c0:	4398                	lw	a4,0(a5)
204074c2:	fd842783          	lw	a5,-40(s0)
204074c6:	fec42683          	lw	a3,-20(s0)
204074ca:	02c68693          	addi	a3,a3,44
204074ce:	8fd9                	or	a5,a5,a4
204074d0:	c29c                	sw	a5,0(a3)
C:/wsFreedomStudio/kernel/freedom-metal/src/drivers/sifive_gpio0.c:218
204074d2:	fec42783          	lw	a5,-20(s0)
204074d6:	03478793          	addi	a5,a5,52
204074da:	4398                	lw	a4,0(a5)
204074dc:	fd842783          	lw	a5,-40(s0)
204074e0:	fec42683          	lw	a3,-20(s0)
204074e4:	03468693          	addi	a3,a3,52
204074e8:	8fd9                	or	a5,a5,a4
204074ea:	c29c                	sw	a5,0(a3)
C:/wsFreedomStudio/kernel/freedom-metal/src/drivers/sifive_gpio0.c:219
204074ec:	0001                	nop
C:/wsFreedomStudio/kernel/freedom-metal/src/drivers/sifive_gpio0.c:221
204074ee:	4781                	li	a5,0
C:/wsFreedomStudio/kernel/freedom-metal/src/drivers/sifive_gpio0.c:222
204074f0:	853e                	mv	a0,a5
204074f2:	50b2                	lw	ra,44(sp)
204074f4:	5422                	lw	s0,40(sp)
204074f6:	6145                	addi	sp,sp,48
204074f8:	8082                	ret

204074fa <__metal_driver_gpio_interrupt_controller>:
__metal_driver_gpio_interrupt_controller():
C:/wsFreedomStudio/kernel/freedom-metal/src/drivers/sifive_gpio0.c:225
204074fa:	1101                	addi	sp,sp,-32
204074fc:	ce06                	sw	ra,28(sp)
204074fe:	cc22                	sw	s0,24(sp)
20407500:	1000                	addi	s0,sp,32
20407502:	fea42623          	sw	a0,-20(s0)
C:/wsFreedomStudio/kernel/freedom-metal/src/drivers/sifive_gpio0.c:226
20407506:	fec42503          	lw	a0,-20(s0)
2040750a:	fb0ff0ef          	jal	ra,20406cba <__metal_driver_sifive_gpio0_interrupt_parent>
2040750e:	87aa                	mv	a5,a0
C:/wsFreedomStudio/kernel/freedom-metal/src/drivers/sifive_gpio0.c:227
20407510:	853e                	mv	a0,a5
20407512:	40f2                	lw	ra,28(sp)
20407514:	4462                	lw	s0,24(sp)
20407516:	6105                	addi	sp,sp,32
20407518:	8082                	ret

2040751a <__metal_driver_gpio_get_interrupt_id>:
__metal_driver_gpio_get_interrupt_id():
C:/wsFreedomStudio/kernel/freedom-metal/src/drivers/sifive_gpio0.c:229
2040751a:	7179                	addi	sp,sp,-48
2040751c:	d606                	sw	ra,44(sp)
2040751e:	d422                	sw	s0,40(sp)
20407520:	1800                	addi	s0,sp,48
20407522:	fca42e23          	sw	a0,-36(s0)
20407526:	fcb42c23          	sw	a1,-40(s0)
C:/wsFreedomStudio/kernel/freedom-metal/src/drivers/sifive_gpio0.c:231
2040752a:	fd842583          	lw	a1,-40(s0)
2040752e:	fdc42503          	lw	a0,-36(s0)
20407532:	fb2ff0ef          	jal	ra,20406ce4 <__metal_driver_sifive_gpio0_interrupt_lines>
20407536:	fea42623          	sw	a0,-20(s0)
C:/wsFreedomStudio/kernel/freedom-metal/src/drivers/sifive_gpio0.c:232
2040753a:	fec42783          	lw	a5,-20(s0)
C:/wsFreedomStudio/kernel/freedom-metal/src/drivers/sifive_gpio0.c:233
2040753e:	853e                	mv	a0,a5
20407540:	50b2                	lw	ra,44(sp)
20407542:	5422                	lw	s0,40(sp)
20407544:	6145                	addi	sp,sp,48
20407546:	8082                	ret

20407548 <__metal_driver_sifive_test0_base>:
__metal_driver_sifive_test0_base():
C:\wsFreedomStudio\kernel\bsp\build\debug/./metal/machine.h:863
20407548:	1101                	addi	sp,sp,-32
2040754a:	ce22                	sw	s0,28(sp)
2040754c:	1000                	addi	s0,sp,32
2040754e:	fea42623          	sw	a0,-20(s0)
C:\wsFreedomStudio\kernel\bsp\build\debug/./metal/machine.h:864
20407552:	fec42703          	lw	a4,-20(s0)
20407556:	82018793          	addi	a5,gp,-2016 # 800007c0 <__metal_dt_test_100000>
2040755a:	00f71563          	bne	a4,a5,20407564 <__metal_driver_sifive_test0_base+0x1c>
C:\wsFreedomStudio\kernel\bsp\build\debug/./metal/machine.h:865
2040755e:	001007b7          	lui	a5,0x100
20407562:	a011                	j	20407566 <__metal_driver_sifive_test0_base+0x1e>
C:\wsFreedomStudio\kernel\bsp\build\debug/./metal/machine.h:868
20407564:	4781                	li	a5,0
C:\wsFreedomStudio\kernel\bsp\build\debug/./metal/machine.h:870
20407566:	853e                	mv	a0,a5
20407568:	4472                	lw	s0,28(sp)
2040756a:	6105                	addi	sp,sp,32
2040756c:	8082                	ret

2040756e <__metal_driver_sifive_test0_exit>:
__metal_driver_sifive_test0_exit():
C:/wsFreedomStudio/kernel/freedom-metal/src/drivers/sifive_test0.c:18
2040756e:	7179                	addi	sp,sp,-48
20407570:	d606                	sw	ra,44(sp)
20407572:	d422                	sw	s0,40(sp)
20407574:	1800                	addi	s0,sp,48
20407576:	fca42e23          	sw	a0,-36(s0)
2040757a:	fcb42c23          	sw	a1,-40(s0)
C:/wsFreedomStudio/kernel/freedom-metal/src/drivers/sifive_test0.c:19
2040757e:	fdc42503          	lw	a0,-36(s0)
20407582:	37d9                	jal	20407548 <__metal_driver_sifive_test0_base>
20407584:	87aa                	mv	a5,a0
20407586:	fef42623          	sw	a5,-20(s0)
C:/wsFreedomStudio/kernel/freedom-metal/src/drivers/sifive_test0.c:20
2040758a:	fd842783          	lw	a5,-40(s0)
2040758e:	01079713          	slli	a4,a5,0x10
20407592:	fd842783          	lw	a5,-40(s0)
20407596:	e789                	bnez	a5,204075a0 <__metal_driver_sifive_test0_exit+0x32>
C:/wsFreedomStudio/kernel/freedom-metal/src/drivers/sifive_test0.c:20 (discriminator 1)
20407598:	6795                	lui	a5,0x5
2040759a:	55578793          	addi	a5,a5,1365 # 5555 <__heap_size+0x4d55>
2040759e:	a021                	j	204075a6 <__metal_driver_sifive_test0_exit+0x38>
C:/wsFreedomStudio/kernel/freedom-metal/src/drivers/sifive_test0.c:20 (discriminator 2)
204075a0:	678d                	lui	a5,0x3
204075a2:	33378793          	addi	a5,a5,819 # 3333 <__heap_size+0x2b33>
C:/wsFreedomStudio/kernel/freedom-metal/src/drivers/sifive_test0.c:20 (discriminator 4)
204075a6:	97ba                	add	a5,a5,a4
204075a8:	fef42423          	sw	a5,-24(s0)
C:/wsFreedomStudio/kernel/freedom-metal/src/drivers/sifive_test0.c:22 (discriminator 1)
204075ac:	fec42783          	lw	a5,-20(s0)
C:/wsFreedomStudio/kernel/freedom-metal/src/drivers/sifive_test0.c:23 (discriminator 1)
204075b0:	fe842703          	lw	a4,-24(s0)
204075b4:	c398                	sw	a4,0(a5)
204075b6:	bfdd                	j	204075ac <__metal_driver_sifive_test0_exit+0x3e>

204075b8 <__metal_driver_sifive_uart0_control_base>:
__metal_driver_sifive_uart0_control_base():
C:\wsFreedomStudio\kernel\bsp\build\debug/./metal/machine.h:888
204075b8:	1101                	addi	sp,sp,-32
204075ba:	ce22                	sw	s0,28(sp)
204075bc:	1000                	addi	s0,sp,32
204075be:	fea42623          	sw	a0,-20(s0)
C:\wsFreedomStudio\kernel\bsp\build\debug/./metal/machine.h:889
204075c2:	fec42703          	lw	a4,-20(s0)
204075c6:	800007b7          	lui	a5,0x80000
204075ca:	75878793          	addi	a5,a5,1880 # 80000758 <metal_segment_heap_target_end+0xffffec88>
204075ce:	00f71563          	bne	a4,a5,204075d8 <__metal_driver_sifive_uart0_control_base+0x20>
C:\wsFreedomStudio\kernel\bsp\build\debug/./metal/machine.h:890
204075d2:	100137b7          	lui	a5,0x10013
204075d6:	a011                	j	204075da <__metal_driver_sifive_uart0_control_base+0x22>
C:\wsFreedomStudio\kernel\bsp\build\debug/./metal/machine.h:893
204075d8:	4781                	li	a5,0
C:\wsFreedomStudio\kernel\bsp\build\debug/./metal/machine.h:895
204075da:	853e                	mv	a0,a5
204075dc:	4472                	lw	s0,28(sp)
204075de:	6105                	addi	sp,sp,32
204075e0:	8082                	ret

204075e2 <__metal_driver_sifive_uart0_interrupt_parent>:
__metal_driver_sifive_uart0_interrupt_parent():
C:\wsFreedomStudio\kernel\bsp\build\debug/./metal/machine.h:918
204075e2:	1101                	addi	sp,sp,-32
204075e4:	ce22                	sw	s0,28(sp)
204075e6:	1000                	addi	s0,sp,32
204075e8:	fea42623          	sw	a0,-20(s0)
C:\wsFreedomStudio\kernel\bsp\build\debug/./metal/machine.h:919
204075ec:	fec42703          	lw	a4,-20(s0)
204075f0:	800007b7          	lui	a5,0x80000
204075f4:	75878793          	addi	a5,a5,1880 # 80000758 <metal_segment_heap_target_end+0xffffec88>
204075f8:	00f71763          	bne	a4,a5,20407606 <__metal_driver_sifive_uart0_interrupt_parent+0x24>
C:\wsFreedomStudio\kernel\bsp\build\debug/./metal/machine.h:920
204075fc:	800007b7          	lui	a5,0x80000
20407600:	45878793          	addi	a5,a5,1112 # 80000458 <metal_segment_heap_target_end+0xffffe988>
20407604:	a011                	j	20407608 <__metal_driver_sifive_uart0_interrupt_parent+0x26>
C:\wsFreedomStudio\kernel\bsp\build\debug/./metal/machine.h:923
20407606:	4781                	li	a5,0
C:\wsFreedomStudio\kernel\bsp\build\debug/./metal/machine.h:925
20407608:	853e                	mv	a0,a5
2040760a:	4472                	lw	s0,28(sp)
2040760c:	6105                	addi	sp,sp,32
2040760e:	8082                	ret

20407610 <__metal_driver_sifive_uart0_interrupt_line>:
__metal_driver_sifive_uart0_interrupt_line():
C:\wsFreedomStudio\kernel\bsp\build\debug/./metal/machine.h:928
20407610:	1101                	addi	sp,sp,-32
20407612:	ce22                	sw	s0,28(sp)
20407614:	1000                	addi	s0,sp,32
20407616:	fea42623          	sw	a0,-20(s0)
C:\wsFreedomStudio\kernel\bsp\build\debug/./metal/machine.h:929
2040761a:	fec42703          	lw	a4,-20(s0)
2040761e:	800007b7          	lui	a5,0x80000
20407622:	75878793          	addi	a5,a5,1880 # 80000758 <metal_segment_heap_target_end+0xffffec88>
20407626:	00f71463          	bne	a4,a5,2040762e <__metal_driver_sifive_uart0_interrupt_line+0x1e>
C:\wsFreedomStudio\kernel\bsp\build\debug/./metal/machine.h:930
2040762a:	4795                	li	a5,5
2040762c:	a011                	j	20407630 <__metal_driver_sifive_uart0_interrupt_line+0x20>
C:\wsFreedomStudio\kernel\bsp\build\debug/./metal/machine.h:933
2040762e:	4781                	li	a5,0
C:\wsFreedomStudio\kernel\bsp\build\debug/./metal/machine.h:935
20407630:	853e                	mv	a0,a5
20407632:	4472                	lw	s0,28(sp)
20407634:	6105                	addi	sp,sp,32
20407636:	8082                	ret

20407638 <__metal_driver_sifive_uart0_clock>:
__metal_driver_sifive_uart0_clock():
C:\wsFreedomStudio\kernel\bsp\build\debug/./metal/machine.h:938
20407638:	1101                	addi	sp,sp,-32
2040763a:	ce22                	sw	s0,28(sp)
2040763c:	1000                	addi	s0,sp,32
2040763e:	fea42623          	sw	a0,-20(s0)
C:\wsFreedomStudio\kernel\bsp\build\debug/./metal/machine.h:939
20407642:	fec42703          	lw	a4,-20(s0)
20407646:	800007b7          	lui	a5,0x80000
2040764a:	75878793          	addi	a5,a5,1880 # 80000758 <metal_segment_heap_target_end+0xffffec88>
2040764e:	00f71763          	bne	a4,a5,2040765c <__metal_driver_sifive_uart0_clock+0x24>
C:\wsFreedomStudio\kernel\bsp\build\debug/./metal/machine.h:940
20407652:	800007b7          	lui	a5,0x80000
20407656:	79078793          	addi	a5,a5,1936 # 80000790 <metal_segment_heap_target_end+0xffffecc0>
2040765a:	a011                	j	2040765e <__metal_driver_sifive_uart0_clock+0x26>
C:\wsFreedomStudio\kernel\bsp\build\debug/./metal/machine.h:943
2040765c:	4781                	li	a5,0
C:\wsFreedomStudio\kernel\bsp\build\debug/./metal/machine.h:945
2040765e:	853e                	mv	a0,a5
20407660:	4472                	lw	s0,28(sp)
20407662:	6105                	addi	sp,sp,32
20407664:	8082                	ret

20407666 <__metal_driver_sifive_uart0_pinmux>:
__metal_driver_sifive_uart0_pinmux():
C:\wsFreedomStudio\kernel\bsp\build\debug/./metal/machine.h:948
20407666:	1101                	addi	sp,sp,-32
20407668:	ce22                	sw	s0,28(sp)
2040766a:	1000                	addi	s0,sp,32
2040766c:	fea42623          	sw	a0,-20(s0)
C:\wsFreedomStudio\kernel\bsp\build\debug/./metal/machine.h:949
20407670:	fec42703          	lw	a4,-20(s0)
20407674:	800007b7          	lui	a5,0x80000
20407678:	75878793          	addi	a5,a5,1880 # 80000758 <metal_segment_heap_target_end+0xffffec88>
2040767c:	00f71563          	bne	a4,a5,20407686 <__metal_driver_sifive_uart0_pinmux+0x20>
C:\wsFreedomStudio\kernel\bsp\build\debug/./metal/machine.h:950
20407680:	81c18793          	addi	a5,gp,-2020 # 800007bc <__metal_dt_gpio_10012000>
20407684:	a011                	j	20407688 <__metal_driver_sifive_uart0_pinmux+0x22>
C:\wsFreedomStudio\kernel\bsp\build\debug/./metal/machine.h:953
20407686:	4781                	li	a5,0
C:\wsFreedomStudio\kernel\bsp\build\debug/./metal/machine.h:955
20407688:	853e                	mv	a0,a5
2040768a:	4472                	lw	s0,28(sp)
2040768c:	6105                	addi	sp,sp,32
2040768e:	8082                	ret

20407690 <__metal_driver_sifive_uart0_pinmux_output_selector>:
__metal_driver_sifive_uart0_pinmux_output_selector():
C:\wsFreedomStudio\kernel\bsp\build\debug/./metal/machine.h:958
20407690:	1101                	addi	sp,sp,-32
20407692:	ce22                	sw	s0,28(sp)
20407694:	1000                	addi	s0,sp,32
20407696:	fea42623          	sw	a0,-20(s0)
C:\wsFreedomStudio\kernel\bsp\build\debug/./metal/machine.h:959
2040769a:	fec42703          	lw	a4,-20(s0)
2040769e:	800007b7          	lui	a5,0x80000
204076a2:	75878793          	addi	a5,a5,1880 # 80000758 <metal_segment_heap_target_end+0xffffec88>
204076a6:	00f71463          	bne	a4,a5,204076ae <__metal_driver_sifive_uart0_pinmux_output_selector+0x1e>
C:\wsFreedomStudio\kernel\bsp\build\debug/./metal/machine.h:960
204076aa:	4781                	li	a5,0
204076ac:	a011                	j	204076b0 <__metal_driver_sifive_uart0_pinmux_output_selector+0x20>
C:\wsFreedomStudio\kernel\bsp\build\debug/./metal/machine.h:963
204076ae:	4781                	li	a5,0
C:\wsFreedomStudio\kernel\bsp\build\debug/./metal/machine.h:965
204076b0:	853e                	mv	a0,a5
204076b2:	4472                	lw	s0,28(sp)
204076b4:	6105                	addi	sp,sp,32
204076b6:	8082                	ret

204076b8 <__metal_driver_sifive_uart0_pinmux_source_selector>:
__metal_driver_sifive_uart0_pinmux_source_selector():
C:\wsFreedomStudio\kernel\bsp\build\debug/./metal/machine.h:968
204076b8:	1101                	addi	sp,sp,-32
204076ba:	ce22                	sw	s0,28(sp)
204076bc:	1000                	addi	s0,sp,32
204076be:	fea42623          	sw	a0,-20(s0)
C:\wsFreedomStudio\kernel\bsp\build\debug/./metal/machine.h:969
204076c2:	fec42703          	lw	a4,-20(s0)
204076c6:	800007b7          	lui	a5,0x80000
204076ca:	75878793          	addi	a5,a5,1880 # 80000758 <metal_segment_heap_target_end+0xffffec88>
204076ce:	00f71563          	bne	a4,a5,204076d8 <__metal_driver_sifive_uart0_pinmux_source_selector+0x20>
C:\wsFreedomStudio\kernel\bsp\build\debug/./metal/machine.h:970
204076d2:	000307b7          	lui	a5,0x30
204076d6:	a011                	j	204076da <__metal_driver_sifive_uart0_pinmux_source_selector+0x22>
C:\wsFreedomStudio\kernel\bsp\build\debug/./metal/machine.h:973
204076d8:	4781                	li	a5,0
C:\wsFreedomStudio\kernel\bsp\build\debug/./metal/machine.h:975
204076da:	853e                	mv	a0,a5
204076dc:	4472                	lw	s0,28(sp)
204076de:	6105                	addi	sp,sp,32
204076e0:	8082                	ret

204076e2 <__metal_driver_sifive_uart0_interrupt_controller>:
__metal_driver_sifive_uart0_interrupt_controller():
C:/wsFreedomStudio/kernel/freedom-metal/src/drivers/sifive_uart0.c:37
204076e2:	1101                	addi	sp,sp,-32
204076e4:	ce06                	sw	ra,28(sp)
204076e6:	cc22                	sw	s0,24(sp)
204076e8:	1000                	addi	s0,sp,32
204076ea:	fea42623          	sw	a0,-20(s0)
C:/wsFreedomStudio/kernel/freedom-metal/src/drivers/sifive_uart0.c:38
204076ee:	fec42503          	lw	a0,-20(s0)
204076f2:	ef1ff0ef          	jal	ra,204075e2 <__metal_driver_sifive_uart0_interrupt_parent>
204076f6:	87aa                	mv	a5,a0
C:/wsFreedomStudio/kernel/freedom-metal/src/drivers/sifive_uart0.c:39
204076f8:	853e                	mv	a0,a5
204076fa:	40f2                	lw	ra,28(sp)
204076fc:	4462                	lw	s0,24(sp)
204076fe:	6105                	addi	sp,sp,32
20407700:	8082                	ret

20407702 <__metal_driver_sifive_uart0_get_interrupt_id>:
__metal_driver_sifive_uart0_get_interrupt_id():
C:/wsFreedomStudio/kernel/freedom-metal/src/drivers/sifive_uart0.c:41
20407702:	1101                	addi	sp,sp,-32
20407704:	ce06                	sw	ra,28(sp)
20407706:	cc22                	sw	s0,24(sp)
20407708:	1000                	addi	s0,sp,32
2040770a:	fea42623          	sw	a0,-20(s0)
C:/wsFreedomStudio/kernel/freedom-metal/src/drivers/sifive_uart0.c:42
2040770e:	fec42503          	lw	a0,-20(s0)
20407712:	effff0ef          	jal	ra,20407610 <__metal_driver_sifive_uart0_interrupt_line>
20407716:	87aa                	mv	a5,a0
C:/wsFreedomStudio/kernel/freedom-metal/src/drivers/sifive_uart0.c:43
20407718:	853e                	mv	a0,a5
2040771a:	40f2                	lw	ra,28(sp)
2040771c:	4462                	lw	s0,24(sp)
2040771e:	6105                	addi	sp,sp,32
20407720:	8082                	ret

20407722 <__metal_driver_sifive_uart0_tx_interrupt_enable>:
__metal_driver_sifive_uart0_tx_interrupt_enable():
C:/wsFreedomStudio/kernel/freedom-metal/src/drivers/sifive_uart0.c:45
20407722:	7179                	addi	sp,sp,-48
20407724:	d606                	sw	ra,44(sp)
20407726:	d422                	sw	s0,40(sp)
20407728:	1800                	addi	s0,sp,48
2040772a:	fca42e23          	sw	a0,-36(s0)
C:/wsFreedomStudio/kernel/freedom-metal/src/drivers/sifive_uart0.c:46
2040772e:	fdc42503          	lw	a0,-36(s0)
20407732:	e87ff0ef          	jal	ra,204075b8 <__metal_driver_sifive_uart0_control_base>
20407736:	87aa                	mv	a5,a0
20407738:	fef42623          	sw	a5,-20(s0)
C:/wsFreedomStudio/kernel/freedom-metal/src/drivers/sifive_uart0.c:48
2040773c:	fec42783          	lw	a5,-20(s0)
20407740:	07c1                	addi	a5,a5,16
20407742:	439c                	lw	a5,0(a5)
20407744:	fec42703          	lw	a4,-20(s0)
20407748:	0741                	addi	a4,a4,16
2040774a:	0017e793          	ori	a5,a5,1
2040774e:	c31c                	sw	a5,0(a4)
C:/wsFreedomStudio/kernel/freedom-metal/src/drivers/sifive_uart0.c:49
20407750:	4781                	li	a5,0
C:/wsFreedomStudio/kernel/freedom-metal/src/drivers/sifive_uart0.c:50
20407752:	853e                	mv	a0,a5
20407754:	50b2                	lw	ra,44(sp)
20407756:	5422                	lw	s0,40(sp)
20407758:	6145                	addi	sp,sp,48
2040775a:	8082                	ret

2040775c <__metal_driver_sifive_uart0_tx_interrupt_disable>:
__metal_driver_sifive_uart0_tx_interrupt_disable():
C:/wsFreedomStudio/kernel/freedom-metal/src/drivers/sifive_uart0.c:52
2040775c:	7179                	addi	sp,sp,-48
2040775e:	d606                	sw	ra,44(sp)
20407760:	d422                	sw	s0,40(sp)
20407762:	1800                	addi	s0,sp,48
20407764:	fca42e23          	sw	a0,-36(s0)
C:/wsFreedomStudio/kernel/freedom-metal/src/drivers/sifive_uart0.c:53
20407768:	fdc42503          	lw	a0,-36(s0)
2040776c:	e4dff0ef          	jal	ra,204075b8 <__metal_driver_sifive_uart0_control_base>
20407770:	87aa                	mv	a5,a0
20407772:	fef42623          	sw	a5,-20(s0)
C:/wsFreedomStudio/kernel/freedom-metal/src/drivers/sifive_uart0.c:55
20407776:	fec42783          	lw	a5,-20(s0)
2040777a:	07c1                	addi	a5,a5,16
2040777c:	439c                	lw	a5,0(a5)
2040777e:	fec42703          	lw	a4,-20(s0)
20407782:	0741                	addi	a4,a4,16
20407784:	9bf9                	andi	a5,a5,-2
20407786:	c31c                	sw	a5,0(a4)
C:/wsFreedomStudio/kernel/freedom-metal/src/drivers/sifive_uart0.c:56
20407788:	4781                	li	a5,0
C:/wsFreedomStudio/kernel/freedom-metal/src/drivers/sifive_uart0.c:57
2040778a:	853e                	mv	a0,a5
2040778c:	50b2                	lw	ra,44(sp)
2040778e:	5422                	lw	s0,40(sp)
20407790:	6145                	addi	sp,sp,48
20407792:	8082                	ret

20407794 <__metal_driver_sifive_uart0_rx_interrupt_enable>:
__metal_driver_sifive_uart0_rx_interrupt_enable():
C:/wsFreedomStudio/kernel/freedom-metal/src/drivers/sifive_uart0.c:59
20407794:	7179                	addi	sp,sp,-48
20407796:	d606                	sw	ra,44(sp)
20407798:	d422                	sw	s0,40(sp)
2040779a:	1800                	addi	s0,sp,48
2040779c:	fca42e23          	sw	a0,-36(s0)
C:/wsFreedomStudio/kernel/freedom-metal/src/drivers/sifive_uart0.c:60
204077a0:	fdc42503          	lw	a0,-36(s0)
204077a4:	e15ff0ef          	jal	ra,204075b8 <__metal_driver_sifive_uart0_control_base>
204077a8:	87aa                	mv	a5,a0
204077aa:	fef42623          	sw	a5,-20(s0)
C:/wsFreedomStudio/kernel/freedom-metal/src/drivers/sifive_uart0.c:62
204077ae:	fec42783          	lw	a5,-20(s0)
204077b2:	07c1                	addi	a5,a5,16
204077b4:	439c                	lw	a5,0(a5)
204077b6:	fec42703          	lw	a4,-20(s0)
204077ba:	0741                	addi	a4,a4,16
204077bc:	0027e793          	ori	a5,a5,2
204077c0:	c31c                	sw	a5,0(a4)
C:/wsFreedomStudio/kernel/freedom-metal/src/drivers/sifive_uart0.c:63
204077c2:	4781                	li	a5,0
C:/wsFreedomStudio/kernel/freedom-metal/src/drivers/sifive_uart0.c:64
204077c4:	853e                	mv	a0,a5
204077c6:	50b2                	lw	ra,44(sp)
204077c8:	5422                	lw	s0,40(sp)
204077ca:	6145                	addi	sp,sp,48
204077cc:	8082                	ret

204077ce <__metal_driver_sifive_uart0_rx_interrupt_disable>:
__metal_driver_sifive_uart0_rx_interrupt_disable():
C:/wsFreedomStudio/kernel/freedom-metal/src/drivers/sifive_uart0.c:66
204077ce:	7179                	addi	sp,sp,-48
204077d0:	d606                	sw	ra,44(sp)
204077d2:	d422                	sw	s0,40(sp)
204077d4:	1800                	addi	s0,sp,48
204077d6:	fca42e23          	sw	a0,-36(s0)
C:/wsFreedomStudio/kernel/freedom-metal/src/drivers/sifive_uart0.c:67
204077da:	fdc42503          	lw	a0,-36(s0)
204077de:	ddbff0ef          	jal	ra,204075b8 <__metal_driver_sifive_uart0_control_base>
204077e2:	87aa                	mv	a5,a0
204077e4:	fef42623          	sw	a5,-20(s0)
C:/wsFreedomStudio/kernel/freedom-metal/src/drivers/sifive_uart0.c:69
204077e8:	fec42783          	lw	a5,-20(s0)
204077ec:	07c1                	addi	a5,a5,16
204077ee:	439c                	lw	a5,0(a5)
204077f0:	fec42703          	lw	a4,-20(s0)
204077f4:	0741                	addi	a4,a4,16
204077f6:	9bf5                	andi	a5,a5,-3
204077f8:	c31c                	sw	a5,0(a4)
C:/wsFreedomStudio/kernel/freedom-metal/src/drivers/sifive_uart0.c:70
204077fa:	4781                	li	a5,0
C:/wsFreedomStudio/kernel/freedom-metal/src/drivers/sifive_uart0.c:71
204077fc:	853e                	mv	a0,a5
204077fe:	50b2                	lw	ra,44(sp)
20407800:	5422                	lw	s0,40(sp)
20407802:	6145                	addi	sp,sp,48
20407804:	8082                	ret

20407806 <__metal_driver_sifive_uart0_txready>:
__metal_driver_sifive_uart0_txready():
C:/wsFreedomStudio/kernel/freedom-metal/src/drivers/sifive_uart0.c:73
20407806:	7179                	addi	sp,sp,-48
20407808:	d606                	sw	ra,44(sp)
2040780a:	d422                	sw	s0,40(sp)
2040780c:	1800                	addi	s0,sp,48
2040780e:	fca42e23          	sw	a0,-36(s0)
C:/wsFreedomStudio/kernel/freedom-metal/src/drivers/sifive_uart0.c:74
20407812:	fdc42503          	lw	a0,-36(s0)
20407816:	da3ff0ef          	jal	ra,204075b8 <__metal_driver_sifive_uart0_control_base>
2040781a:	87aa                	mv	a5,a0
2040781c:	fef42623          	sw	a5,-20(s0)
C:/wsFreedomStudio/kernel/freedom-metal/src/drivers/sifive_uart0.c:76
20407820:	fec42783          	lw	a5,-20(s0)
20407824:	439c                	lw	a5,0(a5)
20407826:	83fd                	srli	a5,a5,0x1f
20407828:	0ff7f793          	zext.b	a5,a5
C:/wsFreedomStudio/kernel/freedom-metal/src/drivers/sifive_uart0.c:77
2040782c:	853e                	mv	a0,a5
2040782e:	50b2                	lw	ra,44(sp)
20407830:	5422                	lw	s0,40(sp)
20407832:	6145                	addi	sp,sp,48
20407834:	8082                	ret

20407836 <__metal_driver_sifive_uart0_set_tx_watermark>:
__metal_driver_sifive_uart0_set_tx_watermark():
C:/wsFreedomStudio/kernel/freedom-metal/src/drivers/sifive_uart0.c:80
20407836:	7179                	addi	sp,sp,-48
20407838:	d606                	sw	ra,44(sp)
2040783a:	d422                	sw	s0,40(sp)
2040783c:	1800                	addi	s0,sp,48
2040783e:	fca42e23          	sw	a0,-36(s0)
20407842:	fcb42c23          	sw	a1,-40(s0)
C:/wsFreedomStudio/kernel/freedom-metal/src/drivers/sifive_uart0.c:81
20407846:	fdc42503          	lw	a0,-36(s0)
2040784a:	d6fff0ef          	jal	ra,204075b8 <__metal_driver_sifive_uart0_control_base>
2040784e:	87aa                	mv	a5,a0
20407850:	fef42623          	sw	a5,-20(s0)
C:/wsFreedomStudio/kernel/freedom-metal/src/drivers/sifive_uart0.c:83
20407854:	fec42783          	lw	a5,-20(s0)
20407858:	07a1                	addi	a5,a5,8
2040785a:	4398                	lw	a4,0(a5)
2040785c:	fd842783          	lw	a5,-40(s0)
20407860:	01079693          	slli	a3,a5,0x10
20407864:	000707b7          	lui	a5,0x70
20407868:	8ff5                	and	a5,a5,a3
2040786a:	fec42683          	lw	a3,-20(s0)
2040786e:	06a1                	addi	a3,a3,8
20407870:	8fd9                	or	a5,a5,a4
20407872:	c29c                	sw	a5,0(a3)
C:/wsFreedomStudio/kernel/freedom-metal/src/drivers/sifive_uart0.c:84
20407874:	4781                	li	a5,0
C:/wsFreedomStudio/kernel/freedom-metal/src/drivers/sifive_uart0.c:85
20407876:	853e                	mv	a0,a5
20407878:	50b2                	lw	ra,44(sp)
2040787a:	5422                	lw	s0,40(sp)
2040787c:	6145                	addi	sp,sp,48
2040787e:	8082                	ret

20407880 <__metal_driver_sifive_uart0_get_tx_watermark>:
__metal_driver_sifive_uart0_get_tx_watermark():
C:/wsFreedomStudio/kernel/freedom-metal/src/drivers/sifive_uart0.c:87
20407880:	7179                	addi	sp,sp,-48
20407882:	d606                	sw	ra,44(sp)
20407884:	d422                	sw	s0,40(sp)
20407886:	1800                	addi	s0,sp,48
20407888:	fca42e23          	sw	a0,-36(s0)
C:/wsFreedomStudio/kernel/freedom-metal/src/drivers/sifive_uart0.c:88
2040788c:	fdc42503          	lw	a0,-36(s0)
20407890:	d29ff0ef          	jal	ra,204075b8 <__metal_driver_sifive_uart0_control_base>
20407894:	87aa                	mv	a5,a0
20407896:	fef42623          	sw	a5,-20(s0)
C:/wsFreedomStudio/kernel/freedom-metal/src/drivers/sifive_uart0.c:90
2040789a:	fec42783          	lw	a5,-20(s0)
2040789e:	07a1                	addi	a5,a5,8
204078a0:	439c                	lw	a5,0(a5)
204078a2:	83c1                	srli	a5,a5,0x10
204078a4:	8b9d                	andi	a5,a5,7
C:/wsFreedomStudio/kernel/freedom-metal/src/drivers/sifive_uart0.c:91
204078a6:	853e                	mv	a0,a5
204078a8:	50b2                	lw	ra,44(sp)
204078aa:	5422                	lw	s0,40(sp)
204078ac:	6145                	addi	sp,sp,48
204078ae:	8082                	ret

204078b0 <__metal_driver_sifive_uart0_set_rx_watermark>:
__metal_driver_sifive_uart0_set_rx_watermark():
C:/wsFreedomStudio/kernel/freedom-metal/src/drivers/sifive_uart0.c:94
204078b0:	7179                	addi	sp,sp,-48
204078b2:	d606                	sw	ra,44(sp)
204078b4:	d422                	sw	s0,40(sp)
204078b6:	1800                	addi	s0,sp,48
204078b8:	fca42e23          	sw	a0,-36(s0)
204078bc:	fcb42c23          	sw	a1,-40(s0)
C:/wsFreedomStudio/kernel/freedom-metal/src/drivers/sifive_uart0.c:95
204078c0:	fdc42503          	lw	a0,-36(s0)
204078c4:	cf5ff0ef          	jal	ra,204075b8 <__metal_driver_sifive_uart0_control_base>
204078c8:	87aa                	mv	a5,a0
204078ca:	fef42623          	sw	a5,-20(s0)
C:/wsFreedomStudio/kernel/freedom-metal/src/drivers/sifive_uart0.c:97
204078ce:	fec42783          	lw	a5,-20(s0)
204078d2:	07b1                	addi	a5,a5,12
204078d4:	4398                	lw	a4,0(a5)
204078d6:	fd842783          	lw	a5,-40(s0)
204078da:	01079693          	slli	a3,a5,0x10
204078de:	000707b7          	lui	a5,0x70
204078e2:	8ff5                	and	a5,a5,a3
204078e4:	fec42683          	lw	a3,-20(s0)
204078e8:	06b1                	addi	a3,a3,12
204078ea:	8fd9                	or	a5,a5,a4
204078ec:	c29c                	sw	a5,0(a3)
C:/wsFreedomStudio/kernel/freedom-metal/src/drivers/sifive_uart0.c:98
204078ee:	4781                	li	a5,0
C:/wsFreedomStudio/kernel/freedom-metal/src/drivers/sifive_uart0.c:99
204078f0:	853e                	mv	a0,a5
204078f2:	50b2                	lw	ra,44(sp)
204078f4:	5422                	lw	s0,40(sp)
204078f6:	6145                	addi	sp,sp,48
204078f8:	8082                	ret

204078fa <__metal_driver_sifive_uart0_get_rx_watermark>:
__metal_driver_sifive_uart0_get_rx_watermark():
C:/wsFreedomStudio/kernel/freedom-metal/src/drivers/sifive_uart0.c:101
204078fa:	7179                	addi	sp,sp,-48
204078fc:	d606                	sw	ra,44(sp)
204078fe:	d422                	sw	s0,40(sp)
20407900:	1800                	addi	s0,sp,48
20407902:	fca42e23          	sw	a0,-36(s0)
C:/wsFreedomStudio/kernel/freedom-metal/src/drivers/sifive_uart0.c:102
20407906:	fdc42503          	lw	a0,-36(s0)
2040790a:	cafff0ef          	jal	ra,204075b8 <__metal_driver_sifive_uart0_control_base>
2040790e:	87aa                	mv	a5,a0
20407910:	fef42623          	sw	a5,-20(s0)
C:/wsFreedomStudio/kernel/freedom-metal/src/drivers/sifive_uart0.c:104
20407914:	fec42783          	lw	a5,-20(s0)
20407918:	07b1                	addi	a5,a5,12
2040791a:	439c                	lw	a5,0(a5)
2040791c:	83c1                	srli	a5,a5,0x10
2040791e:	8b9d                	andi	a5,a5,7
C:/wsFreedomStudio/kernel/freedom-metal/src/drivers/sifive_uart0.c:105
20407920:	853e                	mv	a0,a5
20407922:	50b2                	lw	ra,44(sp)
20407924:	5422                	lw	s0,40(sp)
20407926:	6145                	addi	sp,sp,48
20407928:	8082                	ret

2040792a <__metal_driver_sifive_uart0_putc>:
__metal_driver_sifive_uart0_putc():
C:/wsFreedomStudio/kernel/freedom-metal/src/drivers/sifive_uart0.c:107
2040792a:	7179                	addi	sp,sp,-48
2040792c:	d606                	sw	ra,44(sp)
2040792e:	d422                	sw	s0,40(sp)
20407930:	1800                	addi	s0,sp,48
20407932:	fca42e23          	sw	a0,-36(s0)
20407936:	fcb42c23          	sw	a1,-40(s0)
C:/wsFreedomStudio/kernel/freedom-metal/src/drivers/sifive_uart0.c:108
2040793a:	fdc42503          	lw	a0,-36(s0)
2040793e:	c7bff0ef          	jal	ra,204075b8 <__metal_driver_sifive_uart0_control_base>
20407942:	87aa                	mv	a5,a0
20407944:	fef42623          	sw	a5,-20(s0)
C:/wsFreedomStudio/kernel/freedom-metal/src/drivers/sifive_uart0.c:110
20407948:	0001                	nop
C:/wsFreedomStudio/kernel/freedom-metal/src/drivers/sifive_uart0.c:110 (discriminator 1)
2040794a:	fdc42503          	lw	a0,-36(s0)
2040794e:	eb9ff0ef          	jal	ra,20407806 <__metal_driver_sifive_uart0_txready>
20407952:	87aa                	mv	a5,a0
20407954:	fbfd                	bnez	a5,2040794a <__metal_driver_sifive_uart0_putc+0x20>
C:/wsFreedomStudio/kernel/freedom-metal/src/drivers/sifive_uart0.c:113
20407956:	fec42783          	lw	a5,-20(s0)
2040795a:	fd842703          	lw	a4,-40(s0)
2040795e:	c398                	sw	a4,0(a5)
C:/wsFreedomStudio/kernel/freedom-metal/src/drivers/sifive_uart0.c:114
20407960:	4781                	li	a5,0
C:/wsFreedomStudio/kernel/freedom-metal/src/drivers/sifive_uart0.c:115
20407962:	853e                	mv	a0,a5
20407964:	50b2                	lw	ra,44(sp)
20407966:	5422                	lw	s0,40(sp)
20407968:	6145                	addi	sp,sp,48
2040796a:	8082                	ret

2040796c <__metal_driver_sifive_uart0_getc>:
__metal_driver_sifive_uart0_getc():
C:/wsFreedomStudio/kernel/freedom-metal/src/drivers/sifive_uart0.c:117
2040796c:	7179                	addi	sp,sp,-48
2040796e:	d606                	sw	ra,44(sp)
20407970:	d422                	sw	s0,40(sp)
20407972:	1800                	addi	s0,sp,48
20407974:	fca42e23          	sw	a0,-36(s0)
20407978:	fcb42c23          	sw	a1,-40(s0)
C:/wsFreedomStudio/kernel/freedom-metal/src/drivers/sifive_uart0.c:119
2040797c:	fdc42503          	lw	a0,-36(s0)
20407980:	c39ff0ef          	jal	ra,204075b8 <__metal_driver_sifive_uart0_control_base>
20407984:	87aa                	mv	a5,a0
20407986:	fef42623          	sw	a5,-20(s0)
C:/wsFreedomStudio/kernel/freedom-metal/src/drivers/sifive_uart0.c:121
2040798a:	fec42783          	lw	a5,-20(s0)
2040798e:	0791                	addi	a5,a5,4
20407990:	439c                	lw	a5,0(a5)
20407992:	fef42423          	sw	a5,-24(s0)
C:/wsFreedomStudio/kernel/freedom-metal/src/drivers/sifive_uart0.c:123
20407996:	fe842783          	lw	a5,-24(s0)
2040799a:	0007d763          	bgez	a5,204079a8 <__metal_driver_sifive_uart0_getc+0x3c>
C:/wsFreedomStudio/kernel/freedom-metal/src/drivers/sifive_uart0.c:124
2040799e:	fd842783          	lw	a5,-40(s0)
204079a2:	577d                	li	a4,-1
204079a4:	c398                	sw	a4,0(a5)
204079a6:	a801                	j	204079b6 <__metal_driver_sifive_uart0_getc+0x4a>
C:/wsFreedomStudio/kernel/freedom-metal/src/drivers/sifive_uart0.c:126
204079a8:	fe842783          	lw	a5,-24(s0)
204079ac:	0ff7f713          	zext.b	a4,a5
204079b0:	fd842783          	lw	a5,-40(s0)
204079b4:	c398                	sw	a4,0(a5)
C:/wsFreedomStudio/kernel/freedom-metal/src/drivers/sifive_uart0.c:128
204079b6:	4781                	li	a5,0
C:/wsFreedomStudio/kernel/freedom-metal/src/drivers/sifive_uart0.c:129
204079b8:	853e                	mv	a0,a5
204079ba:	50b2                	lw	ra,44(sp)
204079bc:	5422                	lw	s0,40(sp)
204079be:	6145                	addi	sp,sp,48
204079c0:	8082                	ret

204079c2 <__metal_driver_sifive_uart0_get_baud_rate>:
__metal_driver_sifive_uart0_get_baud_rate():
C:/wsFreedomStudio/kernel/freedom-metal/src/drivers/sifive_uart0.c:131
204079c2:	7179                	addi	sp,sp,-48
204079c4:	d622                	sw	s0,44(sp)
204079c6:	1800                	addi	s0,sp,48
204079c8:	fca42e23          	sw	a0,-36(s0)
C:/wsFreedomStudio/kernel/freedom-metal/src/drivers/sifive_uart0.c:132
204079cc:	fdc42783          	lw	a5,-36(s0)
204079d0:	fef42623          	sw	a5,-20(s0)
C:/wsFreedomStudio/kernel/freedom-metal/src/drivers/sifive_uart0.c:133
204079d4:	fec42783          	lw	a5,-20(s0)
204079d8:	43dc                	lw	a5,4(a5)
C:/wsFreedomStudio/kernel/freedom-metal/src/drivers/sifive_uart0.c:134
204079da:	853e                	mv	a0,a5
204079dc:	5432                	lw	s0,44(sp)
204079de:	6145                	addi	sp,sp,48
204079e0:	8082                	ret

204079e2 <__metal_driver_sifive_uart0_set_baud_rate>:
__metal_driver_sifive_uart0_set_baud_rate():
C:/wsFreedomStudio/kernel/freedom-metal/src/drivers/sifive_uart0.c:137
204079e2:	7179                	addi	sp,sp,-48
204079e4:	d606                	sw	ra,44(sp)
204079e6:	d422                	sw	s0,40(sp)
204079e8:	1800                	addi	s0,sp,48
204079ea:	fca42e23          	sw	a0,-36(s0)
204079ee:	fcb42c23          	sw	a1,-40(s0)
C:/wsFreedomStudio/kernel/freedom-metal/src/drivers/sifive_uart0.c:138
204079f2:	fdc42783          	lw	a5,-36(s0)
204079f6:	fef42623          	sw	a5,-20(s0)
C:/wsFreedomStudio/kernel/freedom-metal/src/drivers/sifive_uart0.c:139
204079fa:	fdc42503          	lw	a0,-36(s0)
204079fe:	bbbff0ef          	jal	ra,204075b8 <__metal_driver_sifive_uart0_control_base>
20407a02:	87aa                	mv	a5,a0
20407a04:	fef42423          	sw	a5,-24(s0)
C:/wsFreedomStudio/kernel/freedom-metal/src/drivers/sifive_uart0.c:140
20407a08:	fdc42503          	lw	a0,-36(s0)
20407a0c:	c2dff0ef          	jal	ra,20407638 <__metal_driver_sifive_uart0_clock>
20407a10:	fea42223          	sw	a0,-28(s0)
C:/wsFreedomStudio/kernel/freedom-metal/src/drivers/sifive_uart0.c:142
20407a14:	fd842703          	lw	a4,-40(s0)
20407a18:	fec42783          	lw	a5,-20(s0)
20407a1c:	c3d8                	sw	a4,4(a5)
C:/wsFreedomStudio/kernel/freedom-metal/src/drivers/sifive_uart0.c:144
20407a1e:	fe442783          	lw	a5,-28(s0)
20407a22:	cbb1                	beqz	a5,20407a76 <__metal_driver_sifive_uart0_set_baud_rate+0x94>
C:/wsFreedomStudio/kernel/freedom-metal/src/drivers/sifive_uart0.c:145
20407a24:	fe442783          	lw	a5,-28(s0)
20407a28:	439c                	lw	a5,0(a5)
20407a2a:	439c                	lw	a5,0(a5)
20407a2c:	fe442503          	lw	a0,-28(s0)
20407a30:	9782                	jalr	a5
20407a32:	fea42023          	sw	a0,-32(s0)
C:/wsFreedomStudio/kernel/freedom-metal/src/drivers/sifive_uart0.c:146
20407a36:	fe042703          	lw	a4,-32(s0)
20407a3a:	fd842783          	lw	a5,-40(s0)
20407a3e:	02f747b3          	div	a5,a4,a5
20407a42:	fff78713          	addi	a4,a5,-1 # 6ffff <__heap_size+0x6f7ff>
20407a46:	fe842783          	lw	a5,-24(s0)
20407a4a:	07e1                	addi	a5,a5,24
20407a4c:	c398                	sw	a4,0(a5)
C:/wsFreedomStudio/kernel/freedom-metal/src/drivers/sifive_uart0.c:147
20407a4e:	fe842783          	lw	a5,-24(s0)
20407a52:	07a1                	addi	a5,a5,8
20407a54:	439c                	lw	a5,0(a5)
20407a56:	fe842703          	lw	a4,-24(s0)
20407a5a:	0721                	addi	a4,a4,8
20407a5c:	0017e793          	ori	a5,a5,1
20407a60:	c31c                	sw	a5,0(a4)
C:/wsFreedomStudio/kernel/freedom-metal/src/drivers/sifive_uart0.c:148
20407a62:	fe842783          	lw	a5,-24(s0)
20407a66:	07b1                	addi	a5,a5,12
20407a68:	439c                	lw	a5,0(a5)
20407a6a:	fe842703          	lw	a4,-24(s0)
20407a6e:	0731                	addi	a4,a4,12
20407a70:	0017e793          	ori	a5,a5,1
20407a74:	c31c                	sw	a5,0(a4)
C:/wsFreedomStudio/kernel/freedom-metal/src/drivers/sifive_uart0.c:150
20407a76:	4781                	li	a5,0
C:/wsFreedomStudio/kernel/freedom-metal/src/drivers/sifive_uart0.c:151
20407a78:	853e                	mv	a0,a5
20407a7a:	50b2                	lw	ra,44(sp)
20407a7c:	5422                	lw	s0,40(sp)
20407a7e:	6145                	addi	sp,sp,48
20407a80:	8082                	ret

20407a82 <pre_rate_change_callback_func>:
pre_rate_change_callback_func():
C:/wsFreedomStudio/kernel/freedom-metal/src/drivers/sifive_uart0.c:153
20407a82:	7139                	addi	sp,sp,-64
20407a84:	de06                	sw	ra,60(sp)
20407a86:	dc22                	sw	s0,56(sp)
20407a88:	0080                	addi	s0,sp,64
20407a8a:	fca42623          	sw	a0,-52(s0)
C:/wsFreedomStudio/kernel/freedom-metal/src/drivers/sifive_uart0.c:154
20407a8e:	fcc42783          	lw	a5,-52(s0)
20407a92:	fef42623          	sw	a5,-20(s0)
C:/wsFreedomStudio/kernel/freedom-metal/src/drivers/sifive_uart0.c:156
20407a96:	fcc42503          	lw	a0,-52(s0)
20407a9a:	b1fff0ef          	jal	ra,204075b8 <__metal_driver_sifive_uart0_control_base>
20407a9e:	87aa                	mv	a5,a0
C:/wsFreedomStudio/kernel/freedom-metal/src/drivers/sifive_uart0.c:155
20407aa0:	fef42423          	sw	a5,-24(s0)
C:/wsFreedomStudio/kernel/freedom-metal/src/drivers/sifive_uart0.c:158
20407aa4:	fcc42503          	lw	a0,-52(s0)
20407aa8:	b91ff0ef          	jal	ra,20407638 <__metal_driver_sifive_uart0_clock>
20407aac:	fea42223          	sw	a0,-28(s0)
C:/wsFreedomStudio/kernel/freedom-metal/src/drivers/sifive_uart0.c:163
20407ab0:	fe842783          	lw	a5,-24(s0)
20407ab4:	07a1                	addi	a5,a5,8
20407ab6:	4398                	lw	a4,0(a5)
20407ab8:	fe842783          	lw	a5,-24(s0)
20407abc:	07a1                	addi	a5,a5,8
20407abe:	86be                	mv	a3,a5
20407ac0:	fff907b7          	lui	a5,0xfff90
20407ac4:	17fd                	addi	a5,a5,-1
20407ac6:	8ff9                	and	a5,a5,a4
20407ac8:	c29c                	sw	a5,0(a3)
C:/wsFreedomStudio/kernel/freedom-metal/src/drivers/sifive_uart0.c:164
20407aca:	fe842783          	lw	a5,-24(s0)
20407ace:	07a1                	addi	a5,a5,8
20407ad0:	4398                	lw	a4,0(a5)
20407ad2:	fe842783          	lw	a5,-24(s0)
20407ad6:	07a1                	addi	a5,a5,8
20407ad8:	86be                	mv	a3,a5
20407ada:	67c1                	lui	a5,0x10
20407adc:	8fd9                	or	a5,a5,a4
20407ade:	c29c                	sw	a5,0(a3)
C:/wsFreedomStudio/kernel/freedom-metal/src/drivers/sifive_uart0.c:166
20407ae0:	0001                	nop
C:/wsFreedomStudio/kernel/freedom-metal/src/drivers/sifive_uart0.c:166 (discriminator 1)
20407ae2:	fe842783          	lw	a5,-24(s0)
20407ae6:	07d1                	addi	a5,a5,20
20407ae8:	439c                	lw	a5,0(a5)
20407aea:	8b85                	andi	a5,a5,1
20407aec:	dbfd                	beqz	a5,20407ae2 <pre_rate_change_callback_func+0x60>
C:/wsFreedomStudio/kernel/freedom-metal/src/drivers/sifive_uart0.c:174
20407aee:	fe842783          	lw	a5,-24(s0)
20407af2:	07a1                	addi	a5,a5,8
20407af4:	439c                	lw	a5,0(a5)
20407af6:	8b89                	andi	a5,a5,2
20407af8:	c399                	beqz	a5,20407afe <pre_rate_change_callback_func+0x7c>
C:/wsFreedomStudio/kernel/freedom-metal/src/drivers/sifive_uart0.c:174 (discriminator 1)
20407afa:	47a5                	li	a5,9
20407afc:	a011                	j	20407b00 <pre_rate_change_callback_func+0x7e>
C:/wsFreedomStudio/kernel/freedom-metal/src/drivers/sifive_uart0.c:174 (discriminator 2)
20407afe:	47a9                	li	a5,10
C:/wsFreedomStudio/kernel/freedom-metal/src/drivers/sifive_uart0.c:173
20407b00:	fef42023          	sw	a5,-32(s0)
C:/wsFreedomStudio/kernel/freedom-metal/src/drivers/sifive_uart0.c:175
20407b04:	fe442783          	lw	a5,-28(s0)
20407b08:	439c                	lw	a5,0(a5)
20407b0a:	439c                	lw	a5,0(a5)
20407b0c:	fe442503          	lw	a0,-28(s0)
20407b10:	9782                	jalr	a5
20407b12:	fca42e23          	sw	a0,-36(s0)
C:/wsFreedomStudio/kernel/freedom-metal/src/drivers/sifive_uart0.c:176
20407b16:	fe042703          	lw	a4,-32(s0)
20407b1a:	fdc42783          	lw	a5,-36(s0)
20407b1e:	02f707b3          	mul	a5,a4,a5
20407b22:	873e                	mv	a4,a5
20407b24:	fec42783          	lw	a5,-20(s0)
20407b28:	43dc                	lw	a5,4(a5)
20407b2a:	02f757b3          	divu	a5,a4,a5
20407b2e:	fcf42c23          	sw	a5,-40(s0)
C:/wsFreedomStudio/kernel/freedom-metal/src/drivers/sifive_uart0.c:178
20407b32:	fc042a23          	sw	zero,-44(s0)
20407b36:	a039                	j	20407b44 <pre_rate_change_callback_func+0xc2>
C:/wsFreedomStudio/kernel/freedom-metal/src/drivers/sifive_uart0.c:179 (discriminator 3)
20407b38:	0001                	nop
C:/wsFreedomStudio/kernel/freedom-metal/src/drivers/sifive_uart0.c:178 (discriminator 3)
20407b3a:	fd442783          	lw	a5,-44(s0)
20407b3e:	0785                	addi	a5,a5,1
20407b40:	fcf42a23          	sw	a5,-44(s0)
C:/wsFreedomStudio/kernel/freedom-metal/src/drivers/sifive_uart0.c:178 (discriminator 1)
20407b44:	fd442783          	lw	a5,-44(s0)
20407b48:	fd842703          	lw	a4,-40(s0)
20407b4c:	fee7c6e3          	blt	a5,a4,20407b38 <pre_rate_change_callback_func+0xb6>
C:/wsFreedomStudio/kernel/freedom-metal/src/drivers/sifive_uart0.c:180
20407b50:	0001                	nop
20407b52:	0001                	nop
20407b54:	50f2                	lw	ra,60(sp)
20407b56:	5462                	lw	s0,56(sp)
20407b58:	6121                	addi	sp,sp,64
20407b5a:	8082                	ret

20407b5c <post_rate_change_callback_func>:
post_rate_change_callback_func():
C:/wsFreedomStudio/kernel/freedom-metal/src/drivers/sifive_uart0.c:182
20407b5c:	7179                	addi	sp,sp,-48
20407b5e:	d606                	sw	ra,44(sp)
20407b60:	d422                	sw	s0,40(sp)
20407b62:	1800                	addi	s0,sp,48
20407b64:	fca42e23          	sw	a0,-36(s0)
C:/wsFreedomStudio/kernel/freedom-metal/src/drivers/sifive_uart0.c:183
20407b68:	fdc42783          	lw	a5,-36(s0)
20407b6c:	fef42623          	sw	a5,-20(s0)
C:/wsFreedomStudio/kernel/freedom-metal/src/drivers/sifive_uart0.c:184
20407b70:	fec42703          	lw	a4,-20(s0)
20407b74:	fec42783          	lw	a5,-20(s0)
20407b78:	43dc                	lw	a5,4(a5)
20407b7a:	85be                	mv	a1,a5
20407b7c:	853a                	mv	a0,a4
20407b7e:	d6dfb0ef          	jal	ra,204038ea <metal_uart_set_baud_rate>
C:/wsFreedomStudio/kernel/freedom-metal/src/drivers/sifive_uart0.c:185
20407b82:	0001                	nop
20407b84:	50b2                	lw	ra,44(sp)
20407b86:	5422                	lw	s0,40(sp)
20407b88:	6145                	addi	sp,sp,48
20407b8a:	8082                	ret

20407b8c <__metal_driver_sifive_uart0_init>:
__metal_driver_sifive_uart0_init():
C:/wsFreedomStudio/kernel/freedom-metal/src/drivers/sifive_uart0.c:187
20407b8c:	7139                	addi	sp,sp,-64
20407b8e:	de06                	sw	ra,60(sp)
20407b90:	dc22                	sw	s0,56(sp)
20407b92:	0080                	addi	s0,sp,64
20407b94:	fca42623          	sw	a0,-52(s0)
20407b98:	fcb42423          	sw	a1,-56(s0)
C:/wsFreedomStudio/kernel/freedom-metal/src/drivers/sifive_uart0.c:188
20407b9c:	fcc42783          	lw	a5,-52(s0)
20407ba0:	fef42623          	sw	a5,-20(s0)
C:/wsFreedomStudio/kernel/freedom-metal/src/drivers/sifive_uart0.c:189
20407ba4:	fcc42503          	lw	a0,-52(s0)
20407ba8:	a91ff0ef          	jal	ra,20407638 <__metal_driver_sifive_uart0_clock>
20407bac:	fea42423          	sw	a0,-24(s0)
C:/wsFreedomStudio/kernel/freedom-metal/src/drivers/sifive_uart0.c:191
20407bb0:	fcc42503          	lw	a0,-52(s0)
20407bb4:	ab3ff0ef          	jal	ra,20407666 <__metal_driver_sifive_uart0_pinmux>
20407bb8:	fea42223          	sw	a0,-28(s0)
C:/wsFreedomStudio/kernel/freedom-metal/src/drivers/sifive_uart0.c:193
20407bbc:	fe842783          	lw	a5,-24(s0)
20407bc0:	c7b9                	beqz	a5,20407c0e <__metal_driver_sifive_uart0_init+0x82>
C:/wsFreedomStudio/kernel/freedom-metal/src/drivers/sifive_uart0.c:194
20407bc2:	fec42783          	lw	a5,-20(s0)
20407bc6:	20408737          	lui	a4,0x20408
20407bca:	a8270713          	addi	a4,a4,-1406 # 20407a82 <pre_rate_change_callback_func>
20407bce:	c798                	sw	a4,8(a5)
C:/wsFreedomStudio/kernel/freedom-metal/src/drivers/sifive_uart0.c:196
20407bd0:	fec42783          	lw	a5,-20(s0)
20407bd4:	fcc42703          	lw	a4,-52(s0)
20407bd8:	c7d8                	sw	a4,12(a5)
C:/wsFreedomStudio/kernel/freedom-metal/src/drivers/sifive_uart0.c:197
20407bda:	fec42783          	lw	a5,-20(s0)
20407bde:	07a1                	addi	a5,a5,8
20407be0:	85be                	mv	a1,a5
20407be2:	fe842503          	lw	a0,-24(s0)
20407be6:	2241                	jal	20407d66 <metal_clock_register_pre_rate_change_callback>
C:/wsFreedomStudio/kernel/freedom-metal/src/drivers/sifive_uart0.c:200
20407be8:	fec42783          	lw	a5,-20(s0)
20407bec:	20408737          	lui	a4,0x20408
20407bf0:	b5c70713          	addi	a4,a4,-1188 # 20407b5c <post_rate_change_callback_func>
20407bf4:	cbd8                	sw	a4,20(a5)
C:/wsFreedomStudio/kernel/freedom-metal/src/drivers/sifive_uart0.c:202
20407bf6:	fec42783          	lw	a5,-20(s0)
20407bfa:	fcc42703          	lw	a4,-52(s0)
20407bfe:	cf98                	sw	a4,24(a5)
C:/wsFreedomStudio/kernel/freedom-metal/src/drivers/sifive_uart0.c:203
20407c00:	fec42783          	lw	a5,-20(s0)
20407c04:	07d1                	addi	a5,a5,20
20407c06:	85be                	mv	a1,a5
20407c08:	fe842503          	lw	a0,-24(s0)
20407c0c:	2271                	jal	20407d98 <metal_clock_register_post_rate_change_callback>
C:/wsFreedomStudio/kernel/freedom-metal/src/drivers/sifive_uart0.c:207
20407c0e:	fec42783          	lw	a5,-20(s0)
20407c12:	fc842583          	lw	a1,-56(s0)
20407c16:	853e                	mv	a0,a5
20407c18:	cd3fb0ef          	jal	ra,204038ea <metal_uart_set_baud_rate>
C:/wsFreedomStudio/kernel/freedom-metal/src/drivers/sifive_uart0.c:209
20407c1c:	fe442783          	lw	a5,-28(s0)
20407c20:	cb95                	beqz	a5,20407c54 <__metal_driver_sifive_uart0_init+0xc8>
C:/wsFreedomStudio/kernel/freedom-metal/src/drivers/sifive_uart0.c:211
20407c22:	fcc42503          	lw	a0,-52(s0)
20407c26:	a6bff0ef          	jal	ra,20407690 <__metal_driver_sifive_uart0_pinmux_output_selector>
20407c2a:	87aa                	mv	a5,a0
C:/wsFreedomStudio/kernel/freedom-metal/src/drivers/sifive_uart0.c:210
20407c2c:	fef42023          	sw	a5,-32(s0)
C:/wsFreedomStudio/kernel/freedom-metal/src/drivers/sifive_uart0.c:213
20407c30:	fcc42503          	lw	a0,-52(s0)
20407c34:	a85ff0ef          	jal	ra,204076b8 <__metal_driver_sifive_uart0_pinmux_source_selector>
20407c38:	87aa                	mv	a5,a0
C:/wsFreedomStudio/kernel/freedom-metal/src/drivers/sifive_uart0.c:212
20407c3a:	fcf42e23          	sw	a5,-36(s0)
C:/wsFreedomStudio/kernel/freedom-metal/src/drivers/sifive_uart0.c:214
20407c3e:	fe442783          	lw	a5,-28(s0)
20407c42:	439c                	lw	a5,0(a5)
20407c44:	53dc                	lw	a5,36(a5)
20407c46:	fdc42603          	lw	a2,-36(s0)
20407c4a:	fe042583          	lw	a1,-32(s0)
20407c4e:	fe442503          	lw	a0,-28(s0)
20407c52:	9782                	jalr	a5
C:/wsFreedomStudio/kernel/freedom-metal/src/drivers/sifive_uart0.c:218
20407c54:	0001                	nop
20407c56:	50f2                	lw	ra,60(sp)
20407c58:	5462                	lw	s0,56(sp)
20407c5a:	6121                	addi	sp,sp,64
20407c5c:	8082                	ret

20407c5e <_metal_clock_call_all_callbacks>:
_metal_clock_call_all_callbacks():
C:/wsFreedomStudio/kernel/freedom-metal/metal/clock.h:50
20407c5e:	7179                	addi	sp,sp,-48
20407c60:	d606                	sw	ra,44(sp)
20407c62:	d422                	sw	s0,40(sp)
20407c64:	1800                	addi	s0,sp,48
20407c66:	fca42e23          	sw	a0,-36(s0)
C:/wsFreedomStudio/kernel/freedom-metal/metal/clock.h:51
20407c6a:	fdc42783          	lw	a5,-36(s0)
20407c6e:	fef42623          	sw	a5,-20(s0)
C:/wsFreedomStudio/kernel/freedom-metal/metal/clock.h:52
20407c72:	a831                	j	20407c8e <_metal_clock_call_all_callbacks+0x30>
C:/wsFreedomStudio/kernel/freedom-metal/metal/clock.h:53
20407c74:	fec42783          	lw	a5,-20(s0)
20407c78:	4398                	lw	a4,0(a5)
20407c7a:	fec42783          	lw	a5,-20(s0)
20407c7e:	43dc                	lw	a5,4(a5)
20407c80:	853e                	mv	a0,a5
20407c82:	9702                	jalr	a4
C:/wsFreedomStudio/kernel/freedom-metal/metal/clock.h:54
20407c84:	fec42783          	lw	a5,-20(s0)
20407c88:	479c                	lw	a5,8(a5)
20407c8a:	fef42623          	sw	a5,-20(s0)
C:/wsFreedomStudio/kernel/freedom-metal/metal/clock.h:52
20407c8e:	fec42783          	lw	a5,-20(s0)
20407c92:	f3ed                	bnez	a5,20407c74 <_metal_clock_call_all_callbacks+0x16>
C:/wsFreedomStudio/kernel/freedom-metal/metal/clock.h:56
20407c94:	0001                	nop
20407c96:	0001                	nop
20407c98:	50b2                	lw	ra,44(sp)
20407c9a:	5422                	lw	s0,40(sp)
20407c9c:	6145                	addi	sp,sp,48
20407c9e:	8082                	ret

20407ca0 <_metal_clock_append_to_callbacks>:
_metal_clock_append_to_callbacks():
C:/wsFreedomStudio/kernel/freedom-metal/metal/clock.h:63
20407ca0:	7179                	addi	sp,sp,-48
20407ca2:	d622                	sw	s0,44(sp)
20407ca4:	1800                	addi	s0,sp,48
20407ca6:	fca42e23          	sw	a0,-36(s0)
20407caa:	fcb42c23          	sw	a1,-40(s0)
C:/wsFreedomStudio/kernel/freedom-metal/metal/clock.h:64
20407cae:	fd842783          	lw	a5,-40(s0)
20407cb2:	0007a423          	sw	zero,8(a5) # 10008 <__heap_size+0xf808>
C:/wsFreedomStudio/kernel/freedom-metal/metal/clock.h:66
20407cb6:	fdc42783          	lw	a5,-36(s0)
20407cba:	e781                	bnez	a5,20407cc2 <_metal_clock_append_to_callbacks+0x22>
C:/wsFreedomStudio/kernel/freedom-metal/metal/clock.h:67
20407cbc:	fd842783          	lw	a5,-40(s0)
20407cc0:	a035                	j	20407cec <_metal_clock_append_to_callbacks+0x4c>
C:/wsFreedomStudio/kernel/freedom-metal/metal/clock.h:70
20407cc2:	fdc42783          	lw	a5,-36(s0)
20407cc6:	fef42623          	sw	a5,-20(s0)
C:/wsFreedomStudio/kernel/freedom-metal/metal/clock.h:72
20407cca:	a031                	j	20407cd6 <_metal_clock_append_to_callbacks+0x36>
C:/wsFreedomStudio/kernel/freedom-metal/metal/clock.h:73
20407ccc:	fec42783          	lw	a5,-20(s0)
20407cd0:	479c                	lw	a5,8(a5)
20407cd2:	fef42623          	sw	a5,-20(s0)
C:/wsFreedomStudio/kernel/freedom-metal/metal/clock.h:72
20407cd6:	fec42783          	lw	a5,-20(s0)
20407cda:	479c                	lw	a5,8(a5)
20407cdc:	fbe5                	bnez	a5,20407ccc <_metal_clock_append_to_callbacks+0x2c>
C:/wsFreedomStudio/kernel/freedom-metal/metal/clock.h:76
20407cde:	fec42783          	lw	a5,-20(s0)
20407ce2:	fd842703          	lw	a4,-40(s0)
20407ce6:	c798                	sw	a4,8(a5)
C:/wsFreedomStudio/kernel/freedom-metal/metal/clock.h:78
20407ce8:	fdc42783          	lw	a5,-36(s0)
C:/wsFreedomStudio/kernel/freedom-metal/metal/clock.h:79
20407cec:	853e                	mv	a0,a5
20407cee:	5432                	lw	s0,44(sp)
20407cf0:	6145                	addi	sp,sp,48
20407cf2:	8082                	ret

20407cf4 <metal_clock_get_rate_hz>:
metal_clock_get_rate_hz():
C:/wsFreedomStudio/kernel/freedom-metal/metal/clock.h:110
20407cf4:	1101                	addi	sp,sp,-32
20407cf6:	ce06                	sw	ra,28(sp)
20407cf8:	cc22                	sw	s0,24(sp)
20407cfa:	1000                	addi	s0,sp,32
20407cfc:	fea42623          	sw	a0,-20(s0)
C:/wsFreedomStudio/kernel/freedom-metal/metal/clock.h:111
20407d00:	fec42783          	lw	a5,-20(s0)
20407d04:	439c                	lw	a5,0(a5)
20407d06:	439c                	lw	a5,0(a5)
20407d08:	fec42503          	lw	a0,-20(s0)
20407d0c:	9782                	jalr	a5
20407d0e:	87aa                	mv	a5,a0
C:/wsFreedomStudio/kernel/freedom-metal/metal/clock.h:112
20407d10:	853e                	mv	a0,a5
20407d12:	40f2                	lw	ra,28(sp)
20407d14:	4462                	lw	s0,24(sp)
20407d16:	6105                	addi	sp,sp,32
20407d18:	8082                	ret

20407d1a <metal_clock_set_rate_hz>:
metal_clock_set_rate_hz():
C:/wsFreedomStudio/kernel/freedom-metal/metal/clock.h:128
20407d1a:	7179                	addi	sp,sp,-48
20407d1c:	d606                	sw	ra,44(sp)
20407d1e:	d422                	sw	s0,40(sp)
20407d20:	1800                	addi	s0,sp,48
20407d22:	fca42e23          	sw	a0,-36(s0)
20407d26:	fcb42c23          	sw	a1,-40(s0)
C:/wsFreedomStudio/kernel/freedom-metal/metal/clock.h:129
20407d2a:	fdc42783          	lw	a5,-36(s0)
20407d2e:	43dc                	lw	a5,4(a5)
20407d30:	853e                	mv	a0,a5
20407d32:	f2dff0ef          	jal	ra,20407c5e <_metal_clock_call_all_callbacks>
C:/wsFreedomStudio/kernel/freedom-metal/metal/clock.h:131
20407d36:	fdc42783          	lw	a5,-36(s0)
20407d3a:	439c                	lw	a5,0(a5)
20407d3c:	43dc                	lw	a5,4(a5)
20407d3e:	fd842583          	lw	a1,-40(s0)
20407d42:	fdc42503          	lw	a0,-36(s0)
20407d46:	9782                	jalr	a5
20407d48:	fea42623          	sw	a0,-20(s0)
C:/wsFreedomStudio/kernel/freedom-metal/metal/clock.h:133
20407d4c:	fdc42783          	lw	a5,-36(s0)
20407d50:	479c                	lw	a5,8(a5)
20407d52:	853e                	mv	a0,a5
20407d54:	f0bff0ef          	jal	ra,20407c5e <_metal_clock_call_all_callbacks>
C:/wsFreedomStudio/kernel/freedom-metal/metal/clock.h:135
20407d58:	fec42783          	lw	a5,-20(s0)
C:/wsFreedomStudio/kernel/freedom-metal/metal/clock.h:136
20407d5c:	853e                	mv	a0,a5
20407d5e:	50b2                	lw	ra,44(sp)
20407d60:	5422                	lw	s0,40(sp)
20407d62:	6145                	addi	sp,sp,48
20407d64:	8082                	ret

20407d66 <metal_clock_register_pre_rate_change_callback>:
metal_clock_register_pre_rate_change_callback():
C:/wsFreedomStudio/kernel/freedom-metal/metal/clock.h:146
20407d66:	1101                	addi	sp,sp,-32
20407d68:	ce06                	sw	ra,28(sp)
20407d6a:	cc22                	sw	s0,24(sp)
20407d6c:	1000                	addi	s0,sp,32
20407d6e:	fea42623          	sw	a0,-20(s0)
20407d72:	feb42423          	sw	a1,-24(s0)
C:/wsFreedomStudio/kernel/freedom-metal/metal/clock.h:148
20407d76:	fec42783          	lw	a5,-20(s0)
20407d7a:	43dc                	lw	a5,4(a5)
20407d7c:	fe842583          	lw	a1,-24(s0)
20407d80:	853e                	mv	a0,a5
20407d82:	f1fff0ef          	jal	ra,20407ca0 <_metal_clock_append_to_callbacks>
20407d86:	872a                	mv	a4,a0
C:/wsFreedomStudio/kernel/freedom-metal/metal/clock.h:147
20407d88:	fec42783          	lw	a5,-20(s0)
20407d8c:	c3d8                	sw	a4,4(a5)
C:/wsFreedomStudio/kernel/freedom-metal/metal/clock.h:149
20407d8e:	0001                	nop
20407d90:	40f2                	lw	ra,28(sp)
20407d92:	4462                	lw	s0,24(sp)
20407d94:	6105                	addi	sp,sp,32
20407d96:	8082                	ret

20407d98 <metal_clock_register_post_rate_change_callback>:
metal_clock_register_post_rate_change_callback():
C:/wsFreedomStudio/kernel/freedom-metal/metal/clock.h:159
20407d98:	1101                	addi	sp,sp,-32
20407d9a:	ce06                	sw	ra,28(sp)
20407d9c:	cc22                	sw	s0,24(sp)
20407d9e:	1000                	addi	s0,sp,32
20407da0:	fea42623          	sw	a0,-20(s0)
20407da4:	feb42423          	sw	a1,-24(s0)
C:/wsFreedomStudio/kernel/freedom-metal/metal/clock.h:161
20407da8:	fec42783          	lw	a5,-20(s0)
20407dac:	479c                	lw	a5,8(a5)
20407dae:	fe842583          	lw	a1,-24(s0)
20407db2:	853e                	mv	a0,a5
20407db4:	eedff0ef          	jal	ra,20407ca0 <_metal_clock_append_to_callbacks>
20407db8:	872a                	mv	a4,a0
C:/wsFreedomStudio/kernel/freedom-metal/metal/clock.h:160
20407dba:	fec42783          	lw	a5,-20(s0)
20407dbe:	c798                	sw	a4,8(a5)
C:/wsFreedomStudio/kernel/freedom-metal/metal/clock.h:162
20407dc0:	0001                	nop
20407dc2:	40f2                	lw	ra,28(sp)
20407dc4:	4462                	lw	s0,24(sp)
20407dc6:	6105                	addi	sp,sp,32
20407dc8:	8082                	ret

20407dca <__metal_shutdown_exit>:
__metal_shutdown_exit():
C:/wsFreedomStudio/kernel/freedom-metal/metal/shutdown.h:26
20407dca:	1101                	addi	sp,sp,-32
20407dcc:	ce06                	sw	ra,28(sp)
20407dce:	cc22                	sw	s0,24(sp)
20407dd0:	1000                	addi	s0,sp,32
20407dd2:	fea42623          	sw	a0,-20(s0)
20407dd6:	feb42423          	sw	a1,-24(s0)
C:/wsFreedomStudio/kernel/freedom-metal/metal/shutdown.h:27
20407dda:	fec42783          	lw	a5,-20(s0)
20407dde:	439c                	lw	a5,0(a5)
20407de0:	439c                	lw	a5,0(a5)
20407de2:	fe842583          	lw	a1,-24(s0)
20407de6:	fec42503          	lw	a0,-20(s0)
20407dea:	9782                	jalr	a5

20407dec <metal_shutdown>:
metal_shutdown():
C:/wsFreedomStudio/kernel/freedom-metal/src/shutdown.c:11
20407dec:	1101                	addi	sp,sp,-32
20407dee:	ce06                	sw	ra,28(sp)
20407df0:	cc22                	sw	s0,24(sp)
20407df2:	1000                	addi	s0,sp,32
20407df4:	fea42623          	sw	a0,-20(s0)
C:/wsFreedomStudio/kernel/freedom-metal/src/shutdown.c:12
20407df8:	fec42583          	lw	a1,-20(s0)
20407dfc:	82018513          	addi	a0,gp,-2016 # 800007c0 <__metal_dt_test_100000>
20407e00:	fcbff0ef          	jal	ra,20407dca <__metal_shutdown_exit>
	...

20407e80 <__metal_vector_table>:
IRQ_0():
C:/wsFreedomStudio/kernel/freedom-metal/src/vector.S:96
20407e80:	c0afc06f          	j	2040428a <metal_interrupt_vector_handler>

20407e84 <IRQ_1>:
IRQ_1():
C:/wsFreedomStudio/kernel/freedom-metal/src/vector.S:98
20407e84:	c06fc06f          	j	2040428a <metal_interrupt_vector_handler>

20407e88 <IRQ_2>:
IRQ_2():
C:/wsFreedomStudio/kernel/freedom-metal/src/vector.S:100
20407e88:	c02fc06f          	j	2040428a <metal_interrupt_vector_handler>

20407e8c <IRQ_3>:
IRQ_3():
C:/wsFreedomStudio/kernel/freedom-metal/src/vector.S:102
20407e8c:	c2cfc06f          	j	204042b8 <metal_software_interrupt_vector_handler>

20407e90 <IRQ_4>:
IRQ_4():
C:/wsFreedomStudio/kernel/freedom-metal/src/vector.S:104
20407e90:	bfafc06f          	j	2040428a <metal_interrupt_vector_handler>

20407e94 <IRQ_5>:
IRQ_5():
C:/wsFreedomStudio/kernel/freedom-metal/src/vector.S:106
20407e94:	bf6fc06f          	j	2040428a <metal_interrupt_vector_handler>

20407e98 <IRQ_6>:
IRQ_6():
C:/wsFreedomStudio/kernel/freedom-metal/src/vector.S:108
20407e98:	bf2fc06f          	j	2040428a <metal_interrupt_vector_handler>

20407e9c <IRQ_7>:
IRQ_7():
C:/wsFreedomStudio/kernel/freedom-metal/src/vector.S:110
20407e9c:	d16fc06f          	j	204043b2 <metal_timer_interrupt_vector_handler>

20407ea0 <IRQ_8>:
IRQ_8():
C:/wsFreedomStudio/kernel/freedom-metal/src/vector.S:112
20407ea0:	beafc06f          	j	2040428a <metal_interrupt_vector_handler>

20407ea4 <IRQ_9>:
IRQ_9():
C:/wsFreedomStudio/kernel/freedom-metal/src/vector.S:114
20407ea4:	be6fc06f          	j	2040428a <metal_interrupt_vector_handler>

20407ea8 <IRQ_10>:
IRQ_10():
C:/wsFreedomStudio/kernel/freedom-metal/src/vector.S:116
20407ea8:	be2fc06f          	j	2040428a <metal_interrupt_vector_handler>

20407eac <IRQ_11>:
IRQ_11():
C:/wsFreedomStudio/kernel/freedom-metal/src/vector.S:118
20407eac:	bdefc06f          	j	2040428a <metal_interrupt_vector_handler>

20407eb0 <IRQ_12>:
IRQ_12():
C:/wsFreedomStudio/kernel/freedom-metal/src/vector.S:120
20407eb0:	bdafc06f          	j	2040428a <metal_interrupt_vector_handler>

20407eb4 <IRQ_13>:
IRQ_13():
C:/wsFreedomStudio/kernel/freedom-metal/src/vector.S:122
20407eb4:	bd6fc06f          	j	2040428a <metal_interrupt_vector_handler>

20407eb8 <IRQ_14>:
IRQ_14():
C:/wsFreedomStudio/kernel/freedom-metal/src/vector.S:124
20407eb8:	bd2fc06f          	j	2040428a <metal_interrupt_vector_handler>

20407ebc <IRQ_15>:
IRQ_15():
C:/wsFreedomStudio/kernel/freedom-metal/src/vector.S:126
20407ebc:	bcefc06f          	j	2040428a <metal_interrupt_vector_handler>

20407ec0 <IRQ_LC0>:
IRQ_LC0():
C:/wsFreedomStudio/kernel/freedom-metal/src/vector.S:128
20407ec0:	83bfc06f          	j	204046fa <metal_lc0_interrupt_vector_handler>

20407ec4 <IRQ_LC1>:
IRQ_LC1():
C:/wsFreedomStudio/kernel/freedom-metal/src/vector.S:130
20407ec4:	8cdfc06f          	j	20404790 <metal_lc1_interrupt_vector_handler>

20407ec8 <IRQ_LC2>:
IRQ_LC2():
C:/wsFreedomStudio/kernel/freedom-metal/src/vector.S:132
20407ec8:	95ffc06f          	j	20404826 <metal_lc2_interrupt_vector_handler>

20407ecc <IRQ_LC3>:
IRQ_LC3():
C:/wsFreedomStudio/kernel/freedom-metal/src/vector.S:134
20407ecc:	9f1fc06f          	j	204048bc <metal_lc3_interrupt_vector_handler>

20407ed0 <IRQ_LC4>:
IRQ_LC4():
C:/wsFreedomStudio/kernel/freedom-metal/src/vector.S:136
20407ed0:	a83fc06f          	j	20404952 <metal_lc4_interrupt_vector_handler>

20407ed4 <IRQ_LC5>:
IRQ_LC5():
C:/wsFreedomStudio/kernel/freedom-metal/src/vector.S:138
20407ed4:	b15fc06f          	j	204049e8 <metal_lc5_interrupt_vector_handler>

20407ed8 <IRQ_LC6>:
IRQ_LC6():
C:/wsFreedomStudio/kernel/freedom-metal/src/vector.S:140
20407ed8:	ba7fc06f          	j	20404a7e <metal_lc6_interrupt_vector_handler>

20407edc <IRQ_LC7>:
IRQ_LC7():
C:/wsFreedomStudio/kernel/freedom-metal/src/vector.S:142
20407edc:	c39fc06f          	j	20404b14 <metal_lc7_interrupt_vector_handler>

20407ee0 <IRQ_LC8>:
IRQ_LC8():
C:/wsFreedomStudio/kernel/freedom-metal/src/vector.S:144
20407ee0:	ccbfc06f          	j	20404baa <metal_lc8_interrupt_vector_handler>

20407ee4 <IRQ_LC9>:
IRQ_LC9():
C:/wsFreedomStudio/kernel/freedom-metal/src/vector.S:146
20407ee4:	d5dfc06f          	j	20404c40 <metal_lc9_interrupt_vector_handler>

20407ee8 <IRQ_LC10>:
IRQ_LC10():
C:/wsFreedomStudio/kernel/freedom-metal/src/vector.S:148
20407ee8:	deffc06f          	j	20404cd6 <metal_lc10_interrupt_vector_handler>

20407eec <IRQ_LC11>:
IRQ_LC11():
C:/wsFreedomStudio/kernel/freedom-metal/src/vector.S:150
20407eec:	e81fc06f          	j	20404d6c <metal_lc11_interrupt_vector_handler>

20407ef0 <IRQ_LC12>:
IRQ_LC12():
C:/wsFreedomStudio/kernel/freedom-metal/src/vector.S:152
20407ef0:	f13fc06f          	j	20404e02 <metal_lc12_interrupt_vector_handler>

20407ef4 <IRQ_LC13>:
IRQ_LC13():
C:/wsFreedomStudio/kernel/freedom-metal/src/vector.S:154
20407ef4:	fa5fc06f          	j	20404e98 <metal_lc13_interrupt_vector_handler>

20407ef8 <IRQ_LC14>:
IRQ_LC14():
C:/wsFreedomStudio/kernel/freedom-metal/src/vector.S:156
20407ef8:	836fd06f          	j	20404f2e <metal_lc14_interrupt_vector_handler>

20407efc <IRQ_LC15>:
IRQ_LC15():
C:/wsFreedomStudio/kernel/freedom-metal/src/vector.S:158
20407efc:	8c8fd06f          	j	20404fc4 <metal_lc15_interrupt_vector_handler>

20407f00 <__metal_driver_fixed_clock_rate>:
__metal_driver_fixed_clock_rate():
C:\wsFreedomStudio\kernel\bsp\build\debug/./metal/machine.h:180
20407f00:	1101                	addi	sp,sp,-32
20407f02:	ce22                	sw	s0,28(sp)
20407f04:	1000                	addi	s0,sp,32
20407f06:	fea42623          	sw	a0,-20(s0)
C:\wsFreedomStudio\kernel\bsp\build\debug/./metal/machine.h:181
20407f0a:	fec42703          	lw	a4,-20(s0)
20407f0e:	800007b7          	lui	a5,0x80000
20407f12:	06078793          	addi	a5,a5,96 # 80000060 <metal_segment_heap_target_end+0xffffe590>
20407f16:	00f71763          	bne	a4,a5,20407f24 <__metal_driver_fixed_clock_rate+0x24>
C:\wsFreedomStudio\kernel\bsp\build\debug/./metal/machine.h:182
20407f1a:	00f427b7          	lui	a5,0xf42
20407f1e:	40078793          	addi	a5,a5,1024 # f42400 <__heap_size+0xf41c00>
20407f22:	a825                	j	20407f5a <__metal_driver_fixed_clock_rate+0x5a>
C:\wsFreedomStudio\kernel\bsp\build\debug/./metal/machine.h:184
20407f24:	fec42703          	lw	a4,-20(s0)
20407f28:	800007b7          	lui	a5,0x80000
20407f2c:	06c78793          	addi	a5,a5,108 # 8000006c <metal_segment_heap_target_end+0xffffe59c>
20407f30:	00f71763          	bne	a4,a5,20407f3e <__metal_driver_fixed_clock_rate+0x3e>
C:\wsFreedomStudio\kernel\bsp\build\debug/./metal/machine.h:185
20407f34:	044aa7b7          	lui	a5,0x44aa
20407f38:	20078793          	addi	a5,a5,512 # 44aa200 <__heap_size+0x44a9a00>
20407f3c:	a839                	j	20407f5a <__metal_driver_fixed_clock_rate+0x5a>
C:\wsFreedomStudio\kernel\bsp\build\debug/./metal/machine.h:187
20407f3e:	fec42703          	lw	a4,-20(s0)
20407f42:	800007b7          	lui	a5,0x80000
20407f46:	07878793          	addi	a5,a5,120 # 80000078 <metal_segment_heap_target_end+0xffffe5a8>
20407f4a:	00f71763          	bne	a4,a5,20407f58 <__metal_driver_fixed_clock_rate+0x58>
C:\wsFreedomStudio\kernel\bsp\build\debug/./metal/machine.h:188
20407f4e:	01e857b7          	lui	a5,0x1e85
20407f52:	80078793          	addi	a5,a5,-2048 # 1e84800 <__heap_size+0x1e84000>
20407f56:	a011                	j	20407f5a <__metal_driver_fixed_clock_rate+0x5a>
C:\wsFreedomStudio\kernel\bsp\build\debug/./metal/machine.h:191
20407f58:	4781                	li	a5,0
C:\wsFreedomStudio\kernel\bsp\build\debug/./metal/machine.h:193
20407f5a:	853e                	mv	a0,a5
20407f5c:	4472                	lw	s0,28(sp)
20407f5e:	6105                	addi	sp,sp,32
20407f60:	8082                	ret

20407f62 <__metal_driver_fixed_clock_get_rate_hz>:
__metal_driver_fixed_clock_get_rate_hz():
C:/wsFreedomStudio/kernel/freedom-metal/src/drivers/fixed-clock.c:12
20407f62:	1101                	addi	sp,sp,-32
20407f64:	ce06                	sw	ra,28(sp)
20407f66:	cc22                	sw	s0,24(sp)
20407f68:	1000                	addi	s0,sp,32
20407f6a:	fea42623          	sw	a0,-20(s0)
C:/wsFreedomStudio/kernel/freedom-metal/src/drivers/fixed-clock.c:13
20407f6e:	fec42503          	lw	a0,-20(s0)
20407f72:	f8fff0ef          	jal	ra,20407f00 <__metal_driver_fixed_clock_rate>
20407f76:	87aa                	mv	a5,a0
C:/wsFreedomStudio/kernel/freedom-metal/src/drivers/fixed-clock.c:14
20407f78:	853e                	mv	a0,a5
20407f7a:	40f2                	lw	ra,28(sp)
20407f7c:	4462                	lw	s0,24(sp)
20407f7e:	6105                	addi	sp,sp,32
20407f80:	8082                	ret

20407f82 <__metal_driver_fixed_clock_set_rate_hz>:
__metal_driver_fixed_clock_set_rate_hz():
C:/wsFreedomStudio/kernel/freedom-metal/src/drivers/fixed-clock.c:17
20407f82:	1101                	addi	sp,sp,-32
20407f84:	ce06                	sw	ra,28(sp)
20407f86:	cc22                	sw	s0,24(sp)
20407f88:	1000                	addi	s0,sp,32
20407f8a:	fea42623          	sw	a0,-20(s0)
20407f8e:	feb42423          	sw	a1,-24(s0)
C:/wsFreedomStudio/kernel/freedom-metal/src/drivers/fixed-clock.c:18
20407f92:	fec42503          	lw	a0,-20(s0)
20407f96:	fcdff0ef          	jal	ra,20407f62 <__metal_driver_fixed_clock_get_rate_hz>
20407f9a:	87aa                	mv	a5,a0
C:/wsFreedomStudio/kernel/freedom-metal/src/drivers/fixed-clock.c:19
20407f9c:	853e                	mv	a0,a5
20407f9e:	40f2                	lw	ra,28(sp)
20407fa0:	4462                	lw	s0,24(sp)
20407fa2:	6105                	addi	sp,sp,32
20407fa4:	8082                	ret

20407fa6 <_exit>:
_exit():
C:/wsFreedomStudio/kernel/freedom-metal/gloss/sys_exit.c:3
20407fa6:	1101                	addi	sp,sp,-32
20407fa8:	ce06                	sw	ra,28(sp)
20407faa:	cc22                	sw	s0,24(sp)
20407fac:	1000                	addi	s0,sp,32
20407fae:	fea42623          	sw	a0,-20(s0)
C:/wsFreedomStudio/kernel/freedom-metal/gloss/sys_exit.c:4
20407fb2:	fec42503          	lw	a0,-20(s0)
20407fb6:	e37ff0ef          	jal	ra,20407dec <metal_shutdown>
